
FullCode.elf:     file format elf32-avr

Sections:
Idx Name          Size      VMA       LMA       File off  Algn
  0 .text         000021a4  00000000  00000000  00000094  2**1
                  CONTENTS, ALLOC, LOAD, READONLY, CODE
  1 .data         000000b6  00800060  000021a4  00002238  2**0
                  CONTENTS, ALLOC, LOAD, DATA
  2 .bss          00000137  00800116  00800116  000022ee  2**0
                  ALLOC
  3 .comment      0000005c  00000000  00000000  000022ee  2**0
                  CONTENTS, READONLY
  4 .note.gnu.avr.deviceinfo 0000003c  00000000  00000000  0000234c  2**2
                  CONTENTS, READONLY
  5 .debug_aranges 000001b0  00000000  00000000  00002388  2**0
                  CONTENTS, READONLY, DEBUGGING
  6 .debug_info   0000206c  00000000  00000000  00002538  2**0
                  CONTENTS, READONLY, DEBUGGING
  7 .debug_abbrev 00000967  00000000  00000000  000045a4  2**0
                  CONTENTS, READONLY, DEBUGGING
  8 .debug_line   000011b8  00000000  00000000  00004f0b  2**0
                  CONTENTS, READONLY, DEBUGGING
  9 .debug_frame  0000046c  00000000  00000000  000060c4  2**2
                  CONTENTS, READONLY, DEBUGGING
 10 .debug_str    000007cc  00000000  00000000  00006530  2**0
                  CONTENTS, READONLY, DEBUGGING
 11 .debug_loc    000015cb  00000000  00000000  00006cfc  2**0
                  CONTENTS, READONLY, DEBUGGING
 12 .debug_ranges 000001b0  00000000  00000000  000082c7  2**0
                  CONTENTS, READONLY, DEBUGGING

Disassembly of section .text:

00000000 <__vectors>:
       0:	0c 94 c5 00 	jmp	0x18a	; 0x18a <__ctors_end>
       4:	0c 94 e2 00 	jmp	0x1c4	; 0x1c4 <__bad_interrupt>
       8:	0c 94 e2 00 	jmp	0x1c4	; 0x1c4 <__bad_interrupt>
       c:	0c 94 e2 00 	jmp	0x1c4	; 0x1c4 <__bad_interrupt>
      10:	0c 94 e2 00 	jmp	0x1c4	; 0x1c4 <__bad_interrupt>
      14:	0c 94 e2 00 	jmp	0x1c4	; 0x1c4 <__bad_interrupt>
      18:	0c 94 e2 00 	jmp	0x1c4	; 0x1c4 <__bad_interrupt>
      1c:	0c 94 e2 00 	jmp	0x1c4	; 0x1c4 <__bad_interrupt>
      20:	0c 94 e2 00 	jmp	0x1c4	; 0x1c4 <__bad_interrupt>
      24:	0c 94 e2 00 	jmp	0x1c4	; 0x1c4 <__bad_interrupt>
      28:	0c 94 e2 00 	jmp	0x1c4	; 0x1c4 <__bad_interrupt>
      2c:	0c 94 e2 00 	jmp	0x1c4	; 0x1c4 <__bad_interrupt>
      30:	0c 94 e2 00 	jmp	0x1c4	; 0x1c4 <__bad_interrupt>
      34:	0c 94 b1 02 	jmp	0x562	; 0x562 <__vector_13>
      38:	0c 94 e2 00 	jmp	0x1c4	; 0x1c4 <__bad_interrupt>
      3c:	0c 94 e2 00 	jmp	0x1c4	; 0x1c4 <__bad_interrupt>
      40:	0c 94 e2 00 	jmp	0x1c4	; 0x1c4 <__bad_interrupt>
      44:	0c 94 e2 00 	jmp	0x1c4	; 0x1c4 <__bad_interrupt>
      48:	0c 94 e2 00 	jmp	0x1c4	; 0x1c4 <__bad_interrupt>
      4c:	0c 94 e2 00 	jmp	0x1c4	; 0x1c4 <__bad_interrupt>
      50:	0c 94 e2 00 	jmp	0x1c4	; 0x1c4 <__bad_interrupt>

00000054 <__trampolines_end>:
      54:	4e 41       	sbci	r20, 0x1E	; 30
      56:	4e 49       	Address 0x00000056 is out of bounds.
.word	0xffff	; ????

00000057 <pstr_inity>:
      57:	49 4e 49 54 59                                      INITY

0000005c <pstr_inf>:
      5c:	49 4e 46                                            INF

0000005f <pwr_m10>:
      5f:	cd cc cc 3d 0a d7 23 3c 17 b7 d1 38 77 cc 2b 32     ...=..#<...8w.+2
      6f:	95 95 e6 24 1f b1 4f 0a                             ...$..O.

00000077 <pwr_p10>:
      77:	00 00 20 41 00 00 c8 42 00 40 1c 46 20 bc be 4c     .. A...B.@.F ..L
      87:	ca 1b 0e 5a ae c5 9d 74 00 40 7a 10 f3 5a 00 a0     ...Z...t.@z..Z..
      97:	72 4e 18 09 00 10 a5 d4 e8 00 00 e8 76 48 17 00     rN..........vH..
      a7:	00 e4 0b 54 02 00 00 ca 9a 3b 00 00 00 e1 f5 05     ...T.....;......
      b7:	00 00 80 96 98 00 00 00 40 42 0f 00 00 00 a0 86     ........@B......
      c7:	01 00 00 00 10 27 00 00 00 00 e8 03 00 00 00 00     .....'..........
      d7:	64 00 00 00 00 00 0a 00 00 00 00 00 01 00 00 00     d...............
      e7:	00 00 2c 76 d8 88 dc 67 4f 08 23 df c1 df ae 59     ..,v...gO.#....Y
      f7:	e1 b1 b7 96 e5 e3 e4 53 c6 3a e6 51 99 76 96 e8     .......S.:.Q.v..
     107:	e6 c2 84 26 eb 89 8c 9b 62 ed 40 7c 6f fc ef bc     ...&....b.@|o...
     117:	9c 9f 40 f2 ba a5 6f a5 f4 90 05 5a 2a f7 5c 93     ..@...o....Z*.\.
     127:	6b 6c f9 67 6d c1 1b fc e0 e4 0d 47 fe f5 20 e6     kl.gm......G.. .
     137:	b5 00 d0 ed 90 2e 03 00 94 35 77 05 00 80 84 1e     .........5w.....
     147:	08 00 00 20 4e 0a 00 00 00 c8 0c 33 33 33 33 0f     ... N......3333.
     157:	98 6e 12 83 11 41 ef 8d 21 14 89 3b e6 55 16 cf     .n...A..!..;.U..
     167:	fe e6 db 18 d1 84 4b 38 1b f7 7c 1d 90 1d a4 bb     ......K8..|.....
     177:	e4 24 20 32 84 72 5e 22 81 00 c9 f1 24 ec a1 e5     .$ 2.r^"....$...
     187:	3d 27 00                                            ='.

0000018a <__ctors_end>:
     18a:	11 24       	eor	r1, r1
     18c:	1f be       	out	0x3f, r1	; 63
     18e:	cf e5       	ldi	r28, 0x5F	; 95
     190:	d8 e0       	ldi	r29, 0x08	; 8
     192:	de bf       	out	0x3e, r29	; 62
     194:	cd bf       	out	0x3d, r28	; 61

00000196 <__do_copy_data>:
     196:	11 e0       	ldi	r17, 0x01	; 1
     198:	a0 e6       	ldi	r26, 0x60	; 96
     19a:	b0 e0       	ldi	r27, 0x00	; 0
     19c:	e4 ea       	ldi	r30, 0xA4	; 164
     19e:	f1 e2       	ldi	r31, 0x21	; 33
     1a0:	02 c0       	rjmp	.+4      	; 0x1a6 <__do_copy_data+0x10>
     1a2:	05 90       	lpm	r0, Z+
     1a4:	0d 92       	st	X+, r0
     1a6:	a6 31       	cpi	r26, 0x16	; 22
     1a8:	b1 07       	cpc	r27, r17
     1aa:	d9 f7       	brne	.-10     	; 0x1a2 <__do_copy_data+0xc>

000001ac <__do_clear_bss>:
     1ac:	22 e0       	ldi	r18, 0x02	; 2
     1ae:	a6 e1       	ldi	r26, 0x16	; 22
     1b0:	b1 e0       	ldi	r27, 0x01	; 1
     1b2:	01 c0       	rjmp	.+2      	; 0x1b6 <.do_clear_bss_start>

000001b4 <.do_clear_bss_loop>:
     1b4:	1d 92       	st	X+, r1

000001b6 <.do_clear_bss_start>:
     1b6:	ad 34       	cpi	r26, 0x4D	; 77
     1b8:	b2 07       	cpc	r27, r18
     1ba:	e1 f7       	brne	.-8      	; 0x1b4 <.do_clear_bss_loop>
     1bc:	0e 94 3b 06 	call	0xc76	; 0xc76 <main>
     1c0:	0c 94 d0 10 	jmp	0x21a0	; 0x21a0 <_exit>

000001c4 <__bad_interrupt>:
     1c4:	0c 94 00 00 	jmp	0	; 0x0 <__vectors>

000001c8 <I2C_Init>:
	return 1;												/* If yes then return 1 to indicate ack received i.e. ready to accept data byte */
	if (status == 0x20)										/* Check weather SLA+W transmitted & nack received or not? */
	return 2;												/* If yes then return 2 to indicate nack received i.e. device is busy */
	else
	return 3;												/* Else return 3 to indicate SLA+W failed */
}
     1c8:	11 b8       	out	0x01, r1	; 1
     1ca:	80 e2       	ldi	r24, 0x20	; 32
     1cc:	80 b9       	out	0x00, r24	; 0
     1ce:	08 95       	ret

000001d0 <I2C_Repeated_Start>:

uint8_t I2C_Repeated_Start(char slave_read_address)			/* I2C repeated start function */
{
	uint8_t status;											/* Declare variable */
	TWCR = (1<<TWSTA)|(1<<TWEN)|(1<<TWINT);					/* Enable TWI, generate start condition and clear interrupt flag */
     1d0:	94 ea       	ldi	r25, 0xA4	; 164
     1d2:	96 bf       	out	0x36, r25	; 54
	while (!(TWCR & (1<<TWINT)));							/* Wait until TWI finish its current job (start condition) */
     1d4:	06 b6       	in	r0, 0x36	; 54
     1d6:	07 fe       	sbrs	r0, 7
     1d8:	fd cf       	rjmp	.-6      	; 0x1d4 <I2C_Repeated_Start+0x4>
	status = TWSR & 0xF8;									/* Read TWI status register with masking lower three bits */
     1da:	91 b1       	in	r25, 0x01	; 1
     1dc:	98 7f       	andi	r25, 0xF8	; 248
	if (status != 0x10)										/* Check weather repeated start condition transmitted successfully or not? */
     1de:	90 31       	cpi	r25, 0x10	; 16
     1e0:	71 f4       	brne	.+28     	; 0x1fe <I2C_Repeated_Start+0x2e>
	return 0;												/* If no then return 0 to indicate repeated start condition fail */
	TWDR = slave_read_address;								/* If yes then write SLA+R in TWI data register */
     1e2:	83 b9       	out	0x03, r24	; 3
	TWCR = (1<<TWEN)|(1<<TWINT);							/* Enable TWI and clear interrupt flag */
     1e4:	84 e8       	ldi	r24, 0x84	; 132
     1e6:	86 bf       	out	0x36, r24	; 54
	while (!(TWCR & (1<<TWINT)));							/* Wait until TWI finish its current job (Write operation) */
     1e8:	06 b6       	in	r0, 0x36	; 54
     1ea:	07 fe       	sbrs	r0, 7
     1ec:	fd cf       	rjmp	.-6      	; 0x1e8 <I2C_Repeated_Start+0x18>
	status = TWSR & 0xF8;									/* Read TWI status register with masking lower three bits */
     1ee:	81 b1       	in	r24, 0x01	; 1
     1f0:	88 7f       	andi	r24, 0xF8	; 248
	if (status == 0x40)										/* Check weather SLA+R transmitted & ack received or not? */
     1f2:	80 34       	cpi	r24, 0x40	; 64
     1f4:	31 f0       	breq	.+12     	; 0x202 <I2C_Repeated_Start+0x32>
	return 1;												/* If yes then return 1 to indicate ack received */ 
	if (status == 0x20)										/* Check weather SLA+R transmitted & nack received or not? */
     1f6:	80 32       	cpi	r24, 0x20	; 32
     1f8:	31 f4       	brne	.+12     	; 0x206 <I2C_Repeated_Start+0x36>
	return 2;												/* If yes then return 2 to indicate nack received i.e. device is busy */
     1fa:	82 e0       	ldi	r24, 0x02	; 2
     1fc:	08 95       	ret
	uint8_t status;											/* Declare variable */
	TWCR = (1<<TWSTA)|(1<<TWEN)|(1<<TWINT);					/* Enable TWI, generate start condition and clear interrupt flag */
	while (!(TWCR & (1<<TWINT)));							/* Wait until TWI finish its current job (start condition) */
	status = TWSR & 0xF8;									/* Read TWI status register with masking lower three bits */
	if (status != 0x10)										/* Check weather repeated start condition transmitted successfully or not? */
	return 0;												/* If no then return 0 to indicate repeated start condition fail */
     1fe:	80 e0       	ldi	r24, 0x00	; 0
     200:	08 95       	ret
	TWDR = slave_read_address;								/* If yes then write SLA+R in TWI data register */
	TWCR = (1<<TWEN)|(1<<TWINT);							/* Enable TWI and clear interrupt flag */
	while (!(TWCR & (1<<TWINT)));							/* Wait until TWI finish its current job (Write operation) */
	status = TWSR & 0xF8;									/* Read TWI status register with masking lower three bits */
	if (status == 0x40)										/* Check weather SLA+R transmitted & ack received or not? */
	return 1;												/* If yes then return 1 to indicate ack received */ 
     202:	81 e0       	ldi	r24, 0x01	; 1
     204:	08 95       	ret
	if (status == 0x20)										/* Check weather SLA+R transmitted & nack received or not? */
	return 2;												/* If yes then return 2 to indicate nack received i.e. device is busy */
	else
	return 3;												/* Else return 3 to indicate SLA+W failed */
     206:	83 e0       	ldi	r24, 0x03	; 3
}
     208:	08 95       	ret

0000020a <I2C_Stop>:

void I2C_Stop()												/* I2C stop function */
{
	TWCR=(1<<TWSTO)|(1<<TWINT)|(1<<TWEN);					/* Enable TWI, generate stop condition and clear interrupt flag */
     20a:	84 e9       	ldi	r24, 0x94	; 148
     20c:	86 bf       	out	0x36, r24	; 54
	while(TWCR & (1<<TWSTO));								/* Wait until stop condition execution */ 
     20e:	06 b6       	in	r0, 0x36	; 54
     210:	04 fc       	sbrc	r0, 4
     212:	fd cf       	rjmp	.-6      	; 0x20e <I2C_Stop+0x4>
}
     214:	08 95       	ret

00000216 <I2C_Start_Wait>:

void I2C_Start_Wait(char slave_write_address)				/* I2C start wait function */
{
     216:	cf 93       	push	r28
     218:	c8 2f       	mov	r28, r24
	uint8_t status;											/* Declare variable */
	while (1)
	{
		TWCR = (1<<TWSTA)|(1<<TWEN)|(1<<TWINT);				/* Enable TWI, generate start condition and clear interrupt flag */
     21a:	84 ea       	ldi	r24, 0xA4	; 164
     21c:	86 bf       	out	0x36, r24	; 54
		while (!(TWCR & (1<<TWINT)));						/* Wait until TWI finish its current job (start condition) */
     21e:	06 b6       	in	r0, 0x36	; 54
     220:	07 fe       	sbrs	r0, 7
     222:	fd cf       	rjmp	.-6      	; 0x21e <I2C_Start_Wait+0x8>
		status = TWSR & 0xF8;								/* Read TWI status register with masking lower three bits */
     224:	81 b1       	in	r24, 0x01	; 1
     226:	88 7f       	andi	r24, 0xF8	; 248
		if (status != 0x08)									/* Check weather start condition transmitted successfully or not? */
     228:	88 30       	cpi	r24, 0x08	; 8
     22a:	b9 f7       	brne	.-18     	; 0x21a <I2C_Start_Wait+0x4>
		continue;											/* If no then continue with start loop again */
		TWDR = slave_write_address;							/* If yes then write SLA+W in TWI data register */
     22c:	c3 b9       	out	0x03, r28	; 3
		TWCR = (1<<TWEN)|(1<<TWINT);						/* Enable TWI and clear interrupt flag */
     22e:	84 e8       	ldi	r24, 0x84	; 132
     230:	86 bf       	out	0x36, r24	; 54
		while (!(TWCR & (1<<TWINT)));						/* Wait until TWI finish its current job (Write operation) */
     232:	06 b6       	in	r0, 0x36	; 54
     234:	07 fe       	sbrs	r0, 7
     236:	fd cf       	rjmp	.-6      	; 0x232 <I2C_Start_Wait+0x1c>
		status = TWSR & 0xF8;								/* Read TWI status register with masking lower three bits */
     238:	81 b1       	in	r24, 0x01	; 1
     23a:	88 7f       	andi	r24, 0xF8	; 248
		if (status != 0x18 )								/* Check weather SLA+W transmitted & ack received or not? */
     23c:	88 31       	cpi	r24, 0x18	; 24
     23e:	19 f0       	breq	.+6      	; 0x246 <I2C_Start_Wait+0x30>
		{
			I2C_Stop();										/* If not then generate stop condition */
     240:	0e 94 05 01 	call	0x20a	; 0x20a <I2C_Stop>
			continue;										/* continue with start loop again */
     244:	ea cf       	rjmp	.-44     	; 0x21a <I2C_Start_Wait+0x4>
		}
		break;												/* If yes then break loop */
	}
}
     246:	cf 91       	pop	r28
     248:	08 95       	ret

0000024a <I2C_Write>:

uint8_t I2C_Write(char data)								/* I2C write function */
{
	uint8_t status;											/* Declare variable */
	TWDR = data;											/* Copy data in TWI data register */
     24a:	83 b9       	out	0x03, r24	; 3
	TWCR = (1<<TWEN)|(1<<TWINT);							/* Enable TWI and clear interrupt flag */
     24c:	84 e8       	ldi	r24, 0x84	; 132
     24e:	86 bf       	out	0x36, r24	; 54
	while (!(TWCR & (1<<TWINT)));							/* Wait until TWI finish its current job (Write operation) */
     250:	06 b6       	in	r0, 0x36	; 54
     252:	07 fe       	sbrs	r0, 7
     254:	fd cf       	rjmp	.-6      	; 0x250 <I2C_Write+0x6>
	status = TWSR & 0xF8;									/* Read TWI status register with masking lower three bits */
     256:	81 b1       	in	r24, 0x01	; 1
     258:	88 7f       	andi	r24, 0xF8	; 248
	if (status == 0x28)										/* Check weather data transmitted & ack received or not? */
     25a:	88 32       	cpi	r24, 0x28	; 40
     25c:	21 f0       	breq	.+8      	; 0x266 <I2C_Write+0x1c>
	return 0;												/* If yes then return 0 to indicate ack received */
	if (status == 0x30)										/* Check weather data transmitted & nack received or not? */
     25e:	80 33       	cpi	r24, 0x30	; 48
     260:	21 f4       	brne	.+8      	; 0x26a <I2C_Write+0x20>
	return 1;												/* If yes then return 1 to indicate nack received */
     262:	81 e0       	ldi	r24, 0x01	; 1
     264:	08 95       	ret
	TWDR = data;											/* Copy data in TWI data register */
	TWCR = (1<<TWEN)|(1<<TWINT);							/* Enable TWI and clear interrupt flag */
	while (!(TWCR & (1<<TWINT)));							/* Wait until TWI finish its current job (Write operation) */
	status = TWSR & 0xF8;									/* Read TWI status register with masking lower three bits */
	if (status == 0x28)										/* Check weather data transmitted & ack received or not? */
	return 0;												/* If yes then return 0 to indicate ack received */
     266:	80 e0       	ldi	r24, 0x00	; 0
     268:	08 95       	ret
	if (status == 0x30)										/* Check weather data transmitted & nack received or not? */
	return 1;												/* If yes then return 1 to indicate nack received */
	else
	return 2;												/* Else return 2 to indicate data transmission failed */
     26a:	82 e0       	ldi	r24, 0x02	; 2
}
     26c:	08 95       	ret

0000026e <I2C_Read_Ack>:

char I2C_Read_Ack()										/* I2C read ack function */
{
	TWCR=(1<<TWEN)|(1<<TWINT)|(1<<TWEA);					/* Enable TWI, generation of ack and clear interrupt flag */
     26e:	84 ec       	ldi	r24, 0xC4	; 196
     270:	86 bf       	out	0x36, r24	; 54
	while (!(TWCR & (1<<TWINT)));							/* Wait until TWI finish its current job (read operation) */
     272:	06 b6       	in	r0, 0x36	; 54
     274:	07 fe       	sbrs	r0, 7
     276:	fd cf       	rjmp	.-6      	; 0x272 <I2C_Read_Ack+0x4>
	return TWDR;											/* Return received data */
     278:	83 b1       	in	r24, 0x03	; 3
}	
     27a:	08 95       	ret

0000027c <I2C_Read_Nack>:

char I2C_Read_Nack()										/* I2C read nack function */
{
	TWCR=(1<<TWEN)|(1<<TWINT);								/* Enable TWI and clear interrupt flag */
     27c:	84 e8       	ldi	r24, 0x84	; 132
     27e:	86 bf       	out	0x36, r24	; 54
	while (!(TWCR & (1<<TWINT)));							/* Wait until TWI finish its current job (read operation) */
     280:	06 b6       	in	r0, 0x36	; 54
     282:	07 fe       	sbrs	r0, 7
     284:	fd cf       	rjmp	.-6      	; 0x280 <I2C_Read_Nack+0x4>
	return TWDR;											/* Return received data */
     286:	83 b1       	in	r24, 0x03	; 3
}	
     288:	08 95       	ret

0000028a <LCD_Command>:
	while (*str!='\0')
	{
		USART_transmit(*str);
		str++;
	}
}
     28a:	88 bb       	out	0x18, r24	; 24
     28c:	85 b3       	in	r24, 0x15	; 21
     28e:	8c 7f       	andi	r24, 0xFC	; 252
     290:	85 bb       	out	0x15, r24	; 21
     292:	85 b3       	in	r24, 0x15	; 21
     294:	84 60       	ori	r24, 0x04	; 4
     296:	85 bb       	out	0x15, r24	; 21
     298:	82 e0       	ldi	r24, 0x02	; 2
     29a:	8a 95       	dec	r24
     29c:	f1 f7       	brne	.-4      	; 0x29a <LCD_Command+0x10>
     29e:	00 c0       	rjmp	.+0      	; 0x2a0 <LCD_Command+0x16>
     2a0:	85 b3       	in	r24, 0x15	; 21
     2a2:	8b 7f       	andi	r24, 0xFB	; 251
     2a4:	85 bb       	out	0x15, r24	; 21
     2a6:	8f e9       	ldi	r24, 0x9F	; 159
     2a8:	9f e0       	ldi	r25, 0x0F	; 15
     2aa:	01 97       	sbiw	r24, 0x01	; 1
     2ac:	f1 f7       	brne	.-4      	; 0x2aa <LCD_Command+0x20>
     2ae:	00 c0       	rjmp	.+0      	; 0x2b0 <LCD_Command+0x26>
     2b0:	00 00       	nop
     2b2:	08 95       	ret

000002b4 <LCD_Char>:
     2b4:	88 bb       	out	0x18, r24	; 24
     2b6:	85 b3       	in	r24, 0x15	; 21
     2b8:	8d 7f       	andi	r24, 0xFD	; 253
     2ba:	85 bb       	out	0x15, r24	; 21
     2bc:	85 b3       	in	r24, 0x15	; 21
     2be:	85 60       	ori	r24, 0x05	; 5
     2c0:	85 bb       	out	0x15, r24	; 21
     2c2:	82 e0       	ldi	r24, 0x02	; 2
     2c4:	8a 95       	dec	r24
     2c6:	f1 f7       	brne	.-4      	; 0x2c4 <LCD_Char+0x10>
     2c8:	00 c0       	rjmp	.+0      	; 0x2ca <LCD_Char+0x16>
     2ca:	85 b3       	in	r24, 0x15	; 21
     2cc:	8b 7f       	andi	r24, 0xFB	; 251
     2ce:	85 bb       	out	0x15, r24	; 21
     2d0:	8f ec       	ldi	r24, 0xCF	; 207
     2d2:	97 e0       	ldi	r25, 0x07	; 7
     2d4:	01 97       	sbiw	r24, 0x01	; 1
     2d6:	f1 f7       	brne	.-4      	; 0x2d4 <LCD_Char+0x20>
     2d8:	00 c0       	rjmp	.+0      	; 0x2da <LCD_Char+0x26>
     2da:	00 00       	nop
     2dc:	08 95       	ret

000002de <LCD_Init>:
     2de:	84 b3       	in	r24, 0x14	; 20
     2e0:	87 60       	ori	r24, 0x07	; 7
     2e2:	84 bb       	out	0x14, r24	; 20
     2e4:	8f ef       	ldi	r24, 0xFF	; 255
     2e6:	87 bb       	out	0x17, r24	; 23
     2e8:	8f e9       	ldi	r24, 0x9F	; 159
     2ea:	9c e8       	ldi	r25, 0x8C	; 140
     2ec:	01 97       	sbiw	r24, 0x01	; 1
     2ee:	f1 f7       	brne	.-4      	; 0x2ec <LCD_Init+0xe>
     2f0:	00 c0       	rjmp	.+0      	; 0x2f2 <LCD_Init+0x14>
     2f2:	00 00       	nop
     2f4:	88 e3       	ldi	r24, 0x38	; 56
     2f6:	0e 94 45 01 	call	0x28a	; 0x28a <LCD_Command>
     2fa:	8c e0       	ldi	r24, 0x0C	; 12
     2fc:	0e 94 45 01 	call	0x28a	; 0x28a <LCD_Command>
     300:	86 e0       	ldi	r24, 0x06	; 6
     302:	0e 94 45 01 	call	0x28a	; 0x28a <LCD_Command>
     306:	81 e0       	ldi	r24, 0x01	; 1
     308:	0e 94 45 01 	call	0x28a	; 0x28a <LCD_Command>
     30c:	80 e8       	ldi	r24, 0x80	; 128
     30e:	0e 94 45 01 	call	0x28a	; 0x28a <LCD_Command>
     312:	08 95       	ret

00000314 <LCD_String>:
     314:	0f 93       	push	r16
     316:	1f 93       	push	r17
     318:	cf 93       	push	r28
     31a:	df 93       	push	r29
     31c:	8c 01       	movw	r16, r24
     31e:	c0 e0       	ldi	r28, 0x00	; 0
     320:	d0 e0       	ldi	r29, 0x00	; 0
     322:	03 c0       	rjmp	.+6      	; 0x32a <LCD_String+0x16>
     324:	0e 94 5a 01 	call	0x2b4	; 0x2b4 <LCD_Char>
     328:	21 96       	adiw	r28, 0x01	; 1
     32a:	f8 01       	movw	r30, r16
     32c:	ec 0f       	add	r30, r28
     32e:	fd 1f       	adc	r31, r29
     330:	80 81       	ld	r24, Z
     332:	81 11       	cpse	r24, r1
     334:	f7 cf       	rjmp	.-18     	; 0x324 <LCD_String+0x10>
     336:	df 91       	pop	r29
     338:	cf 91       	pop	r28
     33a:	1f 91       	pop	r17
     33c:	0f 91       	pop	r16
     33e:	08 95       	ret

00000340 <LCD_String_xy>:
     340:	cf 93       	push	r28
     342:	df 93       	push	r29
     344:	ea 01       	movw	r28, r20
     346:	81 30       	cpi	r24, 0x01	; 1
     348:	31 f4       	brne	.+12     	; 0x356 <LCD_String_xy+0x16>
     34a:	86 2f       	mov	r24, r22
     34c:	8f 70       	andi	r24, 0x0F	; 15
     34e:	80 68       	ori	r24, 0x80	; 128
     350:	0e 94 45 01 	call	0x28a	; 0x28a <LCD_Command>
     354:	07 c0       	rjmp	.+14     	; 0x364 <LCD_String_xy+0x24>
     356:	82 30       	cpi	r24, 0x02	; 2
     358:	29 f4       	brne	.+10     	; 0x364 <LCD_String_xy+0x24>
     35a:	86 2f       	mov	r24, r22
     35c:	8f 70       	andi	r24, 0x0F	; 15
     35e:	80 6c       	ori	r24, 0xC0	; 192
     360:	0e 94 45 01 	call	0x28a	; 0x28a <LCD_Command>
     364:	ce 01       	movw	r24, r28
     366:	0e 94 8a 01 	call	0x314	; 0x314 <LCD_String>
     36a:	df 91       	pop	r29
     36c:	cf 91       	pop	r28
     36e:	08 95       	ret

00000370 <LCD_Clear>:
     370:	81 e0       	ldi	r24, 0x01	; 1
     372:	0e 94 45 01 	call	0x28a	; 0x28a <LCD_Command>
     376:	08 95       	ret

00000378 <ADC_Init>:
     378:	8f ef       	ldi	r24, 0xFF	; 255
     37a:	87 bb       	out	0x17, r24	; 23
     37c:	1a ba       	out	0x1a, r1	; 26
     37e:	87 e8       	ldi	r24, 0x87	; 135
     380:	86 b9       	out	0x06, r24	; 6
     382:	80 ec       	ldi	r24, 0xC0	; 192
     384:	87 b9       	out	0x07, r24	; 7
     386:	08 95       	ret

00000388 <ADC_Read>:
     388:	86 b1       	in	r24, 0x06	; 6
     38a:	80 64       	ori	r24, 0x40	; 64
     38c:	86 b9       	out	0x06, r24	; 6
     38e:	34 9b       	sbis	0x06, 4	; 6
     390:	fe cf       	rjmp	.-4      	; 0x38e <ADC_Read+0x6>
     392:	8a e1       	ldi	r24, 0x1A	; 26
     394:	8a 95       	dec	r24
     396:	f1 f7       	brne	.-4      	; 0x394 <ADC_Read+0xc>
     398:	00 c0       	rjmp	.+0      	; 0x39a <ADC_Read+0x12>
     39a:	24 b1       	in	r18, 0x04	; 4
     39c:	85 b1       	in	r24, 0x05	; 5
     39e:	90 e0       	ldi	r25, 0x00	; 0
     3a0:	98 2f       	mov	r25, r24
     3a2:	88 27       	eor	r24, r24
     3a4:	82 0f       	add	r24, r18
     3a6:	91 1d       	adc	r25, r1
     3a8:	08 95       	ret

000003aa <convert_time_to_UTC>:
     3aa:	cf 93       	push	r28
     3ac:	df 93       	push	r29
     3ae:	80 ee       	ldi	r24, 0xE0	; 224
     3b0:	91 e0       	ldi	r25, 0x01	; 1
     3b2:	0e 94 da 09 	call	0x13b4	; 0x13b4 <atol>
     3b6:	20 e1       	ldi	r18, 0x10	; 16
     3b8:	37 e2       	ldi	r19, 0x27	; 39
     3ba:	40 e0       	ldi	r20, 0x00	; 0
     3bc:	50 e0       	ldi	r21, 0x00	; 0
     3be:	0e 94 94 09 	call	0x1328	; 0x1328 <__udivmodsi4>
     3c2:	c2 2f       	mov	r28, r18
     3c4:	d3 2f       	mov	r29, r19
     3c6:	24 e6       	ldi	r18, 0x64	; 100
     3c8:	30 e0       	ldi	r19, 0x00	; 0
     3ca:	40 e0       	ldi	r20, 0x00	; 0
     3cc:	50 e0       	ldi	r21, 0x00	; 0
     3ce:	0e 94 94 09 	call	0x1328	; 0x1328 <__udivmodsi4>
     3d2:	7f 93       	push	r23
     3d4:	6f 93       	push	r22
     3d6:	3f 93       	push	r19
     3d8:	2f 93       	push	r18
     3da:	df 93       	push	r29
     3dc:	cf 93       	push	r28
     3de:	8a e6       	ldi	r24, 0x6A	; 106
     3e0:	90 e0       	ldi	r25, 0x00	; 0
     3e2:	9f 93       	push	r25
     3e4:	8f 93       	push	r24
     3e6:	80 ee       	ldi	r24, 0xE0	; 224
     3e8:	91 e0       	ldi	r25, 0x01	; 1
     3ea:	9f 93       	push	r25
     3ec:	8f 93       	push	r24
     3ee:	0e 94 28 0a 	call	0x1450	; 0x1450 <sprintf>
     3f2:	8d b7       	in	r24, 0x3d	; 61
     3f4:	9e b7       	in	r25, 0x3e	; 62
     3f6:	0a 96       	adiw	r24, 0x0a	; 10
     3f8:	0f b6       	in	r0, 0x3f	; 63
     3fa:	f8 94       	cli
     3fc:	9e bf       	out	0x3e, r25	; 62
     3fe:	0f be       	out	0x3f, r0	; 63
     400:	8d bf       	out	0x3d, r24	; 61
     402:	df 91       	pop	r29
     404:	cf 91       	pop	r28
     406:	08 95       	ret

00000408 <get_gpstime>:
     408:	f8 94       	cli
     40a:	80 e0       	ldi	r24, 0x00	; 0
     40c:	20 e0       	ldi	r18, 0x00	; 0
     40e:	07 c0       	rjmp	.+14     	; 0x41e <get_gpstime+0x16>
     410:	e2 2f       	mov	r30, r18
     412:	f0 e0       	ldi	r31, 0x00	; 0
     414:	e0 52       	subi	r30, 0x20	; 32
     416:	fe 4f       	sbci	r31, 0xFE	; 254
     418:	90 83       	st	Z, r25
     41a:	2f 5f       	subi	r18, 0xFF	; 255
     41c:	8f 5f       	subi	r24, 0xFF	; 255
     41e:	e8 2f       	mov	r30, r24
     420:	f0 e0       	ldi	r31, 0x00	; 0
     422:	e5 5e       	subi	r30, 0xE5	; 229
     424:	fe 4f       	sbci	r31, 0xFE	; 254
     426:	90 81       	ld	r25, Z
     428:	9c 32       	cpi	r25, 0x2C	; 44
     42a:	91 f7       	brne	.-28     	; 0x410 <get_gpstime+0x8>
     42c:	0e 94 d5 01 	call	0x3aa	; 0x3aa <convert_time_to_UTC>
     430:	78 94       	sei
     432:	08 95       	ret

00000434 <convert_to_degrees>:
     434:	8f 92       	push	r8
     436:	9f 92       	push	r9
     438:	af 92       	push	r10
     43a:	bf 92       	push	r11
     43c:	cf 92       	push	r12
     43e:	df 92       	push	r13
     440:	ef 92       	push	r14
     442:	ff 92       	push	r15
     444:	0f 93       	push	r16
     446:	1f 93       	push	r17
     448:	0e 94 d6 09 	call	0x13ac	; 0x13ac <atof>
     44c:	20 e0       	ldi	r18, 0x00	; 0
     44e:	30 e0       	ldi	r19, 0x00	; 0
     450:	48 ec       	ldi	r20, 0xC8	; 200
     452:	52 e4       	ldi	r21, 0x42	; 66
     454:	0e 94 c8 07 	call	0xf90	; 0xf90 <__divsf3>
     458:	6b 01       	movw	r12, r22
     45a:	7c 01       	movw	r14, r24
     45c:	0e 94 3a 08 	call	0x1074	; 0x1074 <__fixsfsi>
     460:	07 2e       	mov	r0, r23
     462:	00 0c       	add	r0, r0
     464:	88 0b       	sbc	r24, r24
     466:	99 0b       	sbc	r25, r25
     468:	0e 94 72 08 	call	0x10e4	; 0x10e4 <__floatsisf>
     46c:	4b 01       	movw	r8, r22
     46e:	5c 01       	movw	r10, r24
     470:	9b 01       	movw	r18, r22
     472:	ac 01       	movw	r20, r24
     474:	c7 01       	movw	r24, r14
     476:	b6 01       	movw	r22, r12
     478:	0e 94 56 07 	call	0xeac	; 0xeac <__subsf3>
     47c:	2a e9       	ldi	r18, 0x9A	; 154
     47e:	39 e9       	ldi	r19, 0x99	; 153
     480:	49 e1       	ldi	r20, 0x19	; 25
     482:	5f e3       	ldi	r21, 0x3F	; 63
     484:	0e 94 c8 07 	call	0xf90	; 0xf90 <__divsf3>
     488:	9b 01       	movw	r18, r22
     48a:	ac 01       	movw	r20, r24
     48c:	c5 01       	movw	r24, r10
     48e:	b4 01       	movw	r22, r8
     490:	0e 94 57 07 	call	0xeae	; 0xeae <__addsf3>
     494:	0d eb       	ldi	r16, 0xBD	; 189
     496:	11 e0       	ldi	r17, 0x01	; 1
     498:	24 e0       	ldi	r18, 0x04	; 4
     49a:	46 e0       	ldi	r20, 0x06	; 6
     49c:	0e 94 b6 09 	call	0x136c	; 0x136c <dtostrf>
     4a0:	1f 91       	pop	r17
     4a2:	0f 91       	pop	r16
     4a4:	ff 90       	pop	r15
     4a6:	ef 90       	pop	r14
     4a8:	df 90       	pop	r13
     4aa:	cf 90       	pop	r12
     4ac:	bf 90       	pop	r11
     4ae:	af 90       	pop	r10
     4b0:	9f 90       	pop	r9
     4b2:	8f 90       	pop	r8
     4b4:	08 95       	ret

000004b6 <get_latitude>:
     4b6:	f8 94       	cli
     4b8:	8f 5f       	subi	r24, 0xFF	; 255
     4ba:	90 e0       	ldi	r25, 0x00	; 0
     4bc:	07 c0       	rjmp	.+14     	; 0x4cc <get_latitude+0x16>
     4be:	e9 2f       	mov	r30, r25
     4c0:	f0 e0       	ldi	r31, 0x00	; 0
     4c2:	e3 5f       	subi	r30, 0xF3	; 243
     4c4:	fd 4f       	sbci	r31, 0xFD	; 253
     4c6:	20 83       	st	Z, r18
     4c8:	9f 5f       	subi	r25, 0xFF	; 255
     4ca:	8f 5f       	subi	r24, 0xFF	; 255
     4cc:	e8 2f       	mov	r30, r24
     4ce:	f0 e0       	ldi	r31, 0x00	; 0
     4d0:	e5 5e       	subi	r30, 0xE5	; 229
     4d2:	fe 4f       	sbci	r31, 0xFE	; 254
     4d4:	20 81       	ld	r18, Z
     4d6:	2c 32       	cpi	r18, 0x2C	; 44
     4d8:	91 f7       	brne	.-28     	; 0x4be <get_latitude+0x8>
     4da:	31 e0       	ldi	r19, 0x01	; 1
     4dc:	39 0f       	add	r19, r25
     4de:	e9 2f       	mov	r30, r25
     4e0:	f0 e0       	ldi	r31, 0x00	; 0
     4e2:	8f 5f       	subi	r24, 0xFF	; 255
     4e4:	e3 5f       	subi	r30, 0xF3	; 243
     4e6:	fd 4f       	sbci	r31, 0xFD	; 253
     4e8:	20 83       	st	Z, r18
     4ea:	23 2f       	mov	r18, r19
     4ec:	30 e0       	ldi	r19, 0x00	; 0
     4ee:	e8 2f       	mov	r30, r24
     4f0:	f0 e0       	ldi	r31, 0x00	; 0
     4f2:	e5 5e       	subi	r30, 0xE5	; 229
     4f4:	fe 4f       	sbci	r31, 0xFE	; 254
     4f6:	80 81       	ld	r24, Z
     4f8:	f9 01       	movw	r30, r18
     4fa:	e3 5f       	subi	r30, 0xF3	; 243
     4fc:	fd 4f       	sbci	r31, 0xFD	; 253
     4fe:	80 83       	st	Z, r24
     500:	8d e0       	ldi	r24, 0x0D	; 13
     502:	92 e0       	ldi	r25, 0x02	; 2
     504:	0e 94 1a 02 	call	0x434	; 0x434 <convert_to_degrees>
     508:	78 94       	sei
     50a:	08 95       	ret

0000050c <get_longitude>:
     50c:	f8 94       	cli
     50e:	8f 5f       	subi	r24, 0xFF	; 255
     510:	90 e0       	ldi	r25, 0x00	; 0
     512:	07 c0       	rjmp	.+14     	; 0x522 <get_longitude+0x16>
     514:	e9 2f       	mov	r30, r25
     516:	f0 e0       	ldi	r31, 0x00	; 0
     518:	ef 52       	subi	r30, 0x2F	; 47
     51a:	fe 4f       	sbci	r31, 0xFE	; 254
     51c:	20 83       	st	Z, r18
     51e:	9f 5f       	subi	r25, 0xFF	; 255
     520:	8f 5f       	subi	r24, 0xFF	; 255
     522:	e8 2f       	mov	r30, r24
     524:	f0 e0       	ldi	r31, 0x00	; 0
     526:	e5 5e       	subi	r30, 0xE5	; 229
     528:	fe 4f       	sbci	r31, 0xFE	; 254
     52a:	20 81       	ld	r18, Z
     52c:	2c 32       	cpi	r18, 0x2C	; 44
     52e:	91 f7       	brne	.-28     	; 0x514 <get_longitude+0x8>
     530:	31 e0       	ldi	r19, 0x01	; 1
     532:	39 0f       	add	r19, r25
     534:	e9 2f       	mov	r30, r25
     536:	f0 e0       	ldi	r31, 0x00	; 0
     538:	8f 5f       	subi	r24, 0xFF	; 255
     53a:	ef 52       	subi	r30, 0x2F	; 47
     53c:	fe 4f       	sbci	r31, 0xFE	; 254
     53e:	20 83       	st	Z, r18
     540:	23 2f       	mov	r18, r19
     542:	30 e0       	ldi	r19, 0x00	; 0
     544:	e8 2f       	mov	r30, r24
     546:	f0 e0       	ldi	r31, 0x00	; 0
     548:	e5 5e       	subi	r30, 0xE5	; 229
     54a:	fe 4f       	sbci	r31, 0xFE	; 254
     54c:	80 81       	ld	r24, Z
     54e:	f9 01       	movw	r30, r18
     550:	ef 52       	subi	r30, 0x2F	; 47
     552:	fe 4f       	sbci	r31, 0xFE	; 254
     554:	80 83       	st	Z, r24
     556:	81 ed       	ldi	r24, 0xD1	; 209
     558:	91 e0       	ldi	r25, 0x01	; 1
     55a:	0e 94 1a 02 	call	0x434	; 0x434 <convert_to_degrees>
     55e:	78 94       	sei
     560:	08 95       	ret

00000562 <__vector_13>:
     562:	1f 92       	push	r1
     564:	0f 92       	push	r0
     566:	0f b6       	in	r0, 0x3f	; 63
     568:	0f 92       	push	r0
     56a:	11 24       	eor	r1, r1
     56c:	2f 93       	push	r18
     56e:	3f 93       	push	r19
     570:	4f 93       	push	r20
     572:	5f 93       	push	r21
     574:	8f 93       	push	r24
     576:	9f 93       	push	r25
     578:	ef 93       	push	r30
     57a:	ff 93       	push	r31
     57c:	9f b7       	in	r25, 0x3f	; 63
     57e:	f8 94       	cli
     580:	8c b1       	in	r24, 0x0c	; 12
     582:	84 32       	cpi	r24, 0x24	; 36
     584:	59 f4       	brne	.+22     	; 0x59c <__vector_13+0x3a>
     586:	10 92 fa 01 	sts	0x01FA, r1	; 0x8001fa <GGA_Index+0x1>
     58a:	10 92 f9 01 	sts	0x01F9, r1	; 0x8001f9 <GGA_Index>
     58e:	10 92 f8 01 	sts	0x01F8, r1	; 0x8001f8 <CommaCounter+0x1>
     592:	10 92 f7 01 	sts	0x01F7, r1	; 0x8001f7 <CommaCounter>
     596:	10 92 16 01 	sts	0x0116, r1	; 0x800116 <__data_end>
     59a:	45 c0       	rjmp	.+138    	; 0x626 <__vector_13+0xc4>
     59c:	20 91 16 01 	lds	r18, 0x0116	; 0x800116 <__data_end>
     5a0:	22 23       	and	r18, r18
     5a2:	29 f1       	breq	.+74     	; 0x5ee <__vector_13+0x8c>
     5a4:	8c 32       	cpi	r24, 0x2C	; 44
     5a6:	99 f4       	brne	.+38     	; 0x5ce <__vector_13+0x6c>
     5a8:	20 91 f7 01 	lds	r18, 0x01F7	; 0x8001f7 <CommaCounter>
     5ac:	30 91 f8 01 	lds	r19, 0x01F8	; 0x8001f8 <CommaCounter+0x1>
     5b0:	a9 01       	movw	r20, r18
     5b2:	4f 5f       	subi	r20, 0xFF	; 255
     5b4:	5f 4f       	sbci	r21, 0xFF	; 255
     5b6:	50 93 f8 01 	sts	0x01F8, r21	; 0x8001f8 <CommaCounter+0x1>
     5ba:	40 93 f7 01 	sts	0x01F7, r20	; 0x8001f7 <CommaCounter>
     5be:	40 91 f9 01 	lds	r20, 0x01F9	; 0x8001f9 <GGA_Index>
     5c2:	50 91 fa 01 	lds	r21, 0x01FA	; 0x8001fa <GGA_Index+0x1>
     5c6:	f9 01       	movw	r30, r18
     5c8:	e1 5d       	subi	r30, 0xD1	; 209
     5ca:	fd 4f       	sbci	r31, 0xFD	; 253
     5cc:	40 83       	st	Z, r20
     5ce:	20 91 f9 01 	lds	r18, 0x01F9	; 0x8001f9 <GGA_Index>
     5d2:	30 91 fa 01 	lds	r19, 0x01FA	; 0x8001fa <GGA_Index+0x1>
     5d6:	a9 01       	movw	r20, r18
     5d8:	4f 5f       	subi	r20, 0xFF	; 255
     5da:	5f 4f       	sbci	r21, 0xFF	; 255
     5dc:	50 93 fa 01 	sts	0x01FA, r21	; 0x8001fa <GGA_Index+0x1>
     5e0:	40 93 f9 01 	sts	0x01F9, r20	; 0x8001f9 <GGA_Index>
     5e4:	f9 01       	movw	r30, r18
     5e6:	e5 5e       	subi	r30, 0xE5	; 229
     5e8:	fe 4f       	sbci	r31, 0xFE	; 254
     5ea:	80 83       	st	Z, r24
     5ec:	1c c0       	rjmp	.+56     	; 0x626 <__vector_13+0xc4>
     5ee:	20 91 0a 02 	lds	r18, 0x020A	; 0x80020a <GGA_CODE>
     5f2:	27 34       	cpi	r18, 0x47	; 71
     5f4:	89 f4       	brne	.+34     	; 0x618 <__vector_13+0xb6>
     5f6:	20 91 0b 02 	lds	r18, 0x020B	; 0x80020b <GGA_CODE+0x1>
     5fa:	27 34       	cpi	r18, 0x47	; 71
     5fc:	69 f4       	brne	.+26     	; 0x618 <__vector_13+0xb6>
     5fe:	20 91 0c 02 	lds	r18, 0x020C	; 0x80020c <GGA_CODE+0x2>
     602:	21 34       	cpi	r18, 0x41	; 65
     604:	49 f4       	brne	.+18     	; 0x618 <__vector_13+0xb6>
     606:	81 e0       	ldi	r24, 0x01	; 1
     608:	80 93 16 01 	sts	0x0116, r24	; 0x800116 <__data_end>
     60c:	ea e0       	ldi	r30, 0x0A	; 10
     60e:	f2 e0       	ldi	r31, 0x02	; 2
     610:	10 82       	st	Z, r1
     612:	11 82       	std	Z+1, r1	; 0x01
     614:	12 82       	std	Z+2, r1	; 0x02
     616:	07 c0       	rjmp	.+14     	; 0x626 <__vector_13+0xc4>
     618:	ea e0       	ldi	r30, 0x0A	; 10
     61a:	f2 e0       	ldi	r31, 0x02	; 2
     61c:	21 81       	ldd	r18, Z+1	; 0x01
     61e:	20 83       	st	Z, r18
     620:	22 81       	ldd	r18, Z+2	; 0x02
     622:	21 83       	std	Z+1, r18	; 0x01
     624:	82 83       	std	Z+2, r24	; 0x02
     626:	9f bf       	out	0x3f, r25	; 63
     628:	ff 91       	pop	r31
     62a:	ef 91       	pop	r30
     62c:	9f 91       	pop	r25
     62e:	8f 91       	pop	r24
     630:	5f 91       	pop	r21
     632:	4f 91       	pop	r20
     634:	3f 91       	pop	r19
     636:	2f 91       	pop	r18
     638:	0f 90       	pop	r0
     63a:	0f be       	out	0x3f, r0	; 63
     63c:	0f 90       	pop	r0
     63e:	1f 90       	pop	r1
     640:	18 95       	reti

00000642 <MPU6050_Init>:
     642:	2f e7       	ldi	r18, 0x7F	; 127
     644:	89 ea       	ldi	r24, 0xA9	; 169
     646:	93 e0       	ldi	r25, 0x03	; 3
     648:	21 50       	subi	r18, 0x01	; 1
     64a:	80 40       	sbci	r24, 0x00	; 0
     64c:	90 40       	sbci	r25, 0x00	; 0
     64e:	e1 f7       	brne	.-8      	; 0x648 <MPU6050_Init+0x6>
     650:	00 c0       	rjmp	.+0      	; 0x652 <MPU6050_Init+0x10>
     652:	00 00       	nop
     654:	80 ed       	ldi	r24, 0xD0	; 208
     656:	0e 94 0b 01 	call	0x216	; 0x216 <I2C_Start_Wait>
     65a:	89 e1       	ldi	r24, 0x19	; 25
     65c:	0e 94 25 01 	call	0x24a	; 0x24a <I2C_Write>
     660:	87 e0       	ldi	r24, 0x07	; 7
     662:	0e 94 25 01 	call	0x24a	; 0x24a <I2C_Write>
     666:	0e 94 05 01 	call	0x20a	; 0x20a <I2C_Stop>
     66a:	80 ed       	ldi	r24, 0xD0	; 208
     66c:	0e 94 0b 01 	call	0x216	; 0x216 <I2C_Start_Wait>
     670:	8b e6       	ldi	r24, 0x6B	; 107
     672:	0e 94 25 01 	call	0x24a	; 0x24a <I2C_Write>
     676:	81 e0       	ldi	r24, 0x01	; 1
     678:	0e 94 25 01 	call	0x24a	; 0x24a <I2C_Write>
     67c:	0e 94 05 01 	call	0x20a	; 0x20a <I2C_Stop>
     680:	80 ed       	ldi	r24, 0xD0	; 208
     682:	0e 94 0b 01 	call	0x216	; 0x216 <I2C_Start_Wait>
     686:	8a e1       	ldi	r24, 0x1A	; 26
     688:	0e 94 25 01 	call	0x24a	; 0x24a <I2C_Write>
     68c:	80 e0       	ldi	r24, 0x00	; 0
     68e:	0e 94 25 01 	call	0x24a	; 0x24a <I2C_Write>
     692:	0e 94 05 01 	call	0x20a	; 0x20a <I2C_Stop>
     696:	80 ed       	ldi	r24, 0xD0	; 208
     698:	0e 94 0b 01 	call	0x216	; 0x216 <I2C_Start_Wait>
     69c:	8b e1       	ldi	r24, 0x1B	; 27
     69e:	0e 94 25 01 	call	0x24a	; 0x24a <I2C_Write>
     6a2:	88 e1       	ldi	r24, 0x18	; 24
     6a4:	0e 94 25 01 	call	0x24a	; 0x24a <I2C_Write>
     6a8:	0e 94 05 01 	call	0x20a	; 0x20a <I2C_Stop>
     6ac:	80 ed       	ldi	r24, 0xD0	; 208
     6ae:	0e 94 0b 01 	call	0x216	; 0x216 <I2C_Start_Wait>
     6b2:	88 e3       	ldi	r24, 0x38	; 56
     6b4:	0e 94 25 01 	call	0x24a	; 0x24a <I2C_Write>
     6b8:	81 e0       	ldi	r24, 0x01	; 1
     6ba:	0e 94 25 01 	call	0x24a	; 0x24a <I2C_Write>
     6be:	0e 94 05 01 	call	0x20a	; 0x20a <I2C_Stop>
     6c2:	08 95       	ret

000006c4 <MPU_Start_Loc>:
     6c4:	80 ed       	ldi	r24, 0xD0	; 208
     6c6:	0e 94 0b 01 	call	0x216	; 0x216 <I2C_Start_Wait>
     6ca:	8b e3       	ldi	r24, 0x3B	; 59
     6cc:	0e 94 25 01 	call	0x24a	; 0x24a <I2C_Write>
     6d0:	81 ed       	ldi	r24, 0xD1	; 209
     6d2:	0e 94 e8 00 	call	0x1d0	; 0x1d0 <I2C_Repeated_Start>
     6d6:	08 95       	ret

000006d8 <Read_RawValue>:
     6d8:	cf 93       	push	r28
     6da:	df 93       	push	r29
     6dc:	0e 94 62 03 	call	0x6c4	; 0x6c4 <MPU_Start_Loc>
     6e0:	0e 94 37 01 	call	0x26e	; 0x26e <I2C_Read_Ack>
     6e4:	c8 2f       	mov	r28, r24
     6e6:	d0 e0       	ldi	r29, 0x00	; 0
     6e8:	dc 2f       	mov	r29, r28
     6ea:	cc 27       	eor	r28, r28
     6ec:	0e 94 37 01 	call	0x26e	; 0x26e <I2C_Read_Ack>
     6f0:	be 01       	movw	r22, r28
     6f2:	68 2b       	or	r22, r24
     6f4:	07 2e       	mov	r0, r23
     6f6:	00 0c       	add	r0, r0
     6f8:	88 0b       	sbc	r24, r24
     6fa:	99 0b       	sbc	r25, r25
     6fc:	0e 94 72 08 	call	0x10e4	; 0x10e4 <__floatsisf>
     700:	60 93 f3 01 	sts	0x01F3, r22	; 0x8001f3 <Acc_x>
     704:	70 93 f4 01 	sts	0x01F4, r23	; 0x8001f4 <Acc_x+0x1>
     708:	80 93 f5 01 	sts	0x01F5, r24	; 0x8001f5 <Acc_x+0x2>
     70c:	90 93 f6 01 	sts	0x01F6, r25	; 0x8001f6 <Acc_x+0x3>
     710:	0e 94 37 01 	call	0x26e	; 0x26e <I2C_Read_Ack>
     714:	c8 2f       	mov	r28, r24
     716:	d0 e0       	ldi	r29, 0x00	; 0
     718:	dc 2f       	mov	r29, r28
     71a:	cc 27       	eor	r28, r28
     71c:	0e 94 37 01 	call	0x26e	; 0x26e <I2C_Read_Ack>
     720:	be 01       	movw	r22, r28
     722:	68 2b       	or	r22, r24
     724:	07 2e       	mov	r0, r23
     726:	00 0c       	add	r0, r0
     728:	88 0b       	sbc	r24, r24
     72a:	99 0b       	sbc	r25, r25
     72c:	0e 94 72 08 	call	0x10e4	; 0x10e4 <__floatsisf>
     730:	60 93 b9 01 	sts	0x01B9, r22	; 0x8001b9 <Acc_y>
     734:	70 93 ba 01 	sts	0x01BA, r23	; 0x8001ba <Acc_y+0x1>
     738:	80 93 bb 01 	sts	0x01BB, r24	; 0x8001bb <Acc_y+0x2>
     73c:	90 93 bc 01 	sts	0x01BC, r25	; 0x8001bc <Acc_y+0x3>
     740:	0e 94 37 01 	call	0x26e	; 0x26e <I2C_Read_Ack>
     744:	c8 2f       	mov	r28, r24
     746:	d0 e0       	ldi	r29, 0x00	; 0
     748:	dc 2f       	mov	r29, r28
     74a:	cc 27       	eor	r28, r28
     74c:	0e 94 37 01 	call	0x26e	; 0x26e <I2C_Read_Ack>
     750:	be 01       	movw	r22, r28
     752:	68 2b       	or	r22, r24
     754:	07 2e       	mov	r0, r23
     756:	00 0c       	add	r0, r0
     758:	88 0b       	sbc	r24, r24
     75a:	99 0b       	sbc	r25, r25
     75c:	0e 94 72 08 	call	0x10e4	; 0x10e4 <__floatsisf>
     760:	60 93 17 01 	sts	0x0117, r22	; 0x800117 <Acc_z>
     764:	70 93 18 01 	sts	0x0118, r23	; 0x800118 <Acc_z+0x1>
     768:	80 93 19 01 	sts	0x0119, r24	; 0x800119 <Acc_z+0x2>
     76c:	90 93 1a 01 	sts	0x011A, r25	; 0x80011a <Acc_z+0x3>
     770:	0e 94 37 01 	call	0x26e	; 0x26e <I2C_Read_Ack>
     774:	c8 2f       	mov	r28, r24
     776:	d0 e0       	ldi	r29, 0x00	; 0
     778:	dc 2f       	mov	r29, r28
     77a:	cc 27       	eor	r28, r28
     77c:	0e 94 37 01 	call	0x26e	; 0x26e <I2C_Read_Ack>
     780:	be 01       	movw	r22, r28
     782:	68 2b       	or	r22, r24
     784:	07 2e       	mov	r0, r23
     786:	00 0c       	add	r0, r0
     788:	88 0b       	sbc	r24, r24
     78a:	99 0b       	sbc	r25, r25
     78c:	0e 94 72 08 	call	0x10e4	; 0x10e4 <__floatsisf>
     790:	60 93 b5 01 	sts	0x01B5, r22	; 0x8001b5 <Temperature>
     794:	70 93 b6 01 	sts	0x01B6, r23	; 0x8001b6 <Temperature+0x1>
     798:	80 93 b7 01 	sts	0x01B7, r24	; 0x8001b7 <Temperature+0x2>
     79c:	90 93 b8 01 	sts	0x01B8, r25	; 0x8001b8 <Temperature+0x3>
     7a0:	0e 94 37 01 	call	0x26e	; 0x26e <I2C_Read_Ack>
     7a4:	c8 2f       	mov	r28, r24
     7a6:	d0 e0       	ldi	r29, 0x00	; 0
     7a8:	dc 2f       	mov	r29, r28
     7aa:	cc 27       	eor	r28, r28
     7ac:	0e 94 37 01 	call	0x26e	; 0x26e <I2C_Read_Ack>
     7b0:	be 01       	movw	r22, r28
     7b2:	68 2b       	or	r22, r24
     7b4:	07 2e       	mov	r0, r23
     7b6:	00 0c       	add	r0, r0
     7b8:	88 0b       	sbc	r24, r24
     7ba:	99 0b       	sbc	r25, r25
     7bc:	0e 94 72 08 	call	0x10e4	; 0x10e4 <__floatsisf>
     7c0:	60 93 b1 01 	sts	0x01B1, r22	; 0x8001b1 <Gyro_x>
     7c4:	70 93 b2 01 	sts	0x01B2, r23	; 0x8001b2 <Gyro_x+0x1>
     7c8:	80 93 b3 01 	sts	0x01B3, r24	; 0x8001b3 <Gyro_x+0x2>
     7cc:	90 93 b4 01 	sts	0x01B4, r25	; 0x8001b4 <Gyro_x+0x3>
     7d0:	0e 94 37 01 	call	0x26e	; 0x26e <I2C_Read_Ack>
     7d4:	c8 2f       	mov	r28, r24
     7d6:	d0 e0       	ldi	r29, 0x00	; 0
     7d8:	dc 2f       	mov	r29, r28
     7da:	cc 27       	eor	r28, r28
     7dc:	0e 94 37 01 	call	0x26e	; 0x26e <I2C_Read_Ack>
     7e0:	be 01       	movw	r22, r28
     7e2:	68 2b       	or	r22, r24
     7e4:	07 2e       	mov	r0, r23
     7e6:	00 0c       	add	r0, r0
     7e8:	88 0b       	sbc	r24, r24
     7ea:	99 0b       	sbc	r25, r25
     7ec:	0e 94 72 08 	call	0x10e4	; 0x10e4 <__floatsisf>
     7f0:	60 93 2b 02 	sts	0x022B, r22	; 0x80022b <Gyro_y>
     7f4:	70 93 2c 02 	sts	0x022C, r23	; 0x80022c <Gyro_y+0x1>
     7f8:	80 93 2d 02 	sts	0x022D, r24	; 0x80022d <Gyro_y+0x2>
     7fc:	90 93 2e 02 	sts	0x022E, r25	; 0x80022e <Gyro_y+0x3>
     800:	0e 94 37 01 	call	0x26e	; 0x26e <I2C_Read_Ack>
     804:	c8 2f       	mov	r28, r24
     806:	d0 e0       	ldi	r29, 0x00	; 0
     808:	dc 2f       	mov	r29, r28
     80a:	cc 27       	eor	r28, r28
     80c:	0e 94 3e 01 	call	0x27c	; 0x27c <I2C_Read_Nack>
     810:	be 01       	movw	r22, r28
     812:	68 2b       	or	r22, r24
     814:	07 2e       	mov	r0, r23
     816:	00 0c       	add	r0, r0
     818:	88 0b       	sbc	r24, r24
     81a:	99 0b       	sbc	r25, r25
     81c:	0e 94 72 08 	call	0x10e4	; 0x10e4 <__floatsisf>
     820:	60 93 ef 01 	sts	0x01EF, r22	; 0x8001ef <Gyro_z>
     824:	70 93 f0 01 	sts	0x01F0, r23	; 0x8001f0 <Gyro_z+0x1>
     828:	80 93 f1 01 	sts	0x01F1, r24	; 0x8001f1 <Gyro_z+0x2>
     82c:	90 93 f2 01 	sts	0x01F2, r25	; 0x8001f2 <Gyro_z+0x3>
     830:	0e 94 05 01 	call	0x20a	; 0x20a <I2C_Stop>
     834:	df 91       	pop	r29
     836:	cf 91       	pop	r28
     838:	08 95       	ret

0000083a <isDriverSleepingGyro>:
     83a:	4f 92       	push	r4
     83c:	5f 92       	push	r5
     83e:	6f 92       	push	r6
     840:	7f 92       	push	r7
     842:	8f 92       	push	r8
     844:	9f 92       	push	r9
     846:	af 92       	push	r10
     848:	bf 92       	push	r11
     84a:	cf 92       	push	r12
     84c:	df 92       	push	r13
     84e:	ef 92       	push	r14
     850:	ff 92       	push	r15
     852:	0f 93       	push	r16
     854:	1f 93       	push	r17
     856:	4b 01       	movw	r8, r22
     858:	5c 01       	movw	r10, r24
     85a:	29 01       	movw	r4, r18
     85c:	3a 01       	movw	r6, r20
     85e:	67 01       	movw	r12, r14
     860:	78 01       	movw	r14, r16
     862:	20 e0       	ldi	r18, 0x00	; 0
     864:	30 e0       	ldi	r19, 0x00	; 0
     866:	40 e0       	ldi	r20, 0x00	; 0
     868:	50 ec       	ldi	r21, 0xC0	; 192
     86a:	c7 01       	movw	r24, r14
     86c:	b6 01       	movw	r22, r12
     86e:	0e 94 22 09 	call	0x1244	; 0x1244 <__gesf2>
     872:	18 16       	cp	r1, r24
     874:	ac f5       	brge	.+106    	; 0x8e0 <__stack+0x81>
     876:	20 e0       	ldi	r18, 0x00	; 0
     878:	30 e0       	ldi	r19, 0x00	; 0
     87a:	40 e0       	ldi	r20, 0x00	; 0
     87c:	50 e4       	ldi	r21, 0x40	; 64
     87e:	c7 01       	movw	r24, r14
     880:	b6 01       	movw	r22, r12
     882:	0e 94 c3 07 	call	0xf86	; 0xf86 <__cmpsf2>
     886:	88 23       	and	r24, r24
     888:	74 f5       	brge	.+92     	; 0x8e6 <__stack+0x87>
     88a:	20 e0       	ldi	r18, 0x00	; 0
     88c:	30 e0       	ldi	r19, 0x00	; 0
     88e:	40 e4       	ldi	r20, 0x40	; 64
     890:	50 ec       	ldi	r21, 0xC0	; 192
     892:	c5 01       	movw	r24, r10
     894:	b4 01       	movw	r22, r8
     896:	0e 94 22 09 	call	0x1244	; 0x1244 <__gesf2>
     89a:	18 16       	cp	r1, r24
     89c:	3c f5       	brge	.+78     	; 0x8ec <__stack+0x8d>
     89e:	20 e0       	ldi	r18, 0x00	; 0
     8a0:	30 e0       	ldi	r19, 0x00	; 0
     8a2:	40 e4       	ldi	r20, 0x40	; 64
     8a4:	50 e4       	ldi	r21, 0x40	; 64
     8a6:	c5 01       	movw	r24, r10
     8a8:	b4 01       	movw	r22, r8
     8aa:	0e 94 c3 07 	call	0xf86	; 0xf86 <__cmpsf2>
     8ae:	88 23       	and	r24, r24
     8b0:	04 f5       	brge	.+64     	; 0x8f2 <__stack+0x93>
     8b2:	20 e0       	ldi	r18, 0x00	; 0
     8b4:	30 e0       	ldi	r19, 0x00	; 0
     8b6:	40 e0       	ldi	r20, 0x00	; 0
     8b8:	51 e4       	ldi	r21, 0x41	; 65
     8ba:	c3 01       	movw	r24, r6
     8bc:	b2 01       	movw	r22, r4
     8be:	0e 94 22 09 	call	0x1244	; 0x1244 <__gesf2>
     8c2:	88 23       	and	r24, r24
     8c4:	cc f0       	brlt	.+50     	; 0x8f8 <__stack+0x99>
     8c6:	20 e0       	ldi	r18, 0x00	; 0
     8c8:	30 e0       	ldi	r19, 0x00	; 0
     8ca:	40 e1       	ldi	r20, 0x10	; 16
     8cc:	51 e4       	ldi	r21, 0x41	; 65
     8ce:	c3 01       	movw	r24, r6
     8d0:	b2 01       	movw	r22, r4
     8d2:	0e 94 c3 07 	call	0xf86	; 0xf86 <__cmpsf2>
     8d6:	18 16       	cp	r1, r24
     8d8:	94 f4       	brge	.+36     	; 0x8fe <__stack+0x9f>
     8da:	81 e0       	ldi	r24, 0x01	; 1
     8dc:	90 e0       	ldi	r25, 0x00	; 0
     8de:	11 c0       	rjmp	.+34     	; 0x902 <__stack+0xa3>
     8e0:	81 e0       	ldi	r24, 0x01	; 1
     8e2:	90 e0       	ldi	r25, 0x00	; 0
     8e4:	0e c0       	rjmp	.+28     	; 0x902 <__stack+0xa3>
     8e6:	81 e0       	ldi	r24, 0x01	; 1
     8e8:	90 e0       	ldi	r25, 0x00	; 0
     8ea:	0b c0       	rjmp	.+22     	; 0x902 <__stack+0xa3>
     8ec:	81 e0       	ldi	r24, 0x01	; 1
     8ee:	90 e0       	ldi	r25, 0x00	; 0
     8f0:	08 c0       	rjmp	.+16     	; 0x902 <__stack+0xa3>
     8f2:	81 e0       	ldi	r24, 0x01	; 1
     8f4:	90 e0       	ldi	r25, 0x00	; 0
     8f6:	05 c0       	rjmp	.+10     	; 0x902 <__stack+0xa3>
     8f8:	81 e0       	ldi	r24, 0x01	; 1
     8fa:	90 e0       	ldi	r25, 0x00	; 0
     8fc:	02 c0       	rjmp	.+4      	; 0x902 <__stack+0xa3>
     8fe:	80 e0       	ldi	r24, 0x00	; 0
     900:	90 e0       	ldi	r25, 0x00	; 0
     902:	1f 91       	pop	r17
     904:	0f 91       	pop	r16
     906:	ff 90       	pop	r15
     908:	ef 90       	pop	r14
     90a:	df 90       	pop	r13
     90c:	cf 90       	pop	r12
     90e:	bf 90       	pop	r11
     910:	af 90       	pop	r10
     912:	9f 90       	pop	r9
     914:	8f 90       	pop	r8
     916:	7f 90       	pop	r7
     918:	6f 90       	pop	r6
     91a:	5f 90       	pop	r5
     91c:	4f 90       	pop	r4
     91e:	08 95       	ret

00000920 <PWM_init>:
     920:	89 e6       	ldi	r24, 0x69	; 105
     922:	83 bf       	out	0x33, r24	; 51
     924:	87 b3       	in	r24, 0x17	; 23
     926:	88 60       	ori	r24, 0x08	; 8
     928:	87 bb       	out	0x17, r24	; 23
     92a:	08 95       	ret

0000092c <USART_initialize>:
     92c:	8a b1       	in	r24, 0x0a	; 10
     92e:	88 61       	ori	r24, 0x18	; 24
     930:	8a b9       	out	0x0a, r24	; 10
     932:	80 b5       	in	r24, 0x20	; 32
     934:	86 68       	ori	r24, 0x86	; 134
     936:	80 bd       	out	0x20, r24	; 32
     938:	83 e3       	ldi	r24, 0x33	; 51
     93a:	89 b9       	out	0x09, r24	; 9
     93c:	10 bc       	out	0x20, r1	; 32
     93e:	08 95       	ret

00000940 <USART_transmit>:
     940:	5d 9b       	sbis	0x0b, 5	; 11
     942:	fe cf       	rjmp	.-4      	; 0x940 <USART_transmit>
     944:	8c b9       	out	0x0c, r24	; 12
     946:	08 95       	ret

00000948 <sendMessage>:

void sendMessage(char* msg,char* longtitude,char* latitude)
{
     948:	ef 92       	push	r14
     94a:	ff 92       	push	r15
     94c:	0f 93       	push	r16
     94e:	1f 93       	push	r17
     950:	cf 93       	push	r28
     952:	df 93       	push	r29
     954:	cd b7       	in	r28, 0x3d	; 61
     956:	de b7       	in	r29, 0x3e	; 62
     958:	a3 97       	sbiw	r28, 0x23	; 35
     95a:	0f b6       	in	r0, 0x3f	; 63
     95c:	f8 94       	cli
     95e:	de bf       	out	0x3e, r29	; 62
     960:	0f be       	out	0x3f, r0	; 63
     962:	cd bf       	out	0x3d, r28	; 61
     964:	7c 01       	movw	r14, r24
     966:	8a 01       	movw	r16, r20
	
	unsigned char cmd_1[4]="AT";
     968:	81 e4       	ldi	r24, 0x41	; 65
     96a:	94 e5       	ldi	r25, 0x54	; 84
     96c:	9a 83       	std	Y+2, r25	; 0x02
     96e:	89 83       	std	Y+1, r24	; 0x01
     970:	1c 82       	std	Y+4, r1	; 0x04
     972:	1b 82       	std	Y+3, r1	; 0x03
	unsigned char cmd_2[10]="AT+CMGF=1";
     974:	8a e0       	ldi	r24, 0x0A	; 10
     976:	ed eb       	ldi	r30, 0xBD	; 189
     978:	f0 e0       	ldi	r31, 0x00	; 0
     97a:	de 01       	movw	r26, r28
     97c:	15 96       	adiw	r26, 0x05	; 5
     97e:	01 90       	ld	r0, Z+
     980:	0d 92       	st	X+, r0
     982:	8a 95       	dec	r24
     984:	e1 f7       	brne	.-8      	; 0x97e <sendMessage+0x36>
	unsigned char cmd_3[10]="AT+CMGS=";
     986:	89 e0       	ldi	r24, 0x09	; 9
     988:	e0 e6       	ldi	r30, 0x60	; 96
     98a:	f0 e0       	ldi	r31, 0x00	; 0
     98c:	de 01       	movw	r26, r28
     98e:	1f 96       	adiw	r26, 0x0f	; 15
     990:	01 90       	ld	r0, Z+
     992:	0d 92       	st	X+, r0
     994:	8a 95       	dec	r24
     996:	e1 f7       	brne	.-8      	; 0x990 <sendMessage+0x48>
     998:	18 8e       	std	Y+24, r1	; 0x18
	char* cmd_4 = msg;
	strcat(cmd_4,"\rLocation\r   Longitude : ");
     99a:	d7 01       	movw	r26, r14
     99c:	0d 90       	ld	r0, X+
     99e:	00 20       	and	r0, r0
     9a0:	e9 f7       	brne	.-6      	; 0x99c <sendMessage+0x54>
     9a2:	11 97       	sbiw	r26, 0x01	; 1
     9a4:	8a e1       	ldi	r24, 0x1A	; 26
     9a6:	e3 e7       	ldi	r30, 0x73	; 115
     9a8:	f0 e0       	ldi	r31, 0x00	; 0
     9aa:	01 90       	ld	r0, Z+
     9ac:	0d 92       	st	X+, r0
     9ae:	8a 95       	dec	r24
     9b0:	e1 f7       	brne	.-8      	; 0x9aa <sendMessage+0x62>
	strcat(cmd_4,longtitude);
     9b2:	c7 01       	movw	r24, r14
     9b4:	0e 94 01 0a 	call	0x1402	; 0x1402 <strcat>
	strcat(cmd_4,"\r   Latitude : ");
     9b8:	d7 01       	movw	r26, r14
     9ba:	0d 90       	ld	r0, X+
     9bc:	00 20       	and	r0, r0
     9be:	e9 f7       	brne	.-6      	; 0x9ba <sendMessage+0x72>
     9c0:	11 97       	sbiw	r26, 0x01	; 1
     9c2:	80 e1       	ldi	r24, 0x10	; 16
     9c4:	ed e8       	ldi	r30, 0x8D	; 141
     9c6:	f0 e0       	ldi	r31, 0x00	; 0
     9c8:	01 90       	ld	r0, Z+
     9ca:	0d 92       	st	X+, r0
     9cc:	8a 95       	dec	r24
     9ce:	e1 f7       	brne	.-8      	; 0x9c8 <sendMessage+0x80>
	strcat(cmd_4,latitude);
     9d0:	b8 01       	movw	r22, r16
     9d2:	c7 01       	movw	r24, r14
     9d4:	0e 94 01 0a 	call	0x1402	; 0x1402 <strcat>
	unsigned char num[11] = "0771234567";
     9d8:	8b e0       	ldi	r24, 0x0B	; 11
     9da:	e7 ec       	ldi	r30, 0xC7	; 199
     9dc:	f0 e0       	ldi	r31, 0x00	; 0
     9de:	de 01       	movw	r26, r28
     9e0:	59 96       	adiw	r26, 0x19	; 25
     9e2:	01 90       	ld	r0, Z+
     9e4:	0d 92       	st	X+, r0
     9e6:	8a 95       	dec	r24
     9e8:	e1 f7       	brne	.-8      	; 0x9e2 <sendMessage+0x9a>
	LCD_Clear();
     9ea:	0e 94 b8 01 	call	0x370	; 0x370 <LCD_Clear>
	LCD_String_xy(1,0,"Message");
     9ee:	4d e9       	ldi	r20, 0x9D	; 157
     9f0:	50 e0       	ldi	r21, 0x00	; 0
     9f2:	60 e0       	ldi	r22, 0x00	; 0
     9f4:	81 e0       	ldi	r24, 0x01	; 1
     9f6:	0e 94 a0 01 	call	0x340	; 0x340 <LCD_String_xy>
	LCD_String_xy(2,3,"Forwarding");
     9fa:	45 ea       	ldi	r20, 0xA5	; 165
     9fc:	50 e0       	ldi	r21, 0x00	; 0
     9fe:	63 e0       	ldi	r22, 0x03	; 3
     a00:	82 e0       	ldi	r24, 0x02	; 2
     a02:	0e 94 a0 01 	call	0x340	; 0x340 <LCD_String_xy>
	#else
		//round up by default
		__ticks_dc = (uint32_t)(ceil(fabs(__tmp)));
	#endif

	__builtin_avr_delay_cycles(__ticks_dc);
     a06:	2f ef       	ldi	r18, 0xFF	; 255
     a08:	84 e3       	ldi	r24, 0x34	; 52
     a0a:	9c e0       	ldi	r25, 0x0C	; 12
     a0c:	21 50       	subi	r18, 0x01	; 1
     a0e:	80 40       	sbci	r24, 0x00	; 0
     a10:	90 40       	sbci	r25, 0x00	; 0
     a12:	e1 f7       	brne	.-8      	; 0xa0c <sendMessage+0xc4>
     a14:	00 c0       	rjmp	.+0      	; 0xa16 <sendMessage+0xce>
     a16:	00 00       	nop
	//USART_send(msg);
	_delay_ms(500);
	
	
	for (int i=0;cmd_1[i]!='\0';i++) /*checking communication*/
     a18:	00 e0       	ldi	r16, 0x00	; 0
     a1a:	10 e0       	ldi	r17, 0x00	; 0
     a1c:	0d c0       	rjmp	.+26     	; 0xa38 <sendMessage+0xf0>
	{
		USART_transmit(cmd_1[i]);
     a1e:	0e 94 a0 04 	call	0x940	; 0x940 <USART_transmit>
     a22:	2f ef       	ldi	r18, 0xFF	; 255
     a24:	80 e7       	ldi	r24, 0x70	; 112
     a26:	92 e0       	ldi	r25, 0x02	; 2
     a28:	21 50       	subi	r18, 0x01	; 1
     a2a:	80 40       	sbci	r24, 0x00	; 0
     a2c:	90 40       	sbci	r25, 0x00	; 0
     a2e:	e1 f7       	brne	.-8      	; 0xa28 <sendMessage+0xe0>
     a30:	00 c0       	rjmp	.+0      	; 0xa32 <sendMessage+0xea>
     a32:	00 00       	nop
	LCD_String_xy(2,3,"Forwarding");
	//USART_send(msg);
	_delay_ms(500);
	
	
	for (int i=0;cmd_1[i]!='\0';i++) /*checking communication*/
     a34:	0f 5f       	subi	r16, 0xFF	; 255
     a36:	1f 4f       	sbci	r17, 0xFF	; 255
     a38:	e1 e0       	ldi	r30, 0x01	; 1
     a3a:	f0 e0       	ldi	r31, 0x00	; 0
     a3c:	ec 0f       	add	r30, r28
     a3e:	fd 1f       	adc	r31, r29
     a40:	e0 0f       	add	r30, r16
     a42:	f1 1f       	adc	r31, r17
     a44:	80 81       	ld	r24, Z
     a46:	81 11       	cpse	r24, r1
     a48:	ea cf       	rjmp	.-44     	; 0xa1e <sendMessage+0xd6>
	{
		USART_transmit(cmd_1[i]);
		_delay_ms(100);
	}
	USART_transmit('\r'); /*carriage return ---> begining from the first line without going to next line*/
     a4a:	8d e0       	ldi	r24, 0x0D	; 13
     a4c:	0e 94 a0 04 	call	0x940	; 0x940 <USART_transmit>
     a50:	2f ef       	ldi	r18, 0xFF	; 255
     a52:	81 ee       	ldi	r24, 0xE1	; 225
     a54:	94 e0       	ldi	r25, 0x04	; 4
     a56:	21 50       	subi	r18, 0x01	; 1
     a58:	80 40       	sbci	r24, 0x00	; 0
     a5a:	90 40       	sbci	r25, 0x00	; 0
     a5c:	e1 f7       	brne	.-8      	; 0xa56 <sendMessage+0x10e>
     a5e:	00 c0       	rjmp	.+0      	; 0xa60 <sendMessage+0x118>
     a60:	00 00       	nop
	_delay_ms(200);
	
	for (int i=0;cmd_2[i]!='\0';i++) /* set the operating mode to SMS text mode*/
     a62:	00 e0       	ldi	r16, 0x00	; 0
     a64:	10 e0       	ldi	r17, 0x00	; 0
     a66:	0d c0       	rjmp	.+26     	; 0xa82 <sendMessage+0x13a>
	{
		USART_transmit(cmd_2[i]);
     a68:	0e 94 a0 04 	call	0x940	; 0x940 <USART_transmit>
     a6c:	2f ef       	ldi	r18, 0xFF	; 255
     a6e:	80 e7       	ldi	r24, 0x70	; 112
     a70:	92 e0       	ldi	r25, 0x02	; 2
     a72:	21 50       	subi	r18, 0x01	; 1
     a74:	80 40       	sbci	r24, 0x00	; 0
     a76:	90 40       	sbci	r25, 0x00	; 0
     a78:	e1 f7       	brne	.-8      	; 0xa72 <sendMessage+0x12a>
     a7a:	00 c0       	rjmp	.+0      	; 0xa7c <sendMessage+0x134>
     a7c:	00 00       	nop
		_delay_ms(100);
	}
	USART_transmit('\r'); /*carriage return ---> begining from the first line without going to next line*/
	_delay_ms(200);
	
	for (int i=0;cmd_2[i]!='\0';i++) /* set the operating mode to SMS text mode*/
     a7e:	0f 5f       	subi	r16, 0xFF	; 255
     a80:	1f 4f       	sbci	r17, 0xFF	; 255
     a82:	e5 e0       	ldi	r30, 0x05	; 5
     a84:	f0 e0       	ldi	r31, 0x00	; 0
     a86:	ec 0f       	add	r30, r28
     a88:	fd 1f       	adc	r31, r29
     a8a:	e0 0f       	add	r30, r16
     a8c:	f1 1f       	adc	r31, r17
     a8e:	80 81       	ld	r24, Z
     a90:	81 11       	cpse	r24, r1
     a92:	ea cf       	rjmp	.-44     	; 0xa68 <sendMessage+0x120>
	{
		USART_transmit(cmd_2[i]);
		_delay_ms(100);
	}
	USART_transmit('\r');
     a94:	8d e0       	ldi	r24, 0x0D	; 13
     a96:	0e 94 a0 04 	call	0x940	; 0x940 <USART_transmit>
     a9a:	2f ef       	ldi	r18, 0xFF	; 255
     a9c:	81 ee       	ldi	r24, 0xE1	; 225
     a9e:	94 e0       	ldi	r25, 0x04	; 4
     aa0:	21 50       	subi	r18, 0x01	; 1
     aa2:	80 40       	sbci	r24, 0x00	; 0
     aa4:	90 40       	sbci	r25, 0x00	; 0
     aa6:	e1 f7       	brne	.-8      	; 0xaa0 <sendMessage+0x158>
     aa8:	00 c0       	rjmp	.+0      	; 0xaaa <sendMessage+0x162>
     aaa:	00 00       	nop
	_delay_ms(200);
	
	for (int i=0;cmd_3[i]!='\0';i++) /* send SMS in text mode*/
     aac:	00 e0       	ldi	r16, 0x00	; 0
     aae:	10 e0       	ldi	r17, 0x00	; 0
     ab0:	0d c0       	rjmp	.+26     	; 0xacc <sendMessage+0x184>
	{
		USART_transmit(cmd_3[i]);
     ab2:	0e 94 a0 04 	call	0x940	; 0x940 <USART_transmit>
     ab6:	2f ef       	ldi	r18, 0xFF	; 255
     ab8:	80 e7       	ldi	r24, 0x70	; 112
     aba:	92 e0       	ldi	r25, 0x02	; 2
     abc:	21 50       	subi	r18, 0x01	; 1
     abe:	80 40       	sbci	r24, 0x00	; 0
     ac0:	90 40       	sbci	r25, 0x00	; 0
     ac2:	e1 f7       	brne	.-8      	; 0xabc <sendMessage+0x174>
     ac4:	00 c0       	rjmp	.+0      	; 0xac6 <sendMessage+0x17e>
     ac6:	00 00       	nop
		_delay_ms(100);
	}
	USART_transmit('\r');
	_delay_ms(200);
	
	for (int i=0;cmd_3[i]!='\0';i++) /* send SMS in text mode*/
     ac8:	0f 5f       	subi	r16, 0xFF	; 255
     aca:	1f 4f       	sbci	r17, 0xFF	; 255
     acc:	ef e0       	ldi	r30, 0x0F	; 15
     ace:	f0 e0       	ldi	r31, 0x00	; 0
     ad0:	ec 0f       	add	r30, r28
     ad2:	fd 1f       	adc	r31, r29
     ad4:	e0 0f       	add	r30, r16
     ad6:	f1 1f       	adc	r31, r17
     ad8:	80 81       	ld	r24, Z
     ada:	81 11       	cpse	r24, r1
     adc:	ea cf       	rjmp	.-44     	; 0xab2 <sendMessage+0x16a>
	{
		USART_transmit(cmd_3[i]);
		_delay_ms(100);
	}
	UDR='"';
     ade:	82 e2       	ldi	r24, 0x22	; 34
     ae0:	8c b9       	out	0x0c, r24	; 12
     ae2:	2f ef       	ldi	r18, 0xFF	; 255
     ae4:	80 e7       	ldi	r24, 0x70	; 112
     ae6:	92 e0       	ldi	r25, 0x02	; 2
     ae8:	21 50       	subi	r18, 0x01	; 1
     aea:	80 40       	sbci	r24, 0x00	; 0
     aec:	90 40       	sbci	r25, 0x00	; 0
     aee:	e1 f7       	brne	.-8      	; 0xae8 <sendMessage+0x1a0>
     af0:	00 c0       	rjmp	.+0      	; 0xaf2 <sendMessage+0x1aa>
     af2:	00 00       	nop
	_delay_ms(100);
	for (int i=0;num[i]!='\0';i++) /* SMS to be sent */
     af4:	00 e0       	ldi	r16, 0x00	; 0
     af6:	10 e0       	ldi	r17, 0x00	; 0
     af8:	0d c0       	rjmp	.+26     	; 0xb14 <sendMessage+0x1cc>
	{
		USART_transmit(num[i]);
     afa:	0e 94 a0 04 	call	0x940	; 0x940 <USART_transmit>
     afe:	2f ef       	ldi	r18, 0xFF	; 255
     b00:	80 e7       	ldi	r24, 0x70	; 112
     b02:	92 e0       	ldi	r25, 0x02	; 2
     b04:	21 50       	subi	r18, 0x01	; 1
     b06:	80 40       	sbci	r24, 0x00	; 0
     b08:	90 40       	sbci	r25, 0x00	; 0
     b0a:	e1 f7       	brne	.-8      	; 0xb04 <sendMessage+0x1bc>
     b0c:	00 c0       	rjmp	.+0      	; 0xb0e <sendMessage+0x1c6>
     b0e:	00 00       	nop
		USART_transmit(cmd_3[i]);
		_delay_ms(100);
	}
	UDR='"';
	_delay_ms(100);
	for (int i=0;num[i]!='\0';i++) /* SMS to be sent */
     b10:	0f 5f       	subi	r16, 0xFF	; 255
     b12:	1f 4f       	sbci	r17, 0xFF	; 255
     b14:	e9 e1       	ldi	r30, 0x19	; 25
     b16:	f0 e0       	ldi	r31, 0x00	; 0
     b18:	ec 0f       	add	r30, r28
     b1a:	fd 1f       	adc	r31, r29
     b1c:	e0 0f       	add	r30, r16
     b1e:	f1 1f       	adc	r31, r17
     b20:	80 81       	ld	r24, Z
     b22:	81 11       	cpse	r24, r1
     b24:	ea cf       	rjmp	.-44     	; 0xafa <sendMessage+0x1b2>
	{
		USART_transmit(num[i]);
		_delay_ms(100);
	}
	UDR='"';
     b26:	82 e2       	ldi	r24, 0x22	; 34
     b28:	8c b9       	out	0x0c, r24	; 12
     b2a:	2f ef       	ldi	r18, 0xFF	; 255
     b2c:	80 e7       	ldi	r24, 0x70	; 112
     b2e:	92 e0       	ldi	r25, 0x02	; 2
     b30:	21 50       	subi	r18, 0x01	; 1
     b32:	80 40       	sbci	r24, 0x00	; 0
     b34:	90 40       	sbci	r25, 0x00	; 0
     b36:	e1 f7       	brne	.-8      	; 0xb30 <sendMessage+0x1e8>
     b38:	00 c0       	rjmp	.+0      	; 0xb3a <sendMessage+0x1f2>
     b3a:	00 00       	nop
	_delay_ms(100);
	UDR='\r';
     b3c:	8d e0       	ldi	r24, 0x0D	; 13
     b3e:	8c b9       	out	0x0c, r24	; 12
     b40:	2f ef       	ldi	r18, 0xFF	; 255
     b42:	81 ee       	ldi	r24, 0xE1	; 225
     b44:	94 e0       	ldi	r25, 0x04	; 4
     b46:	21 50       	subi	r18, 0x01	; 1
     b48:	80 40       	sbci	r24, 0x00	; 0
     b4a:	90 40       	sbci	r25, 0x00	; 0
     b4c:	e1 f7       	brne	.-8      	; 0xb46 <sendMessage+0x1fe>
     b4e:	00 c0       	rjmp	.+0      	; 0xb50 <sendMessage+0x208>
     b50:	00 00       	nop
	_delay_ms(200);

	for (int i=0;cmd_4[i]!='\0';i++) /* message */
     b52:	00 e0       	ldi	r16, 0x00	; 0
     b54:	10 e0       	ldi	r17, 0x00	; 0
     b56:	0d c0       	rjmp	.+26     	; 0xb72 <sendMessage+0x22a>
	{
		USART_transmit(cmd_4[i]);
     b58:	0e 94 a0 04 	call	0x940	; 0x940 <USART_transmit>
     b5c:	2f ef       	ldi	r18, 0xFF	; 255
     b5e:	80 e7       	ldi	r24, 0x70	; 112
     b60:	92 e0       	ldi	r25, 0x02	; 2
     b62:	21 50       	subi	r18, 0x01	; 1
     b64:	80 40       	sbci	r24, 0x00	; 0
     b66:	90 40       	sbci	r25, 0x00	; 0
     b68:	e1 f7       	brne	.-8      	; 0xb62 <sendMessage+0x21a>
     b6a:	00 c0       	rjmp	.+0      	; 0xb6c <sendMessage+0x224>
     b6c:	00 00       	nop
	UDR='"';
	_delay_ms(100);
	UDR='\r';
	_delay_ms(200);

	for (int i=0;cmd_4[i]!='\0';i++) /* message */
     b6e:	0f 5f       	subi	r16, 0xFF	; 255
     b70:	1f 4f       	sbci	r17, 0xFF	; 255
     b72:	f7 01       	movw	r30, r14
     b74:	e0 0f       	add	r30, r16
     b76:	f1 1f       	adc	r31, r17
     b78:	80 81       	ld	r24, Z
     b7a:	81 11       	cpse	r24, r1
     b7c:	ed cf       	rjmp	.-38     	; 0xb58 <sendMessage+0x210>
     b7e:	2f ef       	ldi	r18, 0xFF	; 255
     b80:	81 ee       	ldi	r24, 0xE1	; 225
     b82:	94 e0       	ldi	r25, 0x04	; 4
     b84:	21 50       	subi	r18, 0x01	; 1
     b86:	80 40       	sbci	r24, 0x00	; 0
     b88:	90 40       	sbci	r25, 0x00	; 0
     b8a:	e1 f7       	brne	.-8      	; 0xb84 <sendMessage+0x23c>
     b8c:	00 c0       	rjmp	.+0      	; 0xb8e <sendMessage+0x246>
     b8e:	00 00       	nop
	{
		USART_transmit(cmd_4[i]);
		_delay_ms(100);
	}
	_delay_ms(200);
	LCD_Clear();
     b90:	0e 94 b8 01 	call	0x370	; 0x370 <LCD_Clear>
	LCD_String_xy(1,0,"Message sent");
     b94:	40 eb       	ldi	r20, 0xB0	; 176
     b96:	50 e0       	ldi	r21, 0x00	; 0
     b98:	60 e0       	ldi	r22, 0x00	; 0
     b9a:	81 e0       	ldi	r24, 0x01	; 1
     b9c:	0e 94 a0 01 	call	0x340	; 0x340 <LCD_String_xy>
     ba0:	2f ef       	ldi	r18, 0xFF	; 255
     ba2:	8d e3       	ldi	r24, 0x3D	; 61
     ba4:	99 e4       	ldi	r25, 0x49	; 73
     ba6:	21 50       	subi	r18, 0x01	; 1
     ba8:	80 40       	sbci	r24, 0x00	; 0
     baa:	90 40       	sbci	r25, 0x00	; 0
     bac:	e1 f7       	brne	.-8      	; 0xba6 <sendMessage+0x25e>
     bae:	00 c0       	rjmp	.+0      	; 0xbb0 <sendMessage+0x268>
     bb0:	00 00       	nop
	_delay_ms(3000);
	LCD_Clear();
     bb2:	0e 94 b8 01 	call	0x370	; 0x370 <LCD_Clear>
     bb6:	a3 96       	adiw	r28, 0x23	; 35
     bb8:	0f b6       	in	r0, 0x3f	; 63
     bba:	f8 94       	cli
     bbc:	de bf       	out	0x3e, r29	; 62
     bbe:	0f be       	out	0x3f, r0	; 63
     bc0:	cd bf       	out	0x3d, r28	; 61
     bc2:	df 91       	pop	r29
     bc4:	cf 91       	pop	r28
     bc6:	1f 91       	pop	r17
     bc8:	0f 91       	pop	r16
     bca:	ff 90       	pop	r15
     bcc:	ef 90       	pop	r14
     bce:	08 95       	ret

00000bd0 <ringAlarm>:
		}
	}
}

void ringAlarm(){
	portHigh(PORTD,buzzer);//buzzer
     bd0:	82 b3       	in	r24, 0x12	; 18
     bd2:	80 68       	ori	r24, 0x80	; 128
     bd4:	82 bb       	out	0x12, r24	; 18
     bd6:	08 95       	ret

00000bd8 <stopAlarm>:
}
void stopAlarm(){
	portLow(PORTD,buzzer);
     bd8:	82 b3       	in	r24, 0x12	; 18
     bda:	8f 77       	andi	r24, 0x7F	; 127
     bdc:	82 bb       	out	0x12, r24	; 18
     bde:	08 95       	ret

00000be0 <onHazardLight>:
}
void onHazardLight(){
	portHigh(PORTD,led);
     be0:	82 b3       	in	r24, 0x12	; 18
     be2:	80 64       	ori	r24, 0x40	; 64
     be4:	82 bb       	out	0x12, r24	; 18
     be6:	08 95       	ret

00000be8 <offHazardLight>:
}
void offHazardLight(){
	portLow(PORTD,led);
     be8:	82 b3       	in	r24, 0x12	; 18
     bea:	8f 7b       	andi	r24, 0xBF	; 191
     bec:	82 bb       	out	0x12, r24	; 18
     bee:	08 95       	ret

00000bf0 <playRadio>:
}
void playRadio(){
	portHigh(PORTD,musicSystem);
     bf0:	82 b3       	in	r24, 0x12	; 18
     bf2:	80 62       	ori	r24, 0x20	; 32
     bf4:	82 bb       	out	0x12, r24	; 18
     bf6:	08 95       	ret

00000bf8 <getAllValuesGps>:
}
void getAllValuesGps(){
     bf8:	cf 93       	push	r28
     bfa:	df 93       	push	r29
		get_gpstime();                         // Extract Time in UTC- In this function the get the GPS time string type and convert as an integer and print that time
     bfc:	0e 94 04 02 	call	0x408	; 0x408 <get_gpstime>
		get_latitude(GGA_Pointers[0]);         // Extract Latitude- convert raw latitude value into degree format and pass that value as string
     c00:	cf e2       	ldi	r28, 0x2F	; 47
     c02:	d2 e0       	ldi	r29, 0x02	; 2
     c04:	88 81       	ld	r24, Y
     c06:	90 e0       	ldi	r25, 0x00	; 0
     c08:	0e 94 5b 02 	call	0x4b6	; 0x4b6 <get_latitude>
		//degrees_buffer latitude
		strcpy(latitude,degrees_buffer);
     c0c:	6d eb       	ldi	r22, 0xBD	; 189
     c0e:	71 e0       	ldi	r23, 0x01	; 1
     c10:	8b ef       	ldi	r24, 0xFB	; 251
     c12:	91 e0       	ldi	r25, 0x01	; 1
     c14:	0e 94 0c 0a 	call	0x1418	; 0x1418 <strcpy>
		get_longitude(GGA_Pointers[2]);        /* Extract Longitude */
     c18:	8a 81       	ldd	r24, Y+2	; 0x02
     c1a:	90 e0       	ldi	r25, 0x00	; 0
     c1c:	0e 94 86 02 	call	0x50c	; 0x50c <get_longitude>
		//degrees_buffer longtitude
		strcpy(longtitude,degrees_buffer);
     c20:	6d eb       	ldi	r22, 0xBD	; 189
     c22:	71 e0       	ldi	r23, 0x01	; 1
     c24:	8c e1       	ldi	r24, 0x1C	; 28
     c26:	92 e0       	ldi	r25, 0x02	; 2
     c28:	0e 94 0c 0a 	call	0x1418	; 0x1418 <strcpy>
		//get_altitude(GGA_Pointers[7]);         /* Extract Altitude in meters*/ 
}
     c2c:	df 91       	pop	r29
     c2e:	cf 91       	pop	r28
     c30:	08 95       	ret

00000c32 <isDriverSleepingIR>:

int isDriverSleepingIR(){
	int timeInterval=40;
	int flag=0;
	for(int i=1;i<=timeInterval;i++){
     c32:	81 e0       	ldi	r24, 0x01	; 1
     c34:	90 e0       	ldi	r25, 0x00	; 0
		//get_altitude(GGA_Pointers[7]);         /* Extract Altitude in meters*/ 
}

int isDriverSleepingIR(){
	int timeInterval=40;
	int flag=0;
     c36:	20 e0       	ldi	r18, 0x00	; 0
     c38:	30 e0       	ldi	r19, 0x00	; 0
	for(int i=1;i<=timeInterval;i++){
     c3a:	11 c0       	rjmp	.+34     	; 0xc5e <isDriverSleepingIR+0x2c>
		if(pinRead(PINC,irsensor)==0x40){
     c3c:	9e 9b       	sbis	0x13, 6	; 19
     c3e:	03 c0       	rjmp	.+6      	; 0xc46 <isDriverSleepingIR+0x14>
			flag++;
     c40:	2f 5f       	subi	r18, 0xFF	; 255
     c42:	3f 4f       	sbci	r19, 0xFF	; 255
     c44:	02 c0       	rjmp	.+4      	; 0xc4a <isDriverSleepingIR+0x18>
		}else{
			flag--;
     c46:	21 50       	subi	r18, 0x01	; 1
     c48:	31 09       	sbc	r19, r1
     c4a:	4f e7       	ldi	r20, 0x7F	; 127
     c4c:	58 e3       	ldi	r21, 0x38	; 56
     c4e:	61 e0       	ldi	r22, 0x01	; 1
     c50:	41 50       	subi	r20, 0x01	; 1
     c52:	50 40       	sbci	r21, 0x00	; 0
     c54:	60 40       	sbci	r22, 0x00	; 0
     c56:	e1 f7       	brne	.-8      	; 0xc50 <isDriverSleepingIR+0x1e>
     c58:	00 c0       	rjmp	.+0      	; 0xc5a <isDriverSleepingIR+0x28>
     c5a:	00 00       	nop
}

int isDriverSleepingIR(){
	int timeInterval=40;
	int flag=0;
	for(int i=1;i<=timeInterval;i++){
     c5c:	01 96       	adiw	r24, 0x01	; 1
     c5e:	89 32       	cpi	r24, 0x29	; 41
     c60:	91 05       	cpc	r25, r1
     c62:	64 f3       	brlt	.-40     	; 0xc3c <isDriverSleepingIR+0xa>
		}else{
			flag--;
		}
		_delay_ms(50);
	}
	if(flag==timeInterval){
     c64:	28 32       	cpi	r18, 0x28	; 40
     c66:	31 05       	cpc	r19, r1
     c68:	19 f4       	brne	.+6      	; 0xc70 <isDriverSleepingIR+0x3e>
		return 1;
     c6a:	81 e0       	ldi	r24, 0x01	; 1
     c6c:	90 e0       	ldi	r25, 0x00	; 0
     c6e:	08 95       	ret
	}else{
		return 0; 
     c70:	80 e0       	ldi	r24, 0x00	; 0
     c72:	90 e0       	ldi	r25, 0x00	; 0
	}
}
     c74:	08 95       	ret

00000c76 <main>:
#include "headerfiles.h"
char longtitude[15];
char latitude[15];
int main(void){
	start:
	GGA_Index=0;
     c76:	10 92 fa 01 	sts	0x01FA, r1	; 0x8001fa <GGA_Index+0x1>
     c7a:	10 92 f9 01 	sts	0x01F9, r1	; 0x8001f9 <GGA_Index>
	setOutput(DDRD,led);
     c7e:	81 b3       	in	r24, 0x11	; 17
     c80:	80 64       	ori	r24, 0x40	; 64
     c82:	81 bb       	out	0x11, r24	; 17
	setOutput(DDRD,buzzer);
     c84:	81 b3       	in	r24, 0x11	; 17
     c86:	80 68       	ori	r24, 0x80	; 128
     c88:	81 bb       	out	0x11, r24	; 17
	setOutput(DDRD,musicSystem);
     c8a:	81 b3       	in	r24, 0x11	; 17
     c8c:	80 62       	ori	r24, 0x20	; 32
     c8e:	81 bb       	out	0x11, r24	; 17
	LCD_Init();
     c90:	0e 94 6f 01 	call	0x2de	; 0x2de <LCD_Init>
     c94:	2f ef       	ldi	r18, 0xFF	; 255
     c96:	3d e3       	ldi	r19, 0x3D	; 61
     c98:	49 e4       	ldi	r20, 0x49	; 73
     c9a:	21 50       	subi	r18, 0x01	; 1
     c9c:	30 40       	sbci	r19, 0x00	; 0
     c9e:	40 40       	sbci	r20, 0x00	; 0
     ca0:	e1 f7       	brne	.-8      	; 0xc9a <main+0x24>
     ca2:	00 c0       	rjmp	.+0      	; 0xca4 <main+0x2e>
     ca4:	00 00       	nop
	_delay_ms(3000);/* wait for GPS receiver to initialize */
	USART_initialize(9600); /* GSM */
     ca6:	60 e8       	ldi	r22, 0x80	; 128
     ca8:	75 e2       	ldi	r23, 0x25	; 37
     caa:	80 e0       	ldi	r24, 0x00	; 0
     cac:	90 e0       	ldi	r25, 0x00	; 0
     cae:	0e 94 96 04 	call	0x92c	; 0x92c <USART_initialize>
	USART_Init(9600);/* GPS */
     cb2:	60 e8       	ldi	r22, 0x80	; 128
     cb4:	75 e2       	ldi	r23, 0x25	; 37
     cb6:	80 e0       	ldi	r24, 0x00	; 0
     cb8:	90 e0       	ldi	r25, 0x00	; 0
     cba:	0e 94 4c 07 	call	0xe98	; 0xe98 <USART_Init>
	ADC_Init();
     cbe:	0e 94 bc 01 	call	0x378	; 0x378 <ADC_Init>
	sei();
     cc2:	78 94       	sei
	I2C_Init();
     cc4:	0e 94 e4 00 	call	0x1c8	; 0x1c8 <I2C_Init>
	PWM_init();
     cc8:	0e 94 90 04 	call	0x920	; 0x920 <PWM_init>
	MPU6050_Init();
     ccc:	0e 94 21 03 	call	0x642	; 0x642 <MPU6050_Init>
	LCD_Clear();
     cd0:	0e 94 b8 01 	call	0x370	; 0x370 <LCD_Clear>
	float Xa,Ya,Za; // for gyroscope
	while (1){
		//flame detection
		if(pinRead(PINC,flame)==0x10){
     cd4:	9c 9b       	sbis	0x13, 4	; 19
     cd6:	20 c0       	rjmp	.+64     	; 0xd18 <main+0xa2>
			ringAlarm();
     cd8:	0e 94 e8 05 	call	0xbd0	; 0xbd0 <ringAlarm>
			onHazardLight();
     cdc:	0e 94 f0 05 	call	0xbe0	; 0xbe0 <onHazardLight>
     ce0:	8f ef       	ldi	r24, 0xFF	; 255
     ce2:	99 e6       	ldi	r25, 0x69	; 105
     ce4:	28 e1       	ldi	r18, 0x18	; 24
     ce6:	81 50       	subi	r24, 0x01	; 1
     ce8:	90 40       	sbci	r25, 0x00	; 0
     cea:	20 40       	sbci	r18, 0x00	; 0
     cec:	e1 f7       	brne	.-8      	; 0xce6 <main+0x70>
     cee:	00 c0       	rjmp	.+0      	; 0xcf0 <main+0x7a>
     cf0:	00 00       	nop
			_delay_ms(1000);
			stopAlarm();
     cf2:	0e 94 ec 05 	call	0xbd8	; 0xbd8 <stopAlarm>
			offHazardLight();
     cf6:	0e 94 f4 05 	call	0xbe8	; 0xbe8 <offHazardLight>
			LCD_String("Flame Detected !");
     cfa:	82 ed       	ldi	r24, 0xD2	; 210
     cfc:	90 e0       	ldi	r25, 0x00	; 0
     cfe:	0e 94 8a 01 	call	0x314	; 0x314 <LCD_String>
			getAllValuesGps();
     d02:	0e 94 fc 05 	call	0xbf8	; 0xbf8 <getAllValuesGps>
			sendMessage("Flame Detected",longtitude,latitude);
     d06:	4b ef       	ldi	r20, 0xFB	; 251
     d08:	51 e0       	ldi	r21, 0x01	; 1
     d0a:	6c e1       	ldi	r22, 0x1C	; 28
     d0c:	72 e0       	ldi	r23, 0x02	; 2
     d0e:	83 ee       	ldi	r24, 0xE3	; 227
     d10:	90 e0       	ldi	r25, 0x00	; 0
     d12:	0e 94 a4 04 	call	0x948	; 0x948 <sendMessage>
     d16:	de cf       	rjmp	.-68     	; 0xcd4 <main+0x5e>
		}
		else{
			//set wheel speed vehicle
			int val=ADC_Read(0);
     d18:	80 e0       	ldi	r24, 0x00	; 0
     d1a:	0e 94 c4 01 	call	0x388	; 0x388 <ADC_Read>
			float speed=(val/1024.0)*255.0;
     d1e:	bc 01       	movw	r22, r24
     d20:	99 0f       	add	r25, r25
     d22:	88 0b       	sbc	r24, r24
     d24:	99 0b       	sbc	r25, r25
     d26:	0e 94 72 08 	call	0x10e4	; 0x10e4 <__floatsisf>
     d2a:	20 e0       	ldi	r18, 0x00	; 0
     d2c:	30 e0       	ldi	r19, 0x00	; 0
     d2e:	40 e8       	ldi	r20, 0x80	; 128
     d30:	5a e3       	ldi	r21, 0x3A	; 58
     d32:	0e 94 27 09 	call	0x124e	; 0x124e <__mulsf3>
     d36:	20 e0       	ldi	r18, 0x00	; 0
     d38:	30 e0       	ldi	r19, 0x00	; 0
     d3a:	4f e7       	ldi	r20, 0x7F	; 127
     d3c:	53 e4       	ldi	r21, 0x43	; 67
     d3e:	0e 94 27 09 	call	0x124e	; 0x124e <__mulsf3>
			OCR0=(int)speed;
     d42:	0e 94 3a 08 	call	0x1074	; 0x1074 <__fixsfsi>
     d46:	6c bf       	out	0x3c, r22	; 60
			//get pressure
			int value = ADC_Read(1);
     d48:	81 e0       	ldi	r24, 0x01	; 1
     d4a:	0e 94 c4 01 	call	0x388	; 0x388 <ADC_Read>
			if (value > 107){// if value gt 107 vehicle is moving
     d4e:	8c 36       	cpi	r24, 0x6C	; 108
     d50:	91 05       	cpc	r25, r1
     d52:	0c f4       	brge	.+2      	; 0xd56 <main+0xe0>
     d54:	bf cf       	rjmp	.-130    	; 0xcd4 <main+0x5e>
				if(pinRead(PINC,alcohol)==0x20){
     d56:	9d 9b       	sbis	0x13, 5	; 19
     d58:	1e c0       	rjmp	.+60     	; 0xd96 <main+0x120>
					LCD_Clear();
     d5a:	0e 94 b8 01 	call	0x370	; 0x370 <LCD_Clear>
					LCD_String("Alcohol Detected"); 
     d5e:	82 ef       	ldi	r24, 0xF2	; 242
     d60:	90 e0       	ldi	r25, 0x00	; 0
     d62:	0e 94 8a 01 	call	0x314	; 0x314 <LCD_String>
					ringAlarm();
     d66:	0e 94 e8 05 	call	0xbd0	; 0xbd0 <ringAlarm>
     d6a:	3f ef       	ldi	r19, 0xFF	; 255
     d6c:	49 e6       	ldi	r20, 0x69	; 105
     d6e:	88 e1       	ldi	r24, 0x18	; 24
     d70:	31 50       	subi	r19, 0x01	; 1
     d72:	40 40       	sbci	r20, 0x00	; 0
     d74:	80 40       	sbci	r24, 0x00	; 0
     d76:	e1 f7       	brne	.-8      	; 0xd70 <main+0xfa>
     d78:	00 c0       	rjmp	.+0      	; 0xd7a <main+0x104>
     d7a:	00 00       	nop
					_delay_ms(1000);
					stopAlarm();
     d7c:	0e 94 ec 05 	call	0xbd8	; 0xbd8 <stopAlarm>
					getAllValuesGps();
     d80:	0e 94 fc 05 	call	0xbf8	; 0xbf8 <getAllValuesGps>
					sendMessage("Alcohol Detected",longtitude,latitude);
     d84:	4b ef       	ldi	r20, 0xFB	; 251
     d86:	51 e0       	ldi	r21, 0x01	; 1
     d88:	6c e1       	ldi	r22, 0x1C	; 28
     d8a:	72 e0       	ldi	r23, 0x02	; 2
     d8c:	82 ef       	ldi	r24, 0xF2	; 242
     d8e:	90 e0       	ldi	r25, 0x00	; 0
     d90:	0e 94 a4 04 	call	0x948	; 0x948 <sendMessage>
     d94:	9f cf       	rjmp	.-194    	; 0xcd4 <main+0x5e>
				}
				else{
					Read_RawValue();
     d96:	0e 94 6c 03 	call	0x6d8	; 0x6d8 <Read_RawValue>
					Xa = (Acc_x/16384.0)*9.8066;
     d9a:	20 e0       	ldi	r18, 0x00	; 0
     d9c:	30 e0       	ldi	r19, 0x00	; 0
     d9e:	40 e8       	ldi	r20, 0x80	; 128
     da0:	58 e3       	ldi	r21, 0x38	; 56
     da2:	60 91 f3 01 	lds	r22, 0x01F3	; 0x8001f3 <Acc_x>
     da6:	70 91 f4 01 	lds	r23, 0x01F4	; 0x8001f4 <Acc_x+0x1>
     daa:	80 91 f5 01 	lds	r24, 0x01F5	; 0x8001f5 <Acc_x+0x2>
     dae:	90 91 f6 01 	lds	r25, 0x01F6	; 0x8001f6 <Acc_x+0x3>
     db2:	0e 94 27 09 	call	0x124e	; 0x124e <__mulsf3>
     db6:	25 ed       	ldi	r18, 0xD5	; 213
     db8:	37 ee       	ldi	r19, 0xE7	; 231
     dba:	4c e1       	ldi	r20, 0x1C	; 28
     dbc:	51 e4       	ldi	r21, 0x41	; 65
     dbe:	0e 94 27 09 	call	0x124e	; 0x124e <__mulsf3>
     dc2:	4b 01       	movw	r8, r22
     dc4:	5c 01       	movw	r10, r24
					Ya = (Acc_y/16384.0)*9.8066;
     dc6:	20 e0       	ldi	r18, 0x00	; 0
     dc8:	30 e0       	ldi	r19, 0x00	; 0
     dca:	40 e8       	ldi	r20, 0x80	; 128
     dcc:	58 e3       	ldi	r21, 0x38	; 56
     dce:	60 91 b9 01 	lds	r22, 0x01B9	; 0x8001b9 <Acc_y>
     dd2:	70 91 ba 01 	lds	r23, 0x01BA	; 0x8001ba <Acc_y+0x1>
     dd6:	80 91 bb 01 	lds	r24, 0x01BB	; 0x8001bb <Acc_y+0x2>
     dda:	90 91 bc 01 	lds	r25, 0x01BC	; 0x8001bc <Acc_y+0x3>
     dde:	0e 94 27 09 	call	0x124e	; 0x124e <__mulsf3>
     de2:	25 ed       	ldi	r18, 0xD5	; 213
     de4:	37 ee       	ldi	r19, 0xE7	; 231
     de6:	4c e1       	ldi	r20, 0x1C	; 28
     de8:	51 e4       	ldi	r21, 0x41	; 65
     dea:	0e 94 27 09 	call	0x124e	; 0x124e <__mulsf3>
     dee:	2b 01       	movw	r4, r22
     df0:	3c 01       	movw	r6, r24
					Za = (Acc_z/16384.0)*9.8066;
     df2:	20 e0       	ldi	r18, 0x00	; 0
     df4:	30 e0       	ldi	r19, 0x00	; 0
     df6:	40 e8       	ldi	r20, 0x80	; 128
     df8:	58 e3       	ldi	r21, 0x38	; 56
     dfa:	60 91 17 01 	lds	r22, 0x0117	; 0x800117 <Acc_z>
     dfe:	70 91 18 01 	lds	r23, 0x0118	; 0x800118 <Acc_z+0x1>
     e02:	80 91 19 01 	lds	r24, 0x0119	; 0x800119 <Acc_z+0x2>
     e06:	90 91 1a 01 	lds	r25, 0x011A	; 0x80011a <Acc_z+0x3>
     e0a:	0e 94 27 09 	call	0x124e	; 0x124e <__mulsf3>
     e0e:	25 ed       	ldi	r18, 0xD5	; 213
     e10:	37 ee       	ldi	r19, 0xE7	; 231
     e12:	4c e1       	ldi	r20, 0x1C	; 28
     e14:	51 e4       	ldi	r21, 0x41	; 65
     e16:	0e 94 27 09 	call	0x124e	; 0x124e <__mulsf3>
     e1a:	6b 01       	movw	r12, r22
     e1c:	7c 01       	movw	r14, r24
					if(isDriverSleepingIR() && isDriverSleepingGyro(Xa,Ya,Za)){
     e1e:	0e 94 19 06 	call	0xc32	; 0xc32 <isDriverSleepingIR>
     e22:	89 2b       	or	r24, r25
     e24:	09 f4       	brne	.+2      	; 0xe28 <main+0x1b2>
     e26:	56 cf       	rjmp	.-340    	; 0xcd4 <main+0x5e>
     e28:	87 01       	movw	r16, r14
     e2a:	76 01       	movw	r14, r12
     e2c:	a3 01       	movw	r20, r6
     e2e:	92 01       	movw	r18, r4
     e30:	c5 01       	movw	r24, r10
     e32:	b4 01       	movw	r22, r8
     e34:	0e 94 1d 04 	call	0x83a	; 0x83a <isDriverSleepingGyro>
     e38:	89 2b       	or	r24, r25
     e3a:	09 f4       	brne	.+2      	; 0xe3e <main+0x1c8>
     e3c:	4b cf       	rjmp	.-362    	; 0xcd4 <main+0x5e>
						ringAlarm();
     e3e:	0e 94 e8 05 	call	0xbd0	; 0xbd0 <ringAlarm>
						onHazardLight();
     e42:	0e 94 f0 05 	call	0xbe0	; 0xbe0 <onHazardLight>
						for(int i=1;i<=20;i++){
     e46:	81 e0       	ldi	r24, 0x01	; 1
     e48:	90 e0       	ldi	r25, 0x00	; 0
     e4a:	11 c0       	rjmp	.+34     	; 0xe6e <main+0x1f8>
							if(pinRead(PINC,3)==0x08){
     e4c:	9b 9b       	sbis	0x13, 3	; 19
     e4e:	05 c0       	rjmp	.+10     	; 0xe5a <main+0x1e4>
								stopAlarm();
     e50:	0e 94 ec 05 	call	0xbd8	; 0xbd8 <stopAlarm>
								offHazardLight();
     e54:	0e 94 f4 05 	call	0xbe8	; 0xbe8 <offHazardLight>
								goto start;
     e58:	0e cf       	rjmp	.-484    	; 0xc76 <main>
     e5a:	2f e7       	ldi	r18, 0x7F	; 127
     e5c:	3a e1       	ldi	r19, 0x1A	; 26
     e5e:	46 e0       	ldi	r20, 0x06	; 6
     e60:	21 50       	subi	r18, 0x01	; 1
     e62:	30 40       	sbci	r19, 0x00	; 0
     e64:	40 40       	sbci	r20, 0x00	; 0
     e66:	e1 f7       	brne	.-8      	; 0xe60 <main+0x1ea>
     e68:	00 c0       	rjmp	.+0      	; 0xe6a <main+0x1f4>
     e6a:	00 00       	nop
					Ya = (Acc_y/16384.0)*9.8066;
					Za = (Acc_z/16384.0)*9.8066;
					if(isDriverSleepingIR() && isDriverSleepingGyro(Xa,Ya,Za)){
						ringAlarm();
						onHazardLight();
						for(int i=1;i<=20;i++){
     e6c:	01 96       	adiw	r24, 0x01	; 1
     e6e:	85 31       	cpi	r24, 0x15	; 21
     e70:	91 05       	cpc	r25, r1
     e72:	64 f3       	brlt	.-40     	; 0xe4c <main+0x1d6>
								offHazardLight();
								goto start;
							}
							_delay_ms(250);
						}
						LCD_String("Sleeping");
     e74:	8d e0       	ldi	r24, 0x0D	; 13
     e76:	91 e0       	ldi	r25, 0x01	; 1
     e78:	0e 94 8a 01 	call	0x314	; 0x314 <LCD_String>
						getAllValuesGps();
     e7c:	0e 94 fc 05 	call	0xbf8	; 0xbf8 <getAllValuesGps>
						sendMessage("Driver is Sleeping",longtitude,latitude);
     e80:	4b ef       	ldi	r20, 0xFB	; 251
     e82:	51 e0       	ldi	r21, 0x01	; 1
     e84:	6c e1       	ldi	r22, 0x1C	; 28
     e86:	72 e0       	ldi	r23, 0x02	; 2
     e88:	83 e0       	ldi	r24, 0x03	; 3
     e8a:	91 e0       	ldi	r25, 0x01	; 1
     e8c:	0e 94 a4 04 	call	0x948	; 0x948 <sendMessage>
						playRadio();
     e90:	0e 94 f8 05 	call	0xbf0	; 0xbf0 <playRadio>
						//reduce speed of the vehicle
						OCR0=0;
     e94:	1c be       	out	0x3c, r1	; 60
     e96:	ff cf       	rjmp	.-2      	; 0xe96 <main+0x220>

00000e98 <USART_Init>:

#include "USART_Interrupt.h"

void USART_Init(unsigned long BAUDRATE)				/* USART initialize function */
{
	UCSRB |= (1 << RXEN) | (1 << TXEN) | (1 << RXCIE);				/* Enable USART transmitter and receiver */
     e98:	8a b1       	in	r24, 0x0a	; 10
     e9a:	88 69       	ori	r24, 0x98	; 152
     e9c:	8a b9       	out	0x0a, r24	; 10
	UCSRC |= (1 << URSEL)| (1 << UCSZ0) | (1 << UCSZ1);	/* Write USCRC for 8 bit data and 1 stop bit */
     e9e:	80 b5       	in	r24, 0x20	; 32
     ea0:	86 68       	ori	r24, 0x86	; 134
     ea2:	80 bd       	out	0x20, r24	; 32
	UBRRL = BAUD_PRESCALE;							/* Load UBRRL with lower 8 bit of prescale value */
     ea4:	83 e3       	ldi	r24, 0x33	; 51
     ea6:	89 b9       	out	0x09, r24	; 9
	UBRRH = (BAUD_PRESCALE >> 8);					/* Load UBRRH with upper 8 bit of prescale value */
     ea8:	10 bc       	out	0x20, r1	; 32
     eaa:	08 95       	ret

00000eac <__subsf3>:
     eac:	50 58       	subi	r21, 0x80	; 128

00000eae <__addsf3>:
     eae:	bb 27       	eor	r27, r27
     eb0:	aa 27       	eor	r26, r26
     eb2:	0e 94 6e 07 	call	0xedc	; 0xedc <__addsf3x>
     eb6:	0c 94 e8 08 	jmp	0x11d0	; 0x11d0 <__fp_round>
     eba:	0e 94 da 08 	call	0x11b4	; 0x11b4 <__fp_pscA>
     ebe:	38 f0       	brcs	.+14     	; 0xece <__addsf3+0x20>
     ec0:	0e 94 e1 08 	call	0x11c2	; 0x11c2 <__fp_pscB>
     ec4:	20 f0       	brcs	.+8      	; 0xece <__addsf3+0x20>
     ec6:	39 f4       	brne	.+14     	; 0xed6 <__addsf3+0x28>
     ec8:	9f 3f       	cpi	r25, 0xFF	; 255
     eca:	19 f4       	brne	.+6      	; 0xed2 <__addsf3+0x24>
     ecc:	26 f4       	brtc	.+8      	; 0xed6 <__addsf3+0x28>
     ece:	0c 94 d7 08 	jmp	0x11ae	; 0x11ae <__fp_nan>
     ed2:	0e f4       	brtc	.+2      	; 0xed6 <__addsf3+0x28>
     ed4:	e0 95       	com	r30
     ed6:	e7 fb       	bst	r30, 7
     ed8:	0c 94 d1 08 	jmp	0x11a2	; 0x11a2 <__fp_inf>

00000edc <__addsf3x>:
     edc:	e9 2f       	mov	r30, r25
     ede:	0e 94 f9 08 	call	0x11f2	; 0x11f2 <__fp_split3>
     ee2:	58 f3       	brcs	.-42     	; 0xeba <__addsf3+0xc>
     ee4:	ba 17       	cp	r27, r26
     ee6:	62 07       	cpc	r22, r18
     ee8:	73 07       	cpc	r23, r19
     eea:	84 07       	cpc	r24, r20
     eec:	95 07       	cpc	r25, r21
     eee:	20 f0       	brcs	.+8      	; 0xef8 <__addsf3x+0x1c>
     ef0:	79 f4       	brne	.+30     	; 0xf10 <__addsf3x+0x34>
     ef2:	a6 f5       	brtc	.+104    	; 0xf5c <__addsf3x+0x80>
     ef4:	0c 94 1b 09 	jmp	0x1236	; 0x1236 <__fp_zero>
     ef8:	0e f4       	brtc	.+2      	; 0xefc <__addsf3x+0x20>
     efa:	e0 95       	com	r30
     efc:	0b 2e       	mov	r0, r27
     efe:	ba 2f       	mov	r27, r26
     f00:	a0 2d       	mov	r26, r0
     f02:	0b 01       	movw	r0, r22
     f04:	b9 01       	movw	r22, r18
     f06:	90 01       	movw	r18, r0
     f08:	0c 01       	movw	r0, r24
     f0a:	ca 01       	movw	r24, r20
     f0c:	a0 01       	movw	r20, r0
     f0e:	11 24       	eor	r1, r1
     f10:	ff 27       	eor	r31, r31
     f12:	59 1b       	sub	r21, r25
     f14:	99 f0       	breq	.+38     	; 0xf3c <__addsf3x+0x60>
     f16:	59 3f       	cpi	r21, 0xF9	; 249
     f18:	50 f4       	brcc	.+20     	; 0xf2e <__addsf3x+0x52>
     f1a:	50 3e       	cpi	r21, 0xE0	; 224
     f1c:	68 f1       	brcs	.+90     	; 0xf78 <__addsf3x+0x9c>
     f1e:	1a 16       	cp	r1, r26
     f20:	f0 40       	sbci	r31, 0x00	; 0
     f22:	a2 2f       	mov	r26, r18
     f24:	23 2f       	mov	r18, r19
     f26:	34 2f       	mov	r19, r20
     f28:	44 27       	eor	r20, r20
     f2a:	58 5f       	subi	r21, 0xF8	; 248
     f2c:	f3 cf       	rjmp	.-26     	; 0xf14 <__addsf3x+0x38>
     f2e:	46 95       	lsr	r20
     f30:	37 95       	ror	r19
     f32:	27 95       	ror	r18
     f34:	a7 95       	ror	r26
     f36:	f0 40       	sbci	r31, 0x00	; 0
     f38:	53 95       	inc	r21
     f3a:	c9 f7       	brne	.-14     	; 0xf2e <__addsf3x+0x52>
     f3c:	7e f4       	brtc	.+30     	; 0xf5c <__addsf3x+0x80>
     f3e:	1f 16       	cp	r1, r31
     f40:	ba 0b       	sbc	r27, r26
     f42:	62 0b       	sbc	r22, r18
     f44:	73 0b       	sbc	r23, r19
     f46:	84 0b       	sbc	r24, r20
     f48:	ba f0       	brmi	.+46     	; 0xf78 <__addsf3x+0x9c>
     f4a:	91 50       	subi	r25, 0x01	; 1
     f4c:	a1 f0       	breq	.+40     	; 0xf76 <__addsf3x+0x9a>
     f4e:	ff 0f       	add	r31, r31
     f50:	bb 1f       	adc	r27, r27
     f52:	66 1f       	adc	r22, r22
     f54:	77 1f       	adc	r23, r23
     f56:	88 1f       	adc	r24, r24
     f58:	c2 f7       	brpl	.-16     	; 0xf4a <__addsf3x+0x6e>
     f5a:	0e c0       	rjmp	.+28     	; 0xf78 <__addsf3x+0x9c>
     f5c:	ba 0f       	add	r27, r26
     f5e:	62 1f       	adc	r22, r18
     f60:	73 1f       	adc	r23, r19
     f62:	84 1f       	adc	r24, r20
     f64:	48 f4       	brcc	.+18     	; 0xf78 <__addsf3x+0x9c>
     f66:	87 95       	ror	r24
     f68:	77 95       	ror	r23
     f6a:	67 95       	ror	r22
     f6c:	b7 95       	ror	r27
     f6e:	f7 95       	ror	r31
     f70:	9e 3f       	cpi	r25, 0xFE	; 254
     f72:	08 f0       	brcs	.+2      	; 0xf76 <__addsf3x+0x9a>
     f74:	b0 cf       	rjmp	.-160    	; 0xed6 <__addsf3+0x28>
     f76:	93 95       	inc	r25
     f78:	88 0f       	add	r24, r24
     f7a:	08 f0       	brcs	.+2      	; 0xf7e <__addsf3x+0xa2>
     f7c:	99 27       	eor	r25, r25
     f7e:	ee 0f       	add	r30, r30
     f80:	97 95       	ror	r25
     f82:	87 95       	ror	r24
     f84:	08 95       	ret

00000f86 <__cmpsf2>:
     f86:	0e 94 ad 08 	call	0x115a	; 0x115a <__fp_cmp>
     f8a:	08 f4       	brcc	.+2      	; 0xf8e <__cmpsf2+0x8>
     f8c:	81 e0       	ldi	r24, 0x01	; 1
     f8e:	08 95       	ret

00000f90 <__divsf3>:
     f90:	0e 94 dc 07 	call	0xfb8	; 0xfb8 <__divsf3x>
     f94:	0c 94 e8 08 	jmp	0x11d0	; 0x11d0 <__fp_round>
     f98:	0e 94 e1 08 	call	0x11c2	; 0x11c2 <__fp_pscB>
     f9c:	58 f0       	brcs	.+22     	; 0xfb4 <__divsf3+0x24>
     f9e:	0e 94 da 08 	call	0x11b4	; 0x11b4 <__fp_pscA>
     fa2:	40 f0       	brcs	.+16     	; 0xfb4 <__divsf3+0x24>
     fa4:	29 f4       	brne	.+10     	; 0xfb0 <__divsf3+0x20>
     fa6:	5f 3f       	cpi	r21, 0xFF	; 255
     fa8:	29 f0       	breq	.+10     	; 0xfb4 <__divsf3+0x24>
     faa:	0c 94 d1 08 	jmp	0x11a2	; 0x11a2 <__fp_inf>
     fae:	51 11       	cpse	r21, r1
     fb0:	0c 94 1c 09 	jmp	0x1238	; 0x1238 <__fp_szero>
     fb4:	0c 94 d7 08 	jmp	0x11ae	; 0x11ae <__fp_nan>

00000fb8 <__divsf3x>:
     fb8:	0e 94 f9 08 	call	0x11f2	; 0x11f2 <__fp_split3>
     fbc:	68 f3       	brcs	.-38     	; 0xf98 <__divsf3+0x8>

00000fbe <__divsf3_pse>:
     fbe:	99 23       	and	r25, r25
     fc0:	b1 f3       	breq	.-20     	; 0xfae <__divsf3+0x1e>
     fc2:	55 23       	and	r21, r21
     fc4:	91 f3       	breq	.-28     	; 0xfaa <__divsf3+0x1a>
     fc6:	95 1b       	sub	r25, r21
     fc8:	55 0b       	sbc	r21, r21
     fca:	bb 27       	eor	r27, r27
     fcc:	aa 27       	eor	r26, r26
     fce:	62 17       	cp	r22, r18
     fd0:	73 07       	cpc	r23, r19
     fd2:	84 07       	cpc	r24, r20
     fd4:	38 f0       	brcs	.+14     	; 0xfe4 <__divsf3_pse+0x26>
     fd6:	9f 5f       	subi	r25, 0xFF	; 255
     fd8:	5f 4f       	sbci	r21, 0xFF	; 255
     fda:	22 0f       	add	r18, r18
     fdc:	33 1f       	adc	r19, r19
     fde:	44 1f       	adc	r20, r20
     fe0:	aa 1f       	adc	r26, r26
     fe2:	a9 f3       	breq	.-22     	; 0xfce <__divsf3_pse+0x10>
     fe4:	35 d0       	rcall	.+106    	; 0x1050 <__divsf3_pse+0x92>
     fe6:	0e 2e       	mov	r0, r30
     fe8:	3a f0       	brmi	.+14     	; 0xff8 <__divsf3_pse+0x3a>
     fea:	e0 e8       	ldi	r30, 0x80	; 128
     fec:	32 d0       	rcall	.+100    	; 0x1052 <__divsf3_pse+0x94>
     fee:	91 50       	subi	r25, 0x01	; 1
     ff0:	50 40       	sbci	r21, 0x00	; 0
     ff2:	e6 95       	lsr	r30
     ff4:	00 1c       	adc	r0, r0
     ff6:	ca f7       	brpl	.-14     	; 0xfea <__divsf3_pse+0x2c>
     ff8:	2b d0       	rcall	.+86     	; 0x1050 <__divsf3_pse+0x92>
     ffa:	fe 2f       	mov	r31, r30
     ffc:	29 d0       	rcall	.+82     	; 0x1050 <__divsf3_pse+0x92>
     ffe:	66 0f       	add	r22, r22
    1000:	77 1f       	adc	r23, r23
    1002:	88 1f       	adc	r24, r24
    1004:	bb 1f       	adc	r27, r27
    1006:	26 17       	cp	r18, r22
    1008:	37 07       	cpc	r19, r23
    100a:	48 07       	cpc	r20, r24
    100c:	ab 07       	cpc	r26, r27
    100e:	b0 e8       	ldi	r27, 0x80	; 128
    1010:	09 f0       	breq	.+2      	; 0x1014 <__divsf3_pse+0x56>
    1012:	bb 0b       	sbc	r27, r27
    1014:	80 2d       	mov	r24, r0
    1016:	bf 01       	movw	r22, r30
    1018:	ff 27       	eor	r31, r31
    101a:	93 58       	subi	r25, 0x83	; 131
    101c:	5f 4f       	sbci	r21, 0xFF	; 255
    101e:	3a f0       	brmi	.+14     	; 0x102e <__divsf3_pse+0x70>
    1020:	9e 3f       	cpi	r25, 0xFE	; 254
    1022:	51 05       	cpc	r21, r1
    1024:	78 f0       	brcs	.+30     	; 0x1044 <__divsf3_pse+0x86>
    1026:	0c 94 d1 08 	jmp	0x11a2	; 0x11a2 <__fp_inf>
    102a:	0c 94 1c 09 	jmp	0x1238	; 0x1238 <__fp_szero>
    102e:	5f 3f       	cpi	r21, 0xFF	; 255
    1030:	e4 f3       	brlt	.-8      	; 0x102a <__divsf3_pse+0x6c>
    1032:	98 3e       	cpi	r25, 0xE8	; 232
    1034:	d4 f3       	brlt	.-12     	; 0x102a <__divsf3_pse+0x6c>
    1036:	86 95       	lsr	r24
    1038:	77 95       	ror	r23
    103a:	67 95       	ror	r22
    103c:	b7 95       	ror	r27
    103e:	f7 95       	ror	r31
    1040:	9f 5f       	subi	r25, 0xFF	; 255
    1042:	c9 f7       	brne	.-14     	; 0x1036 <__divsf3_pse+0x78>
    1044:	88 0f       	add	r24, r24
    1046:	91 1d       	adc	r25, r1
    1048:	96 95       	lsr	r25
    104a:	87 95       	ror	r24
    104c:	97 f9       	bld	r25, 7
    104e:	08 95       	ret
    1050:	e1 e0       	ldi	r30, 0x01	; 1
    1052:	66 0f       	add	r22, r22
    1054:	77 1f       	adc	r23, r23
    1056:	88 1f       	adc	r24, r24
    1058:	bb 1f       	adc	r27, r27
    105a:	62 17       	cp	r22, r18
    105c:	73 07       	cpc	r23, r19
    105e:	84 07       	cpc	r24, r20
    1060:	ba 07       	cpc	r27, r26
    1062:	20 f0       	brcs	.+8      	; 0x106c <__divsf3_pse+0xae>
    1064:	62 1b       	sub	r22, r18
    1066:	73 0b       	sbc	r23, r19
    1068:	84 0b       	sbc	r24, r20
    106a:	ba 0b       	sbc	r27, r26
    106c:	ee 1f       	adc	r30, r30
    106e:	88 f7       	brcc	.-30     	; 0x1052 <__divsf3_pse+0x94>
    1070:	e0 95       	com	r30
    1072:	08 95       	ret

00001074 <__fixsfsi>:
    1074:	0e 94 41 08 	call	0x1082	; 0x1082 <__fixunssfsi>
    1078:	68 94       	set
    107a:	b1 11       	cpse	r27, r1
    107c:	0c 94 1c 09 	jmp	0x1238	; 0x1238 <__fp_szero>
    1080:	08 95       	ret

00001082 <__fixunssfsi>:
    1082:	0e 94 01 09 	call	0x1202	; 0x1202 <__fp_splitA>
    1086:	88 f0       	brcs	.+34     	; 0x10aa <__fixunssfsi+0x28>
    1088:	9f 57       	subi	r25, 0x7F	; 127
    108a:	98 f0       	brcs	.+38     	; 0x10b2 <__fixunssfsi+0x30>
    108c:	b9 2f       	mov	r27, r25
    108e:	99 27       	eor	r25, r25
    1090:	b7 51       	subi	r27, 0x17	; 23
    1092:	b0 f0       	brcs	.+44     	; 0x10c0 <__fixunssfsi+0x3e>
    1094:	e1 f0       	breq	.+56     	; 0x10ce <__fixunssfsi+0x4c>
    1096:	66 0f       	add	r22, r22
    1098:	77 1f       	adc	r23, r23
    109a:	88 1f       	adc	r24, r24
    109c:	99 1f       	adc	r25, r25
    109e:	1a f0       	brmi	.+6      	; 0x10a6 <__fixunssfsi+0x24>
    10a0:	ba 95       	dec	r27
    10a2:	c9 f7       	brne	.-14     	; 0x1096 <__fixunssfsi+0x14>
    10a4:	14 c0       	rjmp	.+40     	; 0x10ce <__fixunssfsi+0x4c>
    10a6:	b1 30       	cpi	r27, 0x01	; 1
    10a8:	91 f0       	breq	.+36     	; 0x10ce <__fixunssfsi+0x4c>
    10aa:	0e 94 1b 09 	call	0x1236	; 0x1236 <__fp_zero>
    10ae:	b1 e0       	ldi	r27, 0x01	; 1
    10b0:	08 95       	ret
    10b2:	0c 94 1b 09 	jmp	0x1236	; 0x1236 <__fp_zero>
    10b6:	67 2f       	mov	r22, r23
    10b8:	78 2f       	mov	r23, r24
    10ba:	88 27       	eor	r24, r24
    10bc:	b8 5f       	subi	r27, 0xF8	; 248
    10be:	39 f0       	breq	.+14     	; 0x10ce <__fixunssfsi+0x4c>
    10c0:	b9 3f       	cpi	r27, 0xF9	; 249
    10c2:	cc f3       	brlt	.-14     	; 0x10b6 <__fixunssfsi+0x34>
    10c4:	86 95       	lsr	r24
    10c6:	77 95       	ror	r23
    10c8:	67 95       	ror	r22
    10ca:	b3 95       	inc	r27
    10cc:	d9 f7       	brne	.-10     	; 0x10c4 <__fixunssfsi+0x42>
    10ce:	3e f4       	brtc	.+14     	; 0x10de <__fixunssfsi+0x5c>
    10d0:	90 95       	com	r25
    10d2:	80 95       	com	r24
    10d4:	70 95       	com	r23
    10d6:	61 95       	neg	r22
    10d8:	7f 4f       	sbci	r23, 0xFF	; 255
    10da:	8f 4f       	sbci	r24, 0xFF	; 255
    10dc:	9f 4f       	sbci	r25, 0xFF	; 255
    10de:	08 95       	ret

000010e0 <__floatunsisf>:
    10e0:	e8 94       	clt
    10e2:	09 c0       	rjmp	.+18     	; 0x10f6 <__floatsisf+0x12>

000010e4 <__floatsisf>:
    10e4:	97 fb       	bst	r25, 7
    10e6:	3e f4       	brtc	.+14     	; 0x10f6 <__floatsisf+0x12>
    10e8:	90 95       	com	r25
    10ea:	80 95       	com	r24
    10ec:	70 95       	com	r23
    10ee:	61 95       	neg	r22
    10f0:	7f 4f       	sbci	r23, 0xFF	; 255
    10f2:	8f 4f       	sbci	r24, 0xFF	; 255
    10f4:	9f 4f       	sbci	r25, 0xFF	; 255
    10f6:	99 23       	and	r25, r25
    10f8:	a9 f0       	breq	.+42     	; 0x1124 <__floatsisf+0x40>
    10fa:	f9 2f       	mov	r31, r25
    10fc:	96 e9       	ldi	r25, 0x96	; 150
    10fe:	bb 27       	eor	r27, r27
    1100:	93 95       	inc	r25
    1102:	f6 95       	lsr	r31
    1104:	87 95       	ror	r24
    1106:	77 95       	ror	r23
    1108:	67 95       	ror	r22
    110a:	b7 95       	ror	r27
    110c:	f1 11       	cpse	r31, r1
    110e:	f8 cf       	rjmp	.-16     	; 0x1100 <__floatsisf+0x1c>
    1110:	fa f4       	brpl	.+62     	; 0x1150 <__floatsisf+0x6c>
    1112:	bb 0f       	add	r27, r27
    1114:	11 f4       	brne	.+4      	; 0x111a <__floatsisf+0x36>
    1116:	60 ff       	sbrs	r22, 0
    1118:	1b c0       	rjmp	.+54     	; 0x1150 <__floatsisf+0x6c>
    111a:	6f 5f       	subi	r22, 0xFF	; 255
    111c:	7f 4f       	sbci	r23, 0xFF	; 255
    111e:	8f 4f       	sbci	r24, 0xFF	; 255
    1120:	9f 4f       	sbci	r25, 0xFF	; 255
    1122:	16 c0       	rjmp	.+44     	; 0x1150 <__floatsisf+0x6c>
    1124:	88 23       	and	r24, r24
    1126:	11 f0       	breq	.+4      	; 0x112c <__floatsisf+0x48>
    1128:	96 e9       	ldi	r25, 0x96	; 150
    112a:	11 c0       	rjmp	.+34     	; 0x114e <__floatsisf+0x6a>
    112c:	77 23       	and	r23, r23
    112e:	21 f0       	breq	.+8      	; 0x1138 <__floatsisf+0x54>
    1130:	9e e8       	ldi	r25, 0x8E	; 142
    1132:	87 2f       	mov	r24, r23
    1134:	76 2f       	mov	r23, r22
    1136:	05 c0       	rjmp	.+10     	; 0x1142 <__floatsisf+0x5e>
    1138:	66 23       	and	r22, r22
    113a:	71 f0       	breq	.+28     	; 0x1158 <__floatsisf+0x74>
    113c:	96 e8       	ldi	r25, 0x86	; 134
    113e:	86 2f       	mov	r24, r22
    1140:	70 e0       	ldi	r23, 0x00	; 0
    1142:	60 e0       	ldi	r22, 0x00	; 0
    1144:	2a f0       	brmi	.+10     	; 0x1150 <__floatsisf+0x6c>
    1146:	9a 95       	dec	r25
    1148:	66 0f       	add	r22, r22
    114a:	77 1f       	adc	r23, r23
    114c:	88 1f       	adc	r24, r24
    114e:	da f7       	brpl	.-10     	; 0x1146 <__floatsisf+0x62>
    1150:	88 0f       	add	r24, r24
    1152:	96 95       	lsr	r25
    1154:	87 95       	ror	r24
    1156:	97 f9       	bld	r25, 7
    1158:	08 95       	ret

0000115a <__fp_cmp>:
    115a:	99 0f       	add	r25, r25
    115c:	00 08       	sbc	r0, r0
    115e:	55 0f       	add	r21, r21
    1160:	aa 0b       	sbc	r26, r26
    1162:	e0 e8       	ldi	r30, 0x80	; 128
    1164:	fe ef       	ldi	r31, 0xFE	; 254
    1166:	16 16       	cp	r1, r22
    1168:	17 06       	cpc	r1, r23
    116a:	e8 07       	cpc	r30, r24
    116c:	f9 07       	cpc	r31, r25
    116e:	c0 f0       	brcs	.+48     	; 0x11a0 <__fp_cmp+0x46>
    1170:	12 16       	cp	r1, r18
    1172:	13 06       	cpc	r1, r19
    1174:	e4 07       	cpc	r30, r20
    1176:	f5 07       	cpc	r31, r21
    1178:	98 f0       	brcs	.+38     	; 0x11a0 <__fp_cmp+0x46>
    117a:	62 1b       	sub	r22, r18
    117c:	73 0b       	sbc	r23, r19
    117e:	84 0b       	sbc	r24, r20
    1180:	95 0b       	sbc	r25, r21
    1182:	39 f4       	brne	.+14     	; 0x1192 <__fp_cmp+0x38>
    1184:	0a 26       	eor	r0, r26
    1186:	61 f0       	breq	.+24     	; 0x11a0 <__fp_cmp+0x46>
    1188:	23 2b       	or	r18, r19
    118a:	24 2b       	or	r18, r20
    118c:	25 2b       	or	r18, r21
    118e:	21 f4       	brne	.+8      	; 0x1198 <__fp_cmp+0x3e>
    1190:	08 95       	ret
    1192:	0a 26       	eor	r0, r26
    1194:	09 f4       	brne	.+2      	; 0x1198 <__fp_cmp+0x3e>
    1196:	a1 40       	sbci	r26, 0x01	; 1
    1198:	a6 95       	lsr	r26
    119a:	8f ef       	ldi	r24, 0xFF	; 255
    119c:	81 1d       	adc	r24, r1
    119e:	81 1d       	adc	r24, r1
    11a0:	08 95       	ret

000011a2 <__fp_inf>:
    11a2:	97 f9       	bld	r25, 7
    11a4:	9f 67       	ori	r25, 0x7F	; 127
    11a6:	80 e8       	ldi	r24, 0x80	; 128
    11a8:	70 e0       	ldi	r23, 0x00	; 0
    11aa:	60 e0       	ldi	r22, 0x00	; 0
    11ac:	08 95       	ret

000011ae <__fp_nan>:
    11ae:	9f ef       	ldi	r25, 0xFF	; 255
    11b0:	80 ec       	ldi	r24, 0xC0	; 192
    11b2:	08 95       	ret

000011b4 <__fp_pscA>:
    11b4:	00 24       	eor	r0, r0
    11b6:	0a 94       	dec	r0
    11b8:	16 16       	cp	r1, r22
    11ba:	17 06       	cpc	r1, r23
    11bc:	18 06       	cpc	r1, r24
    11be:	09 06       	cpc	r0, r25
    11c0:	08 95       	ret

000011c2 <__fp_pscB>:
    11c2:	00 24       	eor	r0, r0
    11c4:	0a 94       	dec	r0
    11c6:	12 16       	cp	r1, r18
    11c8:	13 06       	cpc	r1, r19
    11ca:	14 06       	cpc	r1, r20
    11cc:	05 06       	cpc	r0, r21
    11ce:	08 95       	ret

000011d0 <__fp_round>:
    11d0:	09 2e       	mov	r0, r25
    11d2:	03 94       	inc	r0
    11d4:	00 0c       	add	r0, r0
    11d6:	11 f4       	brne	.+4      	; 0x11dc <__fp_round+0xc>
    11d8:	88 23       	and	r24, r24
    11da:	52 f0       	brmi	.+20     	; 0x11f0 <__fp_round+0x20>
    11dc:	bb 0f       	add	r27, r27
    11de:	40 f4       	brcc	.+16     	; 0x11f0 <__fp_round+0x20>
    11e0:	bf 2b       	or	r27, r31
    11e2:	11 f4       	brne	.+4      	; 0x11e8 <__fp_round+0x18>
    11e4:	60 ff       	sbrs	r22, 0
    11e6:	04 c0       	rjmp	.+8      	; 0x11f0 <__fp_round+0x20>
    11e8:	6f 5f       	subi	r22, 0xFF	; 255
    11ea:	7f 4f       	sbci	r23, 0xFF	; 255
    11ec:	8f 4f       	sbci	r24, 0xFF	; 255
    11ee:	9f 4f       	sbci	r25, 0xFF	; 255
    11f0:	08 95       	ret

000011f2 <__fp_split3>:
    11f2:	57 fd       	sbrc	r21, 7
    11f4:	90 58       	subi	r25, 0x80	; 128
    11f6:	44 0f       	add	r20, r20
    11f8:	55 1f       	adc	r21, r21
    11fa:	59 f0       	breq	.+22     	; 0x1212 <__fp_splitA+0x10>
    11fc:	5f 3f       	cpi	r21, 0xFF	; 255
    11fe:	71 f0       	breq	.+28     	; 0x121c <__fp_splitA+0x1a>
    1200:	47 95       	ror	r20

00001202 <__fp_splitA>:
    1202:	88 0f       	add	r24, r24
    1204:	97 fb       	bst	r25, 7
    1206:	99 1f       	adc	r25, r25
    1208:	61 f0       	breq	.+24     	; 0x1222 <__fp_splitA+0x20>
    120a:	9f 3f       	cpi	r25, 0xFF	; 255
    120c:	79 f0       	breq	.+30     	; 0x122c <__fp_splitA+0x2a>
    120e:	87 95       	ror	r24
    1210:	08 95       	ret
    1212:	12 16       	cp	r1, r18
    1214:	13 06       	cpc	r1, r19
    1216:	14 06       	cpc	r1, r20
    1218:	55 1f       	adc	r21, r21
    121a:	f2 cf       	rjmp	.-28     	; 0x1200 <__fp_split3+0xe>
    121c:	46 95       	lsr	r20
    121e:	f1 df       	rcall	.-30     	; 0x1202 <__fp_splitA>
    1220:	08 c0       	rjmp	.+16     	; 0x1232 <__fp_splitA+0x30>
    1222:	16 16       	cp	r1, r22
    1224:	17 06       	cpc	r1, r23
    1226:	18 06       	cpc	r1, r24
    1228:	99 1f       	adc	r25, r25
    122a:	f1 cf       	rjmp	.-30     	; 0x120e <__fp_splitA+0xc>
    122c:	86 95       	lsr	r24
    122e:	71 05       	cpc	r23, r1
    1230:	61 05       	cpc	r22, r1
    1232:	08 94       	sec
    1234:	08 95       	ret

00001236 <__fp_zero>:
    1236:	e8 94       	clt

00001238 <__fp_szero>:
    1238:	bb 27       	eor	r27, r27
    123a:	66 27       	eor	r22, r22
    123c:	77 27       	eor	r23, r23
    123e:	cb 01       	movw	r24, r22
    1240:	97 f9       	bld	r25, 7
    1242:	08 95       	ret

00001244 <__gesf2>:
    1244:	0e 94 ad 08 	call	0x115a	; 0x115a <__fp_cmp>
    1248:	08 f4       	brcc	.+2      	; 0x124c <__gesf2+0x8>
    124a:	8f ef       	ldi	r24, 0xFF	; 255
    124c:	08 95       	ret

0000124e <__mulsf3>:
    124e:	0e 94 3a 09 	call	0x1274	; 0x1274 <__mulsf3x>
    1252:	0c 94 e8 08 	jmp	0x11d0	; 0x11d0 <__fp_round>
    1256:	0e 94 da 08 	call	0x11b4	; 0x11b4 <__fp_pscA>
    125a:	38 f0       	brcs	.+14     	; 0x126a <__mulsf3+0x1c>
    125c:	0e 94 e1 08 	call	0x11c2	; 0x11c2 <__fp_pscB>
    1260:	20 f0       	brcs	.+8      	; 0x126a <__mulsf3+0x1c>
    1262:	95 23       	and	r25, r21
    1264:	11 f0       	breq	.+4      	; 0x126a <__mulsf3+0x1c>
    1266:	0c 94 d1 08 	jmp	0x11a2	; 0x11a2 <__fp_inf>
    126a:	0c 94 d7 08 	jmp	0x11ae	; 0x11ae <__fp_nan>
    126e:	11 24       	eor	r1, r1
    1270:	0c 94 1c 09 	jmp	0x1238	; 0x1238 <__fp_szero>

00001274 <__mulsf3x>:
    1274:	0e 94 f9 08 	call	0x11f2	; 0x11f2 <__fp_split3>
    1278:	70 f3       	brcs	.-36     	; 0x1256 <__mulsf3+0x8>

0000127a <__mulsf3_pse>:
    127a:	95 9f       	mul	r25, r21
    127c:	c1 f3       	breq	.-16     	; 0x126e <__mulsf3+0x20>
    127e:	95 0f       	add	r25, r21
    1280:	50 e0       	ldi	r21, 0x00	; 0
    1282:	55 1f       	adc	r21, r21
    1284:	62 9f       	mul	r22, r18
    1286:	f0 01       	movw	r30, r0
    1288:	72 9f       	mul	r23, r18
    128a:	bb 27       	eor	r27, r27
    128c:	f0 0d       	add	r31, r0
    128e:	b1 1d       	adc	r27, r1
    1290:	63 9f       	mul	r22, r19
    1292:	aa 27       	eor	r26, r26
    1294:	f0 0d       	add	r31, r0
    1296:	b1 1d       	adc	r27, r1
    1298:	aa 1f       	adc	r26, r26
    129a:	64 9f       	mul	r22, r20
    129c:	66 27       	eor	r22, r22
    129e:	b0 0d       	add	r27, r0
    12a0:	a1 1d       	adc	r26, r1
    12a2:	66 1f       	adc	r22, r22
    12a4:	82 9f       	mul	r24, r18
    12a6:	22 27       	eor	r18, r18
    12a8:	b0 0d       	add	r27, r0
    12aa:	a1 1d       	adc	r26, r1
    12ac:	62 1f       	adc	r22, r18
    12ae:	73 9f       	mul	r23, r19
    12b0:	b0 0d       	add	r27, r0
    12b2:	a1 1d       	adc	r26, r1
    12b4:	62 1f       	adc	r22, r18
    12b6:	83 9f       	mul	r24, r19
    12b8:	a0 0d       	add	r26, r0
    12ba:	61 1d       	adc	r22, r1
    12bc:	22 1f       	adc	r18, r18
    12be:	74 9f       	mul	r23, r20
    12c0:	33 27       	eor	r19, r19
    12c2:	a0 0d       	add	r26, r0
    12c4:	61 1d       	adc	r22, r1
    12c6:	23 1f       	adc	r18, r19
    12c8:	84 9f       	mul	r24, r20
    12ca:	60 0d       	add	r22, r0
    12cc:	21 1d       	adc	r18, r1
    12ce:	82 2f       	mov	r24, r18
    12d0:	76 2f       	mov	r23, r22
    12d2:	6a 2f       	mov	r22, r26
    12d4:	11 24       	eor	r1, r1
    12d6:	9f 57       	subi	r25, 0x7F	; 127
    12d8:	50 40       	sbci	r21, 0x00	; 0
    12da:	9a f0       	brmi	.+38     	; 0x1302 <__mulsf3_pse+0x88>
    12dc:	f1 f0       	breq	.+60     	; 0x131a <__mulsf3_pse+0xa0>
    12de:	88 23       	and	r24, r24
    12e0:	4a f0       	brmi	.+18     	; 0x12f4 <__mulsf3_pse+0x7a>
    12e2:	ee 0f       	add	r30, r30
    12e4:	ff 1f       	adc	r31, r31
    12e6:	bb 1f       	adc	r27, r27
    12e8:	66 1f       	adc	r22, r22
    12ea:	77 1f       	adc	r23, r23
    12ec:	88 1f       	adc	r24, r24
    12ee:	91 50       	subi	r25, 0x01	; 1
    12f0:	50 40       	sbci	r21, 0x00	; 0
    12f2:	a9 f7       	brne	.-22     	; 0x12de <__mulsf3_pse+0x64>
    12f4:	9e 3f       	cpi	r25, 0xFE	; 254
    12f6:	51 05       	cpc	r21, r1
    12f8:	80 f0       	brcs	.+32     	; 0x131a <__mulsf3_pse+0xa0>
    12fa:	0c 94 d1 08 	jmp	0x11a2	; 0x11a2 <__fp_inf>
    12fe:	0c 94 1c 09 	jmp	0x1238	; 0x1238 <__fp_szero>
    1302:	5f 3f       	cpi	r21, 0xFF	; 255
    1304:	e4 f3       	brlt	.-8      	; 0x12fe <__mulsf3_pse+0x84>
    1306:	98 3e       	cpi	r25, 0xE8	; 232
    1308:	d4 f3       	brlt	.-12     	; 0x12fe <__mulsf3_pse+0x84>
    130a:	86 95       	lsr	r24
    130c:	77 95       	ror	r23
    130e:	67 95       	ror	r22
    1310:	b7 95       	ror	r27
    1312:	f7 95       	ror	r31
    1314:	e7 95       	ror	r30
    1316:	9f 5f       	subi	r25, 0xFF	; 255
    1318:	c1 f7       	brne	.-16     	; 0x130a <__mulsf3_pse+0x90>
    131a:	fe 2b       	or	r31, r30
    131c:	88 0f       	add	r24, r24
    131e:	91 1d       	adc	r25, r1
    1320:	96 95       	lsr	r25
    1322:	87 95       	ror	r24
    1324:	97 f9       	bld	r25, 7
    1326:	08 95       	ret

00001328 <__udivmodsi4>:
    1328:	a1 e2       	ldi	r26, 0x21	; 33
    132a:	1a 2e       	mov	r1, r26
    132c:	aa 1b       	sub	r26, r26
    132e:	bb 1b       	sub	r27, r27
    1330:	fd 01       	movw	r30, r26
    1332:	0d c0       	rjmp	.+26     	; 0x134e <__udivmodsi4_ep>

00001334 <__udivmodsi4_loop>:
    1334:	aa 1f       	adc	r26, r26
    1336:	bb 1f       	adc	r27, r27
    1338:	ee 1f       	adc	r30, r30
    133a:	ff 1f       	adc	r31, r31
    133c:	a2 17       	cp	r26, r18
    133e:	b3 07       	cpc	r27, r19
    1340:	e4 07       	cpc	r30, r20
    1342:	f5 07       	cpc	r31, r21
    1344:	20 f0       	brcs	.+8      	; 0x134e <__udivmodsi4_ep>
    1346:	a2 1b       	sub	r26, r18
    1348:	b3 0b       	sbc	r27, r19
    134a:	e4 0b       	sbc	r30, r20
    134c:	f5 0b       	sbc	r31, r21

0000134e <__udivmodsi4_ep>:
    134e:	66 1f       	adc	r22, r22
    1350:	77 1f       	adc	r23, r23
    1352:	88 1f       	adc	r24, r24
    1354:	99 1f       	adc	r25, r25
    1356:	1a 94       	dec	r1
    1358:	69 f7       	brne	.-38     	; 0x1334 <__udivmodsi4_loop>
    135a:	60 95       	com	r22
    135c:	70 95       	com	r23
    135e:	80 95       	com	r24
    1360:	90 95       	com	r25
    1362:	9b 01       	movw	r18, r22
    1364:	ac 01       	movw	r20, r24
    1366:	bd 01       	movw	r22, r26
    1368:	cf 01       	movw	r24, r30
    136a:	08 95       	ret

0000136c <dtostrf>:
    136c:	ef 92       	push	r14
    136e:	0f 93       	push	r16
    1370:	1f 93       	push	r17
    1372:	cf 93       	push	r28
    1374:	df 93       	push	r29
    1376:	e8 01       	movw	r28, r16
    1378:	47 fd       	sbrc	r20, 7
    137a:	02 c0       	rjmp	.+4      	; 0x1380 <dtostrf+0x14>
    137c:	34 e0       	ldi	r19, 0x04	; 4
    137e:	01 c0       	rjmp	.+2      	; 0x1382 <dtostrf+0x16>
    1380:	34 e1       	ldi	r19, 0x14	; 20
    1382:	04 2e       	mov	r0, r20
    1384:	00 0c       	add	r0, r0
    1386:	55 0b       	sbc	r21, r21
    1388:	57 ff       	sbrs	r21, 7
    138a:	03 c0       	rjmp	.+6      	; 0x1392 <dtostrf+0x26>
    138c:	51 95       	neg	r21
    138e:	41 95       	neg	r20
    1390:	51 09       	sbc	r21, r1
    1392:	e3 2e       	mov	r14, r19
    1394:	02 2f       	mov	r16, r18
    1396:	24 2f       	mov	r18, r20
    1398:	ae 01       	movw	r20, r28
    139a:	0e 94 2b 0c 	call	0x1856	; 0x1856 <dtoa_prf>
    139e:	ce 01       	movw	r24, r28
    13a0:	df 91       	pop	r29
    13a2:	cf 91       	pop	r28
    13a4:	1f 91       	pop	r17
    13a6:	0f 91       	pop	r16
    13a8:	ef 90       	pop	r14
    13aa:	08 95       	ret

000013ac <atof>:
    13ac:	66 27       	eor	r22, r22
    13ae:	77 27       	eor	r23, r23
    13b0:	0c 94 85 0d 	jmp	0x1b0a	; 0x1b0a <strtod>

000013b4 <atol>:
    13b4:	1f 93       	push	r17
    13b6:	fc 01       	movw	r30, r24
    13b8:	99 27       	eor	r25, r25
    13ba:	88 27       	eor	r24, r24
    13bc:	bc 01       	movw	r22, r24
    13be:	e8 94       	clt
    13c0:	11 91       	ld	r17, Z+
    13c2:	10 32       	cpi	r17, 0x20	; 32
    13c4:	e9 f3       	breq	.-6      	; 0x13c0 <atol+0xc>
    13c6:	19 30       	cpi	r17, 0x09	; 9
    13c8:	10 f0       	brcs	.+4      	; 0x13ce <atol+0x1a>
    13ca:	1e 30       	cpi	r17, 0x0E	; 14
    13cc:	c8 f3       	brcs	.-14     	; 0x13c0 <atol+0xc>
    13ce:	1b 32       	cpi	r17, 0x2B	; 43
    13d0:	51 f0       	breq	.+20     	; 0x13e6 <atol+0x32>
    13d2:	1d 32       	cpi	r17, 0x2D	; 45
    13d4:	49 f4       	brne	.+18     	; 0x13e8 <atol+0x34>
    13d6:	68 94       	set
    13d8:	06 c0       	rjmp	.+12     	; 0x13e6 <atol+0x32>
    13da:	0e 94 13 0a 	call	0x1426	; 0x1426 <__mulsi_const_10>
    13de:	61 0f       	add	r22, r17
    13e0:	71 1d       	adc	r23, r1
    13e2:	81 1d       	adc	r24, r1
    13e4:	91 1d       	adc	r25, r1
    13e6:	11 91       	ld	r17, Z+
    13e8:	10 53       	subi	r17, 0x30	; 48
    13ea:	1a 30       	cpi	r17, 0x0A	; 10
    13ec:	b0 f3       	brcs	.-20     	; 0x13da <atol+0x26>
    13ee:	3e f4       	brtc	.+14     	; 0x13fe <atol+0x4a>
    13f0:	90 95       	com	r25
    13f2:	80 95       	com	r24
    13f4:	70 95       	com	r23
    13f6:	61 95       	neg	r22
    13f8:	7f 4f       	sbci	r23, 0xFF	; 255
    13fa:	8f 4f       	sbci	r24, 0xFF	; 255
    13fc:	9f 4f       	sbci	r25, 0xFF	; 255
    13fe:	1f 91       	pop	r17
    1400:	08 95       	ret

00001402 <strcat>:
    1402:	fb 01       	movw	r30, r22
    1404:	dc 01       	movw	r26, r24
    1406:	0d 90       	ld	r0, X+
    1408:	00 20       	and	r0, r0
    140a:	e9 f7       	brne	.-6      	; 0x1406 <strcat+0x4>
    140c:	11 97       	sbiw	r26, 0x01	; 1
    140e:	01 90       	ld	r0, Z+
    1410:	0d 92       	st	X+, r0
    1412:	00 20       	and	r0, r0
    1414:	e1 f7       	brne	.-8      	; 0x140e <strcat+0xc>
    1416:	08 95       	ret

00001418 <strcpy>:
    1418:	fb 01       	movw	r30, r22
    141a:	dc 01       	movw	r26, r24
    141c:	01 90       	ld	r0, Z+
    141e:	0d 92       	st	X+, r0
    1420:	00 20       	and	r0, r0
    1422:	e1 f7       	brne	.-8      	; 0x141c <strcpy+0x4>
    1424:	08 95       	ret

00001426 <__mulsi_const_10>:
    1426:	59 2f       	mov	r21, r25
    1428:	48 2f       	mov	r20, r24
    142a:	37 2f       	mov	r19, r23
    142c:	26 2f       	mov	r18, r22
    142e:	66 0f       	add	r22, r22
    1430:	77 1f       	adc	r23, r23
    1432:	88 1f       	adc	r24, r24
    1434:	99 1f       	adc	r25, r25
    1436:	66 0f       	add	r22, r22
    1438:	77 1f       	adc	r23, r23
    143a:	88 1f       	adc	r24, r24
    143c:	99 1f       	adc	r25, r25
    143e:	62 0f       	add	r22, r18
    1440:	73 1f       	adc	r23, r19
    1442:	84 1f       	adc	r24, r20
    1444:	95 1f       	adc	r25, r21
    1446:	66 0f       	add	r22, r22
    1448:	77 1f       	adc	r23, r23
    144a:	88 1f       	adc	r24, r24
    144c:	99 1f       	adc	r25, r25
    144e:	08 95       	ret

00001450 <sprintf>:
    1450:	ae e0       	ldi	r26, 0x0E	; 14
    1452:	b0 e0       	ldi	r27, 0x00	; 0
    1454:	ee e2       	ldi	r30, 0x2E	; 46
    1456:	fa e0       	ldi	r31, 0x0A	; 10
    1458:	0c 94 98 10 	jmp	0x2130	; 0x2130 <__prologue_saves__+0x1c>
    145c:	0d 89       	ldd	r16, Y+21	; 0x15
    145e:	1e 89       	ldd	r17, Y+22	; 0x16
    1460:	86 e0       	ldi	r24, 0x06	; 6
    1462:	8c 83       	std	Y+4, r24	; 0x04
    1464:	1a 83       	std	Y+2, r17	; 0x02
    1466:	09 83       	std	Y+1, r16	; 0x01
    1468:	8f ef       	ldi	r24, 0xFF	; 255
    146a:	9f e7       	ldi	r25, 0x7F	; 127
    146c:	9e 83       	std	Y+6, r25	; 0x06
    146e:	8d 83       	std	Y+5, r24	; 0x05
    1470:	ae 01       	movw	r20, r28
    1472:	47 5e       	subi	r20, 0xE7	; 231
    1474:	5f 4f       	sbci	r21, 0xFF	; 255
    1476:	6f 89       	ldd	r22, Y+23	; 0x17
    1478:	78 8d       	ldd	r23, Y+24	; 0x18
    147a:	ce 01       	movw	r24, r28
    147c:	01 96       	adiw	r24, 0x01	; 1
    147e:	0e 94 4a 0a 	call	0x1494	; 0x1494 <vfprintf>
    1482:	ef 81       	ldd	r30, Y+7	; 0x07
    1484:	f8 85       	ldd	r31, Y+8	; 0x08
    1486:	e0 0f       	add	r30, r16
    1488:	f1 1f       	adc	r31, r17
    148a:	10 82       	st	Z, r1
    148c:	2e 96       	adiw	r28, 0x0e	; 14
    148e:	e4 e0       	ldi	r30, 0x04	; 4
    1490:	0c 94 b4 10 	jmp	0x2168	; 0x2168 <__epilogue_restores__+0x1c>

00001494 <vfprintf>:
    1494:	ab e0       	ldi	r26, 0x0B	; 11
    1496:	b0 e0       	ldi	r27, 0x00	; 0
    1498:	e0 e5       	ldi	r30, 0x50	; 80
    149a:	fa e0       	ldi	r31, 0x0A	; 10
    149c:	0c 94 8a 10 	jmp	0x2114	; 0x2114 <__prologue_saves__>
    14a0:	6c 01       	movw	r12, r24
    14a2:	7b 01       	movw	r14, r22
    14a4:	8a 01       	movw	r16, r20
    14a6:	fc 01       	movw	r30, r24
    14a8:	17 82       	std	Z+7, r1	; 0x07
    14aa:	16 82       	std	Z+6, r1	; 0x06
    14ac:	83 81       	ldd	r24, Z+3	; 0x03
    14ae:	81 ff       	sbrs	r24, 1
    14b0:	cc c1       	rjmp	.+920    	; 0x184a <vfprintf+0x3b6>
    14b2:	ce 01       	movw	r24, r28
    14b4:	01 96       	adiw	r24, 0x01	; 1
    14b6:	3c 01       	movw	r6, r24
    14b8:	f6 01       	movw	r30, r12
    14ba:	93 81       	ldd	r25, Z+3	; 0x03
    14bc:	f7 01       	movw	r30, r14
    14be:	93 fd       	sbrc	r25, 3
    14c0:	85 91       	lpm	r24, Z+
    14c2:	93 ff       	sbrs	r25, 3
    14c4:	81 91       	ld	r24, Z+
    14c6:	7f 01       	movw	r14, r30
    14c8:	88 23       	and	r24, r24
    14ca:	09 f4       	brne	.+2      	; 0x14ce <vfprintf+0x3a>
    14cc:	ba c1       	rjmp	.+884    	; 0x1842 <vfprintf+0x3ae>
    14ce:	85 32       	cpi	r24, 0x25	; 37
    14d0:	39 f4       	brne	.+14     	; 0x14e0 <vfprintf+0x4c>
    14d2:	93 fd       	sbrc	r25, 3
    14d4:	85 91       	lpm	r24, Z+
    14d6:	93 ff       	sbrs	r25, 3
    14d8:	81 91       	ld	r24, Z+
    14da:	7f 01       	movw	r14, r30
    14dc:	85 32       	cpi	r24, 0x25	; 37
    14de:	29 f4       	brne	.+10     	; 0x14ea <vfprintf+0x56>
    14e0:	b6 01       	movw	r22, r12
    14e2:	90 e0       	ldi	r25, 0x00	; 0
    14e4:	0e 94 e2 0f 	call	0x1fc4	; 0x1fc4 <fputc>
    14e8:	e7 cf       	rjmp	.-50     	; 0x14b8 <vfprintf+0x24>
    14ea:	91 2c       	mov	r9, r1
    14ec:	21 2c       	mov	r2, r1
    14ee:	31 2c       	mov	r3, r1
    14f0:	ff e1       	ldi	r31, 0x1F	; 31
    14f2:	f3 15       	cp	r31, r3
    14f4:	d8 f0       	brcs	.+54     	; 0x152c <vfprintf+0x98>
    14f6:	8b 32       	cpi	r24, 0x2B	; 43
    14f8:	79 f0       	breq	.+30     	; 0x1518 <vfprintf+0x84>
    14fa:	38 f4       	brcc	.+14     	; 0x150a <vfprintf+0x76>
    14fc:	80 32       	cpi	r24, 0x20	; 32
    14fe:	79 f0       	breq	.+30     	; 0x151e <vfprintf+0x8a>
    1500:	83 32       	cpi	r24, 0x23	; 35
    1502:	a1 f4       	brne	.+40     	; 0x152c <vfprintf+0x98>
    1504:	23 2d       	mov	r18, r3
    1506:	20 61       	ori	r18, 0x10	; 16
    1508:	1d c0       	rjmp	.+58     	; 0x1544 <vfprintf+0xb0>
    150a:	8d 32       	cpi	r24, 0x2D	; 45
    150c:	61 f0       	breq	.+24     	; 0x1526 <vfprintf+0x92>
    150e:	80 33       	cpi	r24, 0x30	; 48
    1510:	69 f4       	brne	.+26     	; 0x152c <vfprintf+0x98>
    1512:	23 2d       	mov	r18, r3
    1514:	21 60       	ori	r18, 0x01	; 1
    1516:	16 c0       	rjmp	.+44     	; 0x1544 <vfprintf+0xb0>
    1518:	83 2d       	mov	r24, r3
    151a:	82 60       	ori	r24, 0x02	; 2
    151c:	38 2e       	mov	r3, r24
    151e:	e3 2d       	mov	r30, r3
    1520:	e4 60       	ori	r30, 0x04	; 4
    1522:	3e 2e       	mov	r3, r30
    1524:	2a c0       	rjmp	.+84     	; 0x157a <vfprintf+0xe6>
    1526:	f3 2d       	mov	r31, r3
    1528:	f8 60       	ori	r31, 0x08	; 8
    152a:	1d c0       	rjmp	.+58     	; 0x1566 <vfprintf+0xd2>
    152c:	37 fc       	sbrc	r3, 7
    152e:	2d c0       	rjmp	.+90     	; 0x158a <vfprintf+0xf6>
    1530:	20 ed       	ldi	r18, 0xD0	; 208
    1532:	28 0f       	add	r18, r24
    1534:	2a 30       	cpi	r18, 0x0A	; 10
    1536:	40 f0       	brcs	.+16     	; 0x1548 <vfprintf+0xb4>
    1538:	8e 32       	cpi	r24, 0x2E	; 46
    153a:	b9 f4       	brne	.+46     	; 0x156a <vfprintf+0xd6>
    153c:	36 fc       	sbrc	r3, 6
    153e:	81 c1       	rjmp	.+770    	; 0x1842 <vfprintf+0x3ae>
    1540:	23 2d       	mov	r18, r3
    1542:	20 64       	ori	r18, 0x40	; 64
    1544:	32 2e       	mov	r3, r18
    1546:	19 c0       	rjmp	.+50     	; 0x157a <vfprintf+0xe6>
    1548:	36 fe       	sbrs	r3, 6
    154a:	06 c0       	rjmp	.+12     	; 0x1558 <vfprintf+0xc4>
    154c:	8a e0       	ldi	r24, 0x0A	; 10
    154e:	98 9e       	mul	r9, r24
    1550:	20 0d       	add	r18, r0
    1552:	11 24       	eor	r1, r1
    1554:	92 2e       	mov	r9, r18
    1556:	11 c0       	rjmp	.+34     	; 0x157a <vfprintf+0xe6>
    1558:	ea e0       	ldi	r30, 0x0A	; 10
    155a:	2e 9e       	mul	r2, r30
    155c:	20 0d       	add	r18, r0
    155e:	11 24       	eor	r1, r1
    1560:	22 2e       	mov	r2, r18
    1562:	f3 2d       	mov	r31, r3
    1564:	f0 62       	ori	r31, 0x20	; 32
    1566:	3f 2e       	mov	r3, r31
    1568:	08 c0       	rjmp	.+16     	; 0x157a <vfprintf+0xe6>
    156a:	8c 36       	cpi	r24, 0x6C	; 108
    156c:	21 f4       	brne	.+8      	; 0x1576 <vfprintf+0xe2>
    156e:	83 2d       	mov	r24, r3
    1570:	80 68       	ori	r24, 0x80	; 128
    1572:	38 2e       	mov	r3, r24
    1574:	02 c0       	rjmp	.+4      	; 0x157a <vfprintf+0xe6>
    1576:	88 36       	cpi	r24, 0x68	; 104
    1578:	41 f4       	brne	.+16     	; 0x158a <vfprintf+0xf6>
    157a:	f7 01       	movw	r30, r14
    157c:	93 fd       	sbrc	r25, 3
    157e:	85 91       	lpm	r24, Z+
    1580:	93 ff       	sbrs	r25, 3
    1582:	81 91       	ld	r24, Z+
    1584:	7f 01       	movw	r14, r30
    1586:	81 11       	cpse	r24, r1
    1588:	b3 cf       	rjmp	.-154    	; 0x14f0 <vfprintf+0x5c>
    158a:	98 2f       	mov	r25, r24
    158c:	9f 7d       	andi	r25, 0xDF	; 223
    158e:	95 54       	subi	r25, 0x45	; 69
    1590:	93 30       	cpi	r25, 0x03	; 3
    1592:	28 f4       	brcc	.+10     	; 0x159e <vfprintf+0x10a>
    1594:	0c 5f       	subi	r16, 0xFC	; 252
    1596:	1f 4f       	sbci	r17, 0xFF	; 255
    1598:	9f e3       	ldi	r25, 0x3F	; 63
    159a:	99 83       	std	Y+1, r25	; 0x01
    159c:	0d c0       	rjmp	.+26     	; 0x15b8 <vfprintf+0x124>
    159e:	83 36       	cpi	r24, 0x63	; 99
    15a0:	31 f0       	breq	.+12     	; 0x15ae <vfprintf+0x11a>
    15a2:	83 37       	cpi	r24, 0x73	; 115
    15a4:	71 f0       	breq	.+28     	; 0x15c2 <vfprintf+0x12e>
    15a6:	83 35       	cpi	r24, 0x53	; 83
    15a8:	09 f0       	breq	.+2      	; 0x15ac <vfprintf+0x118>
    15aa:	59 c0       	rjmp	.+178    	; 0x165e <vfprintf+0x1ca>
    15ac:	21 c0       	rjmp	.+66     	; 0x15f0 <vfprintf+0x15c>
    15ae:	f8 01       	movw	r30, r16
    15b0:	80 81       	ld	r24, Z
    15b2:	89 83       	std	Y+1, r24	; 0x01
    15b4:	0e 5f       	subi	r16, 0xFE	; 254
    15b6:	1f 4f       	sbci	r17, 0xFF	; 255
    15b8:	88 24       	eor	r8, r8
    15ba:	83 94       	inc	r8
    15bc:	91 2c       	mov	r9, r1
    15be:	53 01       	movw	r10, r6
    15c0:	13 c0       	rjmp	.+38     	; 0x15e8 <vfprintf+0x154>
    15c2:	28 01       	movw	r4, r16
    15c4:	f2 e0       	ldi	r31, 0x02	; 2
    15c6:	4f 0e       	add	r4, r31
    15c8:	51 1c       	adc	r5, r1
    15ca:	f8 01       	movw	r30, r16
    15cc:	a0 80       	ld	r10, Z
    15ce:	b1 80       	ldd	r11, Z+1	; 0x01
    15d0:	36 fe       	sbrs	r3, 6
    15d2:	03 c0       	rjmp	.+6      	; 0x15da <vfprintf+0x146>
    15d4:	69 2d       	mov	r22, r9
    15d6:	70 e0       	ldi	r23, 0x00	; 0
    15d8:	02 c0       	rjmp	.+4      	; 0x15de <vfprintf+0x14a>
    15da:	6f ef       	ldi	r22, 0xFF	; 255
    15dc:	7f ef       	ldi	r23, 0xFF	; 255
    15de:	c5 01       	movw	r24, r10
    15e0:	0e 94 d7 0f 	call	0x1fae	; 0x1fae <strnlen>
    15e4:	4c 01       	movw	r8, r24
    15e6:	82 01       	movw	r16, r4
    15e8:	f3 2d       	mov	r31, r3
    15ea:	ff 77       	andi	r31, 0x7F	; 127
    15ec:	3f 2e       	mov	r3, r31
    15ee:	16 c0       	rjmp	.+44     	; 0x161c <vfprintf+0x188>
    15f0:	28 01       	movw	r4, r16
    15f2:	22 e0       	ldi	r18, 0x02	; 2
    15f4:	42 0e       	add	r4, r18
    15f6:	51 1c       	adc	r5, r1
    15f8:	f8 01       	movw	r30, r16
    15fa:	a0 80       	ld	r10, Z
    15fc:	b1 80       	ldd	r11, Z+1	; 0x01
    15fe:	36 fe       	sbrs	r3, 6
    1600:	03 c0       	rjmp	.+6      	; 0x1608 <vfprintf+0x174>
    1602:	69 2d       	mov	r22, r9
    1604:	70 e0       	ldi	r23, 0x00	; 0
    1606:	02 c0       	rjmp	.+4      	; 0x160c <vfprintf+0x178>
    1608:	6f ef       	ldi	r22, 0xFF	; 255
    160a:	7f ef       	ldi	r23, 0xFF	; 255
    160c:	c5 01       	movw	r24, r10
    160e:	0e 94 cc 0f 	call	0x1f98	; 0x1f98 <strnlen_P>
    1612:	4c 01       	movw	r8, r24
    1614:	f3 2d       	mov	r31, r3
    1616:	f0 68       	ori	r31, 0x80	; 128
    1618:	3f 2e       	mov	r3, r31
    161a:	82 01       	movw	r16, r4
    161c:	33 fc       	sbrc	r3, 3
    161e:	1b c0       	rjmp	.+54     	; 0x1656 <vfprintf+0x1c2>
    1620:	82 2d       	mov	r24, r2
    1622:	90 e0       	ldi	r25, 0x00	; 0
    1624:	88 16       	cp	r8, r24
    1626:	99 06       	cpc	r9, r25
    1628:	b0 f4       	brcc	.+44     	; 0x1656 <vfprintf+0x1c2>
    162a:	b6 01       	movw	r22, r12
    162c:	80 e2       	ldi	r24, 0x20	; 32
    162e:	90 e0       	ldi	r25, 0x00	; 0
    1630:	0e 94 e2 0f 	call	0x1fc4	; 0x1fc4 <fputc>
    1634:	2a 94       	dec	r2
    1636:	f4 cf       	rjmp	.-24     	; 0x1620 <vfprintf+0x18c>
    1638:	f5 01       	movw	r30, r10
    163a:	37 fc       	sbrc	r3, 7
    163c:	85 91       	lpm	r24, Z+
    163e:	37 fe       	sbrs	r3, 7
    1640:	81 91       	ld	r24, Z+
    1642:	5f 01       	movw	r10, r30
    1644:	b6 01       	movw	r22, r12
    1646:	90 e0       	ldi	r25, 0x00	; 0
    1648:	0e 94 e2 0f 	call	0x1fc4	; 0x1fc4 <fputc>
    164c:	21 10       	cpse	r2, r1
    164e:	2a 94       	dec	r2
    1650:	21 e0       	ldi	r18, 0x01	; 1
    1652:	82 1a       	sub	r8, r18
    1654:	91 08       	sbc	r9, r1
    1656:	81 14       	cp	r8, r1
    1658:	91 04       	cpc	r9, r1
    165a:	71 f7       	brne	.-36     	; 0x1638 <vfprintf+0x1a4>
    165c:	e8 c0       	rjmp	.+464    	; 0x182e <vfprintf+0x39a>
    165e:	84 36       	cpi	r24, 0x64	; 100
    1660:	11 f0       	breq	.+4      	; 0x1666 <vfprintf+0x1d2>
    1662:	89 36       	cpi	r24, 0x69	; 105
    1664:	41 f5       	brne	.+80     	; 0x16b6 <vfprintf+0x222>
    1666:	f8 01       	movw	r30, r16
    1668:	37 fe       	sbrs	r3, 7
    166a:	07 c0       	rjmp	.+14     	; 0x167a <vfprintf+0x1e6>
    166c:	60 81       	ld	r22, Z
    166e:	71 81       	ldd	r23, Z+1	; 0x01
    1670:	82 81       	ldd	r24, Z+2	; 0x02
    1672:	93 81       	ldd	r25, Z+3	; 0x03
    1674:	0c 5f       	subi	r16, 0xFC	; 252
    1676:	1f 4f       	sbci	r17, 0xFF	; 255
    1678:	08 c0       	rjmp	.+16     	; 0x168a <vfprintf+0x1f6>
    167a:	60 81       	ld	r22, Z
    167c:	71 81       	ldd	r23, Z+1	; 0x01
    167e:	07 2e       	mov	r0, r23
    1680:	00 0c       	add	r0, r0
    1682:	88 0b       	sbc	r24, r24
    1684:	99 0b       	sbc	r25, r25
    1686:	0e 5f       	subi	r16, 0xFE	; 254
    1688:	1f 4f       	sbci	r17, 0xFF	; 255
    168a:	f3 2d       	mov	r31, r3
    168c:	ff 76       	andi	r31, 0x6F	; 111
    168e:	3f 2e       	mov	r3, r31
    1690:	97 ff       	sbrs	r25, 7
    1692:	09 c0       	rjmp	.+18     	; 0x16a6 <vfprintf+0x212>
    1694:	90 95       	com	r25
    1696:	80 95       	com	r24
    1698:	70 95       	com	r23
    169a:	61 95       	neg	r22
    169c:	7f 4f       	sbci	r23, 0xFF	; 255
    169e:	8f 4f       	sbci	r24, 0xFF	; 255
    16a0:	9f 4f       	sbci	r25, 0xFF	; 255
    16a2:	f0 68       	ori	r31, 0x80	; 128
    16a4:	3f 2e       	mov	r3, r31
    16a6:	2a e0       	ldi	r18, 0x0A	; 10
    16a8:	30 e0       	ldi	r19, 0x00	; 0
    16aa:	a3 01       	movw	r20, r6
    16ac:	0e 94 1e 10 	call	0x203c	; 0x203c <__ultoa_invert>
    16b0:	88 2e       	mov	r8, r24
    16b2:	86 18       	sub	r8, r6
    16b4:	45 c0       	rjmp	.+138    	; 0x1740 <vfprintf+0x2ac>
    16b6:	85 37       	cpi	r24, 0x75	; 117
    16b8:	31 f4       	brne	.+12     	; 0x16c6 <vfprintf+0x232>
    16ba:	23 2d       	mov	r18, r3
    16bc:	2f 7e       	andi	r18, 0xEF	; 239
    16be:	b2 2e       	mov	r11, r18
    16c0:	2a e0       	ldi	r18, 0x0A	; 10
    16c2:	30 e0       	ldi	r19, 0x00	; 0
    16c4:	25 c0       	rjmp	.+74     	; 0x1710 <vfprintf+0x27c>
    16c6:	93 2d       	mov	r25, r3
    16c8:	99 7f       	andi	r25, 0xF9	; 249
    16ca:	b9 2e       	mov	r11, r25
    16cc:	8f 36       	cpi	r24, 0x6F	; 111
    16ce:	c1 f0       	breq	.+48     	; 0x1700 <vfprintf+0x26c>
    16d0:	18 f4       	brcc	.+6      	; 0x16d8 <vfprintf+0x244>
    16d2:	88 35       	cpi	r24, 0x58	; 88
    16d4:	79 f0       	breq	.+30     	; 0x16f4 <vfprintf+0x260>
    16d6:	b5 c0       	rjmp	.+362    	; 0x1842 <vfprintf+0x3ae>
    16d8:	80 37       	cpi	r24, 0x70	; 112
    16da:	19 f0       	breq	.+6      	; 0x16e2 <vfprintf+0x24e>
    16dc:	88 37       	cpi	r24, 0x78	; 120
    16de:	21 f0       	breq	.+8      	; 0x16e8 <vfprintf+0x254>
    16e0:	b0 c0       	rjmp	.+352    	; 0x1842 <vfprintf+0x3ae>
    16e2:	e9 2f       	mov	r30, r25
    16e4:	e0 61       	ori	r30, 0x10	; 16
    16e6:	be 2e       	mov	r11, r30
    16e8:	b4 fe       	sbrs	r11, 4
    16ea:	0d c0       	rjmp	.+26     	; 0x1706 <vfprintf+0x272>
    16ec:	fb 2d       	mov	r31, r11
    16ee:	f4 60       	ori	r31, 0x04	; 4
    16f0:	bf 2e       	mov	r11, r31
    16f2:	09 c0       	rjmp	.+18     	; 0x1706 <vfprintf+0x272>
    16f4:	34 fe       	sbrs	r3, 4
    16f6:	0a c0       	rjmp	.+20     	; 0x170c <vfprintf+0x278>
    16f8:	29 2f       	mov	r18, r25
    16fa:	26 60       	ori	r18, 0x06	; 6
    16fc:	b2 2e       	mov	r11, r18
    16fe:	06 c0       	rjmp	.+12     	; 0x170c <vfprintf+0x278>
    1700:	28 e0       	ldi	r18, 0x08	; 8
    1702:	30 e0       	ldi	r19, 0x00	; 0
    1704:	05 c0       	rjmp	.+10     	; 0x1710 <vfprintf+0x27c>
    1706:	20 e1       	ldi	r18, 0x10	; 16
    1708:	30 e0       	ldi	r19, 0x00	; 0
    170a:	02 c0       	rjmp	.+4      	; 0x1710 <vfprintf+0x27c>
    170c:	20 e1       	ldi	r18, 0x10	; 16
    170e:	32 e0       	ldi	r19, 0x02	; 2
    1710:	f8 01       	movw	r30, r16
    1712:	b7 fe       	sbrs	r11, 7
    1714:	07 c0       	rjmp	.+14     	; 0x1724 <vfprintf+0x290>
    1716:	60 81       	ld	r22, Z
    1718:	71 81       	ldd	r23, Z+1	; 0x01
    171a:	82 81       	ldd	r24, Z+2	; 0x02
    171c:	93 81       	ldd	r25, Z+3	; 0x03
    171e:	0c 5f       	subi	r16, 0xFC	; 252
    1720:	1f 4f       	sbci	r17, 0xFF	; 255
    1722:	06 c0       	rjmp	.+12     	; 0x1730 <vfprintf+0x29c>
    1724:	60 81       	ld	r22, Z
    1726:	71 81       	ldd	r23, Z+1	; 0x01
    1728:	80 e0       	ldi	r24, 0x00	; 0
    172a:	90 e0       	ldi	r25, 0x00	; 0
    172c:	0e 5f       	subi	r16, 0xFE	; 254
    172e:	1f 4f       	sbci	r17, 0xFF	; 255
    1730:	a3 01       	movw	r20, r6
    1732:	0e 94 1e 10 	call	0x203c	; 0x203c <__ultoa_invert>
    1736:	88 2e       	mov	r8, r24
    1738:	86 18       	sub	r8, r6
    173a:	fb 2d       	mov	r31, r11
    173c:	ff 77       	andi	r31, 0x7F	; 127
    173e:	3f 2e       	mov	r3, r31
    1740:	36 fe       	sbrs	r3, 6
    1742:	0d c0       	rjmp	.+26     	; 0x175e <vfprintf+0x2ca>
    1744:	23 2d       	mov	r18, r3
    1746:	2e 7f       	andi	r18, 0xFE	; 254
    1748:	a2 2e       	mov	r10, r18
    174a:	89 14       	cp	r8, r9
    174c:	58 f4       	brcc	.+22     	; 0x1764 <vfprintf+0x2d0>
    174e:	34 fe       	sbrs	r3, 4
    1750:	0b c0       	rjmp	.+22     	; 0x1768 <vfprintf+0x2d4>
    1752:	32 fc       	sbrc	r3, 2
    1754:	09 c0       	rjmp	.+18     	; 0x1768 <vfprintf+0x2d4>
    1756:	83 2d       	mov	r24, r3
    1758:	8e 7e       	andi	r24, 0xEE	; 238
    175a:	a8 2e       	mov	r10, r24
    175c:	05 c0       	rjmp	.+10     	; 0x1768 <vfprintf+0x2d4>
    175e:	b8 2c       	mov	r11, r8
    1760:	a3 2c       	mov	r10, r3
    1762:	03 c0       	rjmp	.+6      	; 0x176a <vfprintf+0x2d6>
    1764:	b8 2c       	mov	r11, r8
    1766:	01 c0       	rjmp	.+2      	; 0x176a <vfprintf+0x2d6>
    1768:	b9 2c       	mov	r11, r9
    176a:	a4 fe       	sbrs	r10, 4
    176c:	0f c0       	rjmp	.+30     	; 0x178c <vfprintf+0x2f8>
    176e:	fe 01       	movw	r30, r28
    1770:	e8 0d       	add	r30, r8
    1772:	f1 1d       	adc	r31, r1
    1774:	80 81       	ld	r24, Z
    1776:	80 33       	cpi	r24, 0x30	; 48
    1778:	21 f4       	brne	.+8      	; 0x1782 <vfprintf+0x2ee>
    177a:	9a 2d       	mov	r25, r10
    177c:	99 7e       	andi	r25, 0xE9	; 233
    177e:	a9 2e       	mov	r10, r25
    1780:	09 c0       	rjmp	.+18     	; 0x1794 <vfprintf+0x300>
    1782:	a2 fe       	sbrs	r10, 2
    1784:	06 c0       	rjmp	.+12     	; 0x1792 <vfprintf+0x2fe>
    1786:	b3 94       	inc	r11
    1788:	b3 94       	inc	r11
    178a:	04 c0       	rjmp	.+8      	; 0x1794 <vfprintf+0x300>
    178c:	8a 2d       	mov	r24, r10
    178e:	86 78       	andi	r24, 0x86	; 134
    1790:	09 f0       	breq	.+2      	; 0x1794 <vfprintf+0x300>
    1792:	b3 94       	inc	r11
    1794:	a3 fc       	sbrc	r10, 3
    1796:	11 c0       	rjmp	.+34     	; 0x17ba <vfprintf+0x326>
    1798:	a0 fe       	sbrs	r10, 0
    179a:	06 c0       	rjmp	.+12     	; 0x17a8 <vfprintf+0x314>
    179c:	b2 14       	cp	r11, r2
    179e:	88 f4       	brcc	.+34     	; 0x17c2 <vfprintf+0x32e>
    17a0:	28 0c       	add	r2, r8
    17a2:	92 2c       	mov	r9, r2
    17a4:	9b 18       	sub	r9, r11
    17a6:	0e c0       	rjmp	.+28     	; 0x17c4 <vfprintf+0x330>
    17a8:	b2 14       	cp	r11, r2
    17aa:	60 f4       	brcc	.+24     	; 0x17c4 <vfprintf+0x330>
    17ac:	b6 01       	movw	r22, r12
    17ae:	80 e2       	ldi	r24, 0x20	; 32
    17b0:	90 e0       	ldi	r25, 0x00	; 0
    17b2:	0e 94 e2 0f 	call	0x1fc4	; 0x1fc4 <fputc>
    17b6:	b3 94       	inc	r11
    17b8:	f7 cf       	rjmp	.-18     	; 0x17a8 <vfprintf+0x314>
    17ba:	b2 14       	cp	r11, r2
    17bc:	18 f4       	brcc	.+6      	; 0x17c4 <vfprintf+0x330>
    17be:	2b 18       	sub	r2, r11
    17c0:	02 c0       	rjmp	.+4      	; 0x17c6 <vfprintf+0x332>
    17c2:	98 2c       	mov	r9, r8
    17c4:	21 2c       	mov	r2, r1
    17c6:	a4 fe       	sbrs	r10, 4
    17c8:	10 c0       	rjmp	.+32     	; 0x17ea <vfprintf+0x356>
    17ca:	b6 01       	movw	r22, r12
    17cc:	80 e3       	ldi	r24, 0x30	; 48
    17ce:	90 e0       	ldi	r25, 0x00	; 0
    17d0:	0e 94 e2 0f 	call	0x1fc4	; 0x1fc4 <fputc>
    17d4:	a2 fe       	sbrs	r10, 2
    17d6:	17 c0       	rjmp	.+46     	; 0x1806 <vfprintf+0x372>
    17d8:	a1 fc       	sbrc	r10, 1
    17da:	03 c0       	rjmp	.+6      	; 0x17e2 <vfprintf+0x34e>
    17dc:	88 e7       	ldi	r24, 0x78	; 120
    17de:	90 e0       	ldi	r25, 0x00	; 0
    17e0:	02 c0       	rjmp	.+4      	; 0x17e6 <vfprintf+0x352>
    17e2:	88 e5       	ldi	r24, 0x58	; 88
    17e4:	90 e0       	ldi	r25, 0x00	; 0
    17e6:	b6 01       	movw	r22, r12
    17e8:	0c c0       	rjmp	.+24     	; 0x1802 <vfprintf+0x36e>
    17ea:	8a 2d       	mov	r24, r10
    17ec:	86 78       	andi	r24, 0x86	; 134
    17ee:	59 f0       	breq	.+22     	; 0x1806 <vfprintf+0x372>
    17f0:	a1 fe       	sbrs	r10, 1
    17f2:	02 c0       	rjmp	.+4      	; 0x17f8 <vfprintf+0x364>
    17f4:	8b e2       	ldi	r24, 0x2B	; 43
    17f6:	01 c0       	rjmp	.+2      	; 0x17fa <vfprintf+0x366>
    17f8:	80 e2       	ldi	r24, 0x20	; 32
    17fa:	a7 fc       	sbrc	r10, 7
    17fc:	8d e2       	ldi	r24, 0x2D	; 45
    17fe:	b6 01       	movw	r22, r12
    1800:	90 e0       	ldi	r25, 0x00	; 0
    1802:	0e 94 e2 0f 	call	0x1fc4	; 0x1fc4 <fputc>
    1806:	89 14       	cp	r8, r9
    1808:	38 f4       	brcc	.+14     	; 0x1818 <vfprintf+0x384>
    180a:	b6 01       	movw	r22, r12
    180c:	80 e3       	ldi	r24, 0x30	; 48
    180e:	90 e0       	ldi	r25, 0x00	; 0
    1810:	0e 94 e2 0f 	call	0x1fc4	; 0x1fc4 <fputc>
    1814:	9a 94       	dec	r9
    1816:	f7 cf       	rjmp	.-18     	; 0x1806 <vfprintf+0x372>
    1818:	8a 94       	dec	r8
    181a:	f3 01       	movw	r30, r6
    181c:	e8 0d       	add	r30, r8
    181e:	f1 1d       	adc	r31, r1
    1820:	80 81       	ld	r24, Z
    1822:	b6 01       	movw	r22, r12
    1824:	90 e0       	ldi	r25, 0x00	; 0
    1826:	0e 94 e2 0f 	call	0x1fc4	; 0x1fc4 <fputc>
    182a:	81 10       	cpse	r8, r1
    182c:	f5 cf       	rjmp	.-22     	; 0x1818 <vfprintf+0x384>
    182e:	22 20       	and	r2, r2
    1830:	09 f4       	brne	.+2      	; 0x1834 <vfprintf+0x3a0>
    1832:	42 ce       	rjmp	.-892    	; 0x14b8 <vfprintf+0x24>
    1834:	b6 01       	movw	r22, r12
    1836:	80 e2       	ldi	r24, 0x20	; 32
    1838:	90 e0       	ldi	r25, 0x00	; 0
    183a:	0e 94 e2 0f 	call	0x1fc4	; 0x1fc4 <fputc>
    183e:	2a 94       	dec	r2
    1840:	f6 cf       	rjmp	.-20     	; 0x182e <vfprintf+0x39a>
    1842:	f6 01       	movw	r30, r12
    1844:	86 81       	ldd	r24, Z+6	; 0x06
    1846:	97 81       	ldd	r25, Z+7	; 0x07
    1848:	02 c0       	rjmp	.+4      	; 0x184e <vfprintf+0x3ba>
    184a:	8f ef       	ldi	r24, 0xFF	; 255
    184c:	9f ef       	ldi	r25, 0xFF	; 255
    184e:	2b 96       	adiw	r28, 0x0b	; 11
    1850:	e2 e1       	ldi	r30, 0x12	; 18
    1852:	0c 94 a6 10 	jmp	0x214c	; 0x214c <__epilogue_restores__>

00001856 <dtoa_prf>:
    1856:	a9 e0       	ldi	r26, 0x09	; 9
    1858:	b0 e0       	ldi	r27, 0x00	; 0
    185a:	e1 e3       	ldi	r30, 0x31	; 49
    185c:	fc e0       	ldi	r31, 0x0C	; 12
    185e:	0c 94 90 10 	jmp	0x2120	; 0x2120 <__prologue_saves__+0xc>
    1862:	6a 01       	movw	r12, r20
    1864:	12 2f       	mov	r17, r18
    1866:	b0 2e       	mov	r11, r16
    1868:	2b e3       	ldi	r18, 0x3B	; 59
    186a:	20 17       	cp	r18, r16
    186c:	20 f0       	brcs	.+8      	; 0x1876 <dtoa_prf+0x20>
    186e:	ff 24       	eor	r15, r15
    1870:	f3 94       	inc	r15
    1872:	f0 0e       	add	r15, r16
    1874:	02 c0       	rjmp	.+4      	; 0x187a <dtoa_prf+0x24>
    1876:	2c e3       	ldi	r18, 0x3C	; 60
    1878:	f2 2e       	mov	r15, r18
    187a:	0f 2d       	mov	r16, r15
    187c:	27 e0       	ldi	r18, 0x07	; 7
    187e:	ae 01       	movw	r20, r28
    1880:	4f 5f       	subi	r20, 0xFF	; 255
    1882:	5f 4f       	sbci	r21, 0xFF	; 255
    1884:	0e 94 d3 0e 	call	0x1da6	; 0x1da6 <__ftoa_engine>
    1888:	bc 01       	movw	r22, r24
    188a:	49 81       	ldd	r20, Y+1	; 0x01
    188c:	84 2f       	mov	r24, r20
    188e:	89 70       	andi	r24, 0x09	; 9
    1890:	81 30       	cpi	r24, 0x01	; 1
    1892:	31 f0       	breq	.+12     	; 0x18a0 <dtoa_prf+0x4a>
    1894:	e1 fc       	sbrc	r14, 1
    1896:	06 c0       	rjmp	.+12     	; 0x18a4 <dtoa_prf+0x4e>
    1898:	e0 fe       	sbrs	r14, 0
    189a:	06 c0       	rjmp	.+12     	; 0x18a8 <dtoa_prf+0x52>
    189c:	90 e2       	ldi	r25, 0x20	; 32
    189e:	05 c0       	rjmp	.+10     	; 0x18aa <dtoa_prf+0x54>
    18a0:	9d e2       	ldi	r25, 0x2D	; 45
    18a2:	03 c0       	rjmp	.+6      	; 0x18aa <dtoa_prf+0x54>
    18a4:	9b e2       	ldi	r25, 0x2B	; 43
    18a6:	01 c0       	rjmp	.+2      	; 0x18aa <dtoa_prf+0x54>
    18a8:	90 e0       	ldi	r25, 0x00	; 0
    18aa:	5e 2d       	mov	r21, r14
    18ac:	50 71       	andi	r21, 0x10	; 16
    18ae:	43 ff       	sbrs	r20, 3
    18b0:	3c c0       	rjmp	.+120    	; 0x192a <dtoa_prf+0xd4>
    18b2:	91 11       	cpse	r25, r1
    18b4:	02 c0       	rjmp	.+4      	; 0x18ba <dtoa_prf+0x64>
    18b6:	83 e0       	ldi	r24, 0x03	; 3
    18b8:	01 c0       	rjmp	.+2      	; 0x18bc <dtoa_prf+0x66>
    18ba:	84 e0       	ldi	r24, 0x04	; 4
    18bc:	81 17       	cp	r24, r17
    18be:	18 f4       	brcc	.+6      	; 0x18c6 <dtoa_prf+0x70>
    18c0:	21 2f       	mov	r18, r17
    18c2:	28 1b       	sub	r18, r24
    18c4:	01 c0       	rjmp	.+2      	; 0x18c8 <dtoa_prf+0x72>
    18c6:	20 e0       	ldi	r18, 0x00	; 0
    18c8:	51 11       	cpse	r21, r1
    18ca:	0b c0       	rjmp	.+22     	; 0x18e2 <dtoa_prf+0x8c>
    18cc:	f6 01       	movw	r30, r12
    18ce:	82 2f       	mov	r24, r18
    18d0:	30 e2       	ldi	r19, 0x20	; 32
    18d2:	88 23       	and	r24, r24
    18d4:	19 f0       	breq	.+6      	; 0x18dc <dtoa_prf+0x86>
    18d6:	31 93       	st	Z+, r19
    18d8:	81 50       	subi	r24, 0x01	; 1
    18da:	fb cf       	rjmp	.-10     	; 0x18d2 <dtoa_prf+0x7c>
    18dc:	c2 0e       	add	r12, r18
    18de:	d1 1c       	adc	r13, r1
    18e0:	20 e0       	ldi	r18, 0x00	; 0
    18e2:	99 23       	and	r25, r25
    18e4:	29 f0       	breq	.+10     	; 0x18f0 <dtoa_prf+0x9a>
    18e6:	d6 01       	movw	r26, r12
    18e8:	9c 93       	st	X, r25
    18ea:	f6 01       	movw	r30, r12
    18ec:	31 96       	adiw	r30, 0x01	; 1
    18ee:	6f 01       	movw	r12, r30
    18f0:	c6 01       	movw	r24, r12
    18f2:	03 96       	adiw	r24, 0x03	; 3
    18f4:	e2 fe       	sbrs	r14, 2
    18f6:	0a c0       	rjmp	.+20     	; 0x190c <dtoa_prf+0xb6>
    18f8:	3e e4       	ldi	r19, 0x4E	; 78
    18fa:	d6 01       	movw	r26, r12
    18fc:	3c 93       	st	X, r19
    18fe:	41 e4       	ldi	r20, 0x41	; 65
    1900:	11 96       	adiw	r26, 0x01	; 1
    1902:	4c 93       	st	X, r20
    1904:	11 97       	sbiw	r26, 0x01	; 1
    1906:	12 96       	adiw	r26, 0x02	; 2
    1908:	3c 93       	st	X, r19
    190a:	06 c0       	rjmp	.+12     	; 0x1918 <dtoa_prf+0xc2>
    190c:	3e e6       	ldi	r19, 0x6E	; 110
    190e:	f6 01       	movw	r30, r12
    1910:	30 83       	st	Z, r19
    1912:	41 e6       	ldi	r20, 0x61	; 97
    1914:	41 83       	std	Z+1, r20	; 0x01
    1916:	32 83       	std	Z+2, r19	; 0x02
    1918:	fc 01       	movw	r30, r24
    191a:	32 2f       	mov	r19, r18
    191c:	40 e2       	ldi	r20, 0x20	; 32
    191e:	33 23       	and	r19, r19
    1920:	09 f4       	brne	.+2      	; 0x1924 <dtoa_prf+0xce>
    1922:	42 c0       	rjmp	.+132    	; 0x19a8 <dtoa_prf+0x152>
    1924:	41 93       	st	Z+, r20
    1926:	31 50       	subi	r19, 0x01	; 1
    1928:	fa cf       	rjmp	.-12     	; 0x191e <dtoa_prf+0xc8>
    192a:	42 ff       	sbrs	r20, 2
    192c:	44 c0       	rjmp	.+136    	; 0x19b6 <dtoa_prf+0x160>
    192e:	91 11       	cpse	r25, r1
    1930:	02 c0       	rjmp	.+4      	; 0x1936 <dtoa_prf+0xe0>
    1932:	83 e0       	ldi	r24, 0x03	; 3
    1934:	01 c0       	rjmp	.+2      	; 0x1938 <dtoa_prf+0xe2>
    1936:	84 e0       	ldi	r24, 0x04	; 4
    1938:	81 17       	cp	r24, r17
    193a:	18 f4       	brcc	.+6      	; 0x1942 <dtoa_prf+0xec>
    193c:	21 2f       	mov	r18, r17
    193e:	28 1b       	sub	r18, r24
    1940:	01 c0       	rjmp	.+2      	; 0x1944 <dtoa_prf+0xee>
    1942:	20 e0       	ldi	r18, 0x00	; 0
    1944:	51 11       	cpse	r21, r1
    1946:	0b c0       	rjmp	.+22     	; 0x195e <dtoa_prf+0x108>
    1948:	f6 01       	movw	r30, r12
    194a:	82 2f       	mov	r24, r18
    194c:	30 e2       	ldi	r19, 0x20	; 32
    194e:	88 23       	and	r24, r24
    1950:	19 f0       	breq	.+6      	; 0x1958 <dtoa_prf+0x102>
    1952:	31 93       	st	Z+, r19
    1954:	81 50       	subi	r24, 0x01	; 1
    1956:	fb cf       	rjmp	.-10     	; 0x194e <dtoa_prf+0xf8>
    1958:	c2 0e       	add	r12, r18
    195a:	d1 1c       	adc	r13, r1
    195c:	20 e0       	ldi	r18, 0x00	; 0
    195e:	99 23       	and	r25, r25
    1960:	29 f0       	breq	.+10     	; 0x196c <dtoa_prf+0x116>
    1962:	d6 01       	movw	r26, r12
    1964:	9c 93       	st	X, r25
    1966:	f6 01       	movw	r30, r12
    1968:	31 96       	adiw	r30, 0x01	; 1
    196a:	6f 01       	movw	r12, r30
    196c:	c6 01       	movw	r24, r12
    196e:	03 96       	adiw	r24, 0x03	; 3
    1970:	e2 fe       	sbrs	r14, 2
    1972:	0b c0       	rjmp	.+22     	; 0x198a <dtoa_prf+0x134>
    1974:	39 e4       	ldi	r19, 0x49	; 73
    1976:	d6 01       	movw	r26, r12
    1978:	3c 93       	st	X, r19
    197a:	3e e4       	ldi	r19, 0x4E	; 78
    197c:	11 96       	adiw	r26, 0x01	; 1
    197e:	3c 93       	st	X, r19
    1980:	11 97       	sbiw	r26, 0x01	; 1
    1982:	36 e4       	ldi	r19, 0x46	; 70
    1984:	12 96       	adiw	r26, 0x02	; 2
    1986:	3c 93       	st	X, r19
    1988:	07 c0       	rjmp	.+14     	; 0x1998 <dtoa_prf+0x142>
    198a:	39 e6       	ldi	r19, 0x69	; 105
    198c:	f6 01       	movw	r30, r12
    198e:	30 83       	st	Z, r19
    1990:	3e e6       	ldi	r19, 0x6E	; 110
    1992:	31 83       	std	Z+1, r19	; 0x01
    1994:	36 e6       	ldi	r19, 0x66	; 102
    1996:	32 83       	std	Z+2, r19	; 0x02
    1998:	fc 01       	movw	r30, r24
    199a:	32 2f       	mov	r19, r18
    199c:	40 e2       	ldi	r20, 0x20	; 32
    199e:	33 23       	and	r19, r19
    19a0:	19 f0       	breq	.+6      	; 0x19a8 <dtoa_prf+0x152>
    19a2:	41 93       	st	Z+, r20
    19a4:	31 50       	subi	r19, 0x01	; 1
    19a6:	fb cf       	rjmp	.-10     	; 0x199e <dtoa_prf+0x148>
    19a8:	fc 01       	movw	r30, r24
    19aa:	e2 0f       	add	r30, r18
    19ac:	f1 1d       	adc	r31, r1
    19ae:	10 82       	st	Z, r1
    19b0:	8e ef       	ldi	r24, 0xFE	; 254
    19b2:	9f ef       	ldi	r25, 0xFF	; 255
    19b4:	a6 c0       	rjmp	.+332    	; 0x1b02 <dtoa_prf+0x2ac>
    19b6:	21 e0       	ldi	r18, 0x01	; 1
    19b8:	30 e0       	ldi	r19, 0x00	; 0
    19ba:	91 11       	cpse	r25, r1
    19bc:	02 c0       	rjmp	.+4      	; 0x19c2 <dtoa_prf+0x16c>
    19be:	20 e0       	ldi	r18, 0x00	; 0
    19c0:	30 e0       	ldi	r19, 0x00	; 0
    19c2:	16 16       	cp	r1, r22
    19c4:	17 06       	cpc	r1, r23
    19c6:	1c f4       	brge	.+6      	; 0x19ce <dtoa_prf+0x178>
    19c8:	fb 01       	movw	r30, r22
    19ca:	31 96       	adiw	r30, 0x01	; 1
    19cc:	02 c0       	rjmp	.+4      	; 0x19d2 <dtoa_prf+0x17c>
    19ce:	e1 e0       	ldi	r30, 0x01	; 1
    19d0:	f0 e0       	ldi	r31, 0x00	; 0
    19d2:	2e 0f       	add	r18, r30
    19d4:	3f 1f       	adc	r19, r31
    19d6:	bb 20       	and	r11, r11
    19d8:	21 f0       	breq	.+8      	; 0x19e2 <dtoa_prf+0x18c>
    19da:	eb 2d       	mov	r30, r11
    19dc:	f0 e0       	ldi	r31, 0x00	; 0
    19de:	31 96       	adiw	r30, 0x01	; 1
    19e0:	02 c0       	rjmp	.+4      	; 0x19e6 <dtoa_prf+0x190>
    19e2:	e0 e0       	ldi	r30, 0x00	; 0
    19e4:	f0 e0       	ldi	r31, 0x00	; 0
    19e6:	2e 0f       	add	r18, r30
    19e8:	3f 1f       	adc	r19, r31
    19ea:	e1 2f       	mov	r30, r17
    19ec:	f0 e0       	ldi	r31, 0x00	; 0
    19ee:	2e 17       	cp	r18, r30
    19f0:	3f 07       	cpc	r19, r31
    19f2:	1c f4       	brge	.+6      	; 0x19fa <dtoa_prf+0x1a4>
    19f4:	12 1b       	sub	r17, r18
    19f6:	21 2f       	mov	r18, r17
    19f8:	01 c0       	rjmp	.+2      	; 0x19fc <dtoa_prf+0x1a6>
    19fa:	20 e0       	ldi	r18, 0x00	; 0
    19fc:	8e 2d       	mov	r24, r14
    19fe:	88 71       	andi	r24, 0x18	; 24
    1a00:	59 f4       	brne	.+22     	; 0x1a18 <dtoa_prf+0x1c2>
    1a02:	f6 01       	movw	r30, r12
    1a04:	82 2f       	mov	r24, r18
    1a06:	30 e2       	ldi	r19, 0x20	; 32
    1a08:	88 23       	and	r24, r24
    1a0a:	19 f0       	breq	.+6      	; 0x1a12 <dtoa_prf+0x1bc>
    1a0c:	31 93       	st	Z+, r19
    1a0e:	81 50       	subi	r24, 0x01	; 1
    1a10:	fb cf       	rjmp	.-10     	; 0x1a08 <dtoa_prf+0x1b2>
    1a12:	c2 0e       	add	r12, r18
    1a14:	d1 1c       	adc	r13, r1
    1a16:	20 e0       	ldi	r18, 0x00	; 0
    1a18:	99 23       	and	r25, r25
    1a1a:	29 f0       	breq	.+10     	; 0x1a26 <dtoa_prf+0x1d0>
    1a1c:	d6 01       	movw	r26, r12
    1a1e:	9c 93       	st	X, r25
    1a20:	f6 01       	movw	r30, r12
    1a22:	31 96       	adiw	r30, 0x01	; 1
    1a24:	6f 01       	movw	r12, r30
    1a26:	51 11       	cpse	r21, r1
    1a28:	0b c0       	rjmp	.+22     	; 0x1a40 <dtoa_prf+0x1ea>
    1a2a:	f6 01       	movw	r30, r12
    1a2c:	82 2f       	mov	r24, r18
    1a2e:	90 e3       	ldi	r25, 0x30	; 48
    1a30:	88 23       	and	r24, r24
    1a32:	19 f0       	breq	.+6      	; 0x1a3a <dtoa_prf+0x1e4>
    1a34:	91 93       	st	Z+, r25
    1a36:	81 50       	subi	r24, 0x01	; 1
    1a38:	fb cf       	rjmp	.-10     	; 0x1a30 <dtoa_prf+0x1da>
    1a3a:	c2 0e       	add	r12, r18
    1a3c:	d1 1c       	adc	r13, r1
    1a3e:	20 e0       	ldi	r18, 0x00	; 0
    1a40:	0f 2d       	mov	r16, r15
    1a42:	06 0f       	add	r16, r22
    1a44:	9a 81       	ldd	r25, Y+2	; 0x02
    1a46:	34 2f       	mov	r19, r20
    1a48:	30 71       	andi	r19, 0x10	; 16
    1a4a:	44 ff       	sbrs	r20, 4
    1a4c:	03 c0       	rjmp	.+6      	; 0x1a54 <dtoa_prf+0x1fe>
    1a4e:	91 33       	cpi	r25, 0x31	; 49
    1a50:	09 f4       	brne	.+2      	; 0x1a54 <dtoa_prf+0x1fe>
    1a52:	01 50       	subi	r16, 0x01	; 1
    1a54:	10 16       	cp	r1, r16
    1a56:	24 f4       	brge	.+8      	; 0x1a60 <dtoa_prf+0x20a>
    1a58:	09 30       	cpi	r16, 0x09	; 9
    1a5a:	18 f0       	brcs	.+6      	; 0x1a62 <dtoa_prf+0x20c>
    1a5c:	08 e0       	ldi	r16, 0x08	; 8
    1a5e:	01 c0       	rjmp	.+2      	; 0x1a62 <dtoa_prf+0x20c>
    1a60:	01 e0       	ldi	r16, 0x01	; 1
    1a62:	ab 01       	movw	r20, r22
    1a64:	77 ff       	sbrs	r23, 7
    1a66:	02 c0       	rjmp	.+4      	; 0x1a6c <dtoa_prf+0x216>
    1a68:	40 e0       	ldi	r20, 0x00	; 0
    1a6a:	50 e0       	ldi	r21, 0x00	; 0
    1a6c:	fb 01       	movw	r30, r22
    1a6e:	e4 1b       	sub	r30, r20
    1a70:	f5 0b       	sbc	r31, r21
    1a72:	a1 e0       	ldi	r26, 0x01	; 1
    1a74:	b0 e0       	ldi	r27, 0x00	; 0
    1a76:	ac 0f       	add	r26, r28
    1a78:	bd 1f       	adc	r27, r29
    1a7a:	ea 0f       	add	r30, r26
    1a7c:	fb 1f       	adc	r31, r27
    1a7e:	8e e2       	ldi	r24, 0x2E	; 46
    1a80:	a8 2e       	mov	r10, r24
    1a82:	4b 01       	movw	r8, r22
    1a84:	80 1a       	sub	r8, r16
    1a86:	91 08       	sbc	r9, r1
    1a88:	0b 2d       	mov	r16, r11
    1a8a:	10 e0       	ldi	r17, 0x00	; 0
    1a8c:	11 95       	neg	r17
    1a8e:	01 95       	neg	r16
    1a90:	11 09       	sbc	r17, r1
    1a92:	4f 3f       	cpi	r20, 0xFF	; 255
    1a94:	bf ef       	ldi	r27, 0xFF	; 255
    1a96:	5b 07       	cpc	r21, r27
    1a98:	21 f4       	brne	.+8      	; 0x1aa2 <dtoa_prf+0x24c>
    1a9a:	d6 01       	movw	r26, r12
    1a9c:	ac 92       	st	X, r10
    1a9e:	11 96       	adiw	r26, 0x01	; 1
    1aa0:	6d 01       	movw	r12, r26
    1aa2:	64 17       	cp	r22, r20
    1aa4:	75 07       	cpc	r23, r21
    1aa6:	2c f0       	brlt	.+10     	; 0x1ab2 <dtoa_prf+0x25c>
    1aa8:	84 16       	cp	r8, r20
    1aaa:	95 06       	cpc	r9, r21
    1aac:	14 f4       	brge	.+4      	; 0x1ab2 <dtoa_prf+0x25c>
    1aae:	81 81       	ldd	r24, Z+1	; 0x01
    1ab0:	01 c0       	rjmp	.+2      	; 0x1ab4 <dtoa_prf+0x25e>
    1ab2:	80 e3       	ldi	r24, 0x30	; 48
    1ab4:	41 50       	subi	r20, 0x01	; 1
    1ab6:	51 09       	sbc	r21, r1
    1ab8:	31 96       	adiw	r30, 0x01	; 1
    1aba:	d6 01       	movw	r26, r12
    1abc:	11 96       	adiw	r26, 0x01	; 1
    1abe:	7d 01       	movw	r14, r26
    1ac0:	40 17       	cp	r20, r16
    1ac2:	51 07       	cpc	r21, r17
    1ac4:	24 f0       	brlt	.+8      	; 0x1ace <dtoa_prf+0x278>
    1ac6:	d6 01       	movw	r26, r12
    1ac8:	8c 93       	st	X, r24
    1aca:	67 01       	movw	r12, r14
    1acc:	e2 cf       	rjmp	.-60     	; 0x1a92 <dtoa_prf+0x23c>
    1ace:	64 17       	cp	r22, r20
    1ad0:	75 07       	cpc	r23, r21
    1ad2:	39 f4       	brne	.+14     	; 0x1ae2 <dtoa_prf+0x28c>
    1ad4:	96 33       	cpi	r25, 0x36	; 54
    1ad6:	20 f4       	brcc	.+8      	; 0x1ae0 <dtoa_prf+0x28a>
    1ad8:	95 33       	cpi	r25, 0x35	; 53
    1ada:	19 f4       	brne	.+6      	; 0x1ae2 <dtoa_prf+0x28c>
    1adc:	31 11       	cpse	r19, r1
    1ade:	01 c0       	rjmp	.+2      	; 0x1ae2 <dtoa_prf+0x28c>
    1ae0:	81 e3       	ldi	r24, 0x31	; 49
    1ae2:	f6 01       	movw	r30, r12
    1ae4:	80 83       	st	Z, r24
    1ae6:	f7 01       	movw	r30, r14
    1ae8:	82 2f       	mov	r24, r18
    1aea:	90 e2       	ldi	r25, 0x20	; 32
    1aec:	88 23       	and	r24, r24
    1aee:	19 f0       	breq	.+6      	; 0x1af6 <dtoa_prf+0x2a0>
    1af0:	91 93       	st	Z+, r25
    1af2:	81 50       	subi	r24, 0x01	; 1
    1af4:	fb cf       	rjmp	.-10     	; 0x1aec <dtoa_prf+0x296>
    1af6:	f7 01       	movw	r30, r14
    1af8:	e2 0f       	add	r30, r18
    1afa:	f1 1d       	adc	r31, r1
    1afc:	10 82       	st	Z, r1
    1afe:	80 e0       	ldi	r24, 0x00	; 0
    1b00:	90 e0       	ldi	r25, 0x00	; 0
    1b02:	29 96       	adiw	r28, 0x09	; 9
    1b04:	ec e0       	ldi	r30, 0x0C	; 12
    1b06:	0c 94 ac 10 	jmp	0x2158	; 0x2158 <__epilogue_restores__+0xc>

00001b0a <strtod>:
    1b0a:	a0 e0       	ldi	r26, 0x00	; 0
    1b0c:	b0 e0       	ldi	r27, 0x00	; 0
    1b0e:	eb e8       	ldi	r30, 0x8B	; 139
    1b10:	fd e0       	ldi	r31, 0x0D	; 13
    1b12:	0c 94 90 10 	jmp	0x2120	; 0x2120 <__prologue_saves__+0xc>
    1b16:	ec 01       	movw	r28, r24
    1b18:	6b 01       	movw	r12, r22
    1b1a:	61 15       	cp	r22, r1
    1b1c:	71 05       	cpc	r23, r1
    1b1e:	19 f0       	breq	.+6      	; 0x1b26 <strtod+0x1c>
    1b20:	fb 01       	movw	r30, r22
    1b22:	91 83       	std	Z+1, r25	; 0x01
    1b24:	80 83       	st	Z, r24
    1b26:	7e 01       	movw	r14, r28
    1b28:	ff ef       	ldi	r31, 0xFF	; 255
    1b2a:	ef 1a       	sub	r14, r31
    1b2c:	ff 0a       	sbc	r15, r31
    1b2e:	08 81       	ld	r16, Y
    1b30:	80 2f       	mov	r24, r16
    1b32:	90 e0       	ldi	r25, 0x00	; 0
    1b34:	0e 94 ab 0f 	call	0x1f56	; 0x1f56 <isspace>
    1b38:	89 2b       	or	r24, r25
    1b3a:	11 f0       	breq	.+4      	; 0x1b40 <strtod+0x36>
    1b3c:	e7 01       	movw	r28, r14
    1b3e:	f3 cf       	rjmp	.-26     	; 0x1b26 <strtod+0x1c>
    1b40:	0d 32       	cpi	r16, 0x2D	; 45
    1b42:	39 f4       	brne	.+14     	; 0x1b52 <strtod+0x48>
    1b44:	7e 01       	movw	r14, r28
    1b46:	82 e0       	ldi	r24, 0x02	; 2
    1b48:	e8 0e       	add	r14, r24
    1b4a:	f1 1c       	adc	r15, r1
    1b4c:	09 81       	ldd	r16, Y+1	; 0x01
    1b4e:	11 e0       	ldi	r17, 0x01	; 1
    1b50:	08 c0       	rjmp	.+16     	; 0x1b62 <strtod+0x58>
    1b52:	0b 32       	cpi	r16, 0x2B	; 43
    1b54:	29 f4       	brne	.+10     	; 0x1b60 <strtod+0x56>
    1b56:	7e 01       	movw	r14, r28
    1b58:	92 e0       	ldi	r25, 0x02	; 2
    1b5a:	e9 0e       	add	r14, r25
    1b5c:	f1 1c       	adc	r15, r1
    1b5e:	09 81       	ldd	r16, Y+1	; 0x01
    1b60:	10 e0       	ldi	r17, 0x00	; 0
    1b62:	e7 01       	movw	r28, r14
    1b64:	21 97       	sbiw	r28, 0x01	; 1
    1b66:	43 e0       	ldi	r20, 0x03	; 3
    1b68:	50 e0       	ldi	r21, 0x00	; 0
    1b6a:	6c e5       	ldi	r22, 0x5C	; 92
    1b6c:	70 e0       	ldi	r23, 0x00	; 0
    1b6e:	ce 01       	movw	r24, r28
    1b70:	0e 94 b4 0f 	call	0x1f68	; 0x1f68 <strncasecmp_P>
    1b74:	89 2b       	or	r24, r25
    1b76:	c1 f4       	brne	.+48     	; 0x1ba8 <strtod+0x9e>
    1b78:	23 96       	adiw	r28, 0x03	; 3
    1b7a:	45 e0       	ldi	r20, 0x05	; 5
    1b7c:	50 e0       	ldi	r21, 0x00	; 0
    1b7e:	67 e5       	ldi	r22, 0x57	; 87
    1b80:	70 e0       	ldi	r23, 0x00	; 0
    1b82:	ce 01       	movw	r24, r28
    1b84:	0e 94 b4 0f 	call	0x1f68	; 0x1f68 <strncasecmp_P>
    1b88:	89 2b       	or	r24, r25
    1b8a:	09 f4       	brne	.+2      	; 0x1b8e <strtod+0x84>
    1b8c:	25 96       	adiw	r28, 0x05	; 5
    1b8e:	c1 14       	cp	r12, r1
    1b90:	d1 04       	cpc	r13, r1
    1b92:	19 f0       	breq	.+6      	; 0x1b9a <strtod+0x90>
    1b94:	f6 01       	movw	r30, r12
    1b96:	d1 83       	std	Z+1, r29	; 0x01
    1b98:	c0 83       	st	Z, r28
    1b9a:	11 11       	cpse	r17, r1
    1b9c:	f6 c0       	rjmp	.+492    	; 0x1d8a <strtod+0x280>
    1b9e:	60 e0       	ldi	r22, 0x00	; 0
    1ba0:	70 e0       	ldi	r23, 0x00	; 0
    1ba2:	80 e8       	ldi	r24, 0x80	; 128
    1ba4:	9f e7       	ldi	r25, 0x7F	; 127
    1ba6:	fa c0       	rjmp	.+500    	; 0x1d9c <strtod+0x292>
    1ba8:	43 e0       	ldi	r20, 0x03	; 3
    1baa:	50 e0       	ldi	r21, 0x00	; 0
    1bac:	64 e5       	ldi	r22, 0x54	; 84
    1bae:	70 e0       	ldi	r23, 0x00	; 0
    1bb0:	ce 01       	movw	r24, r28
    1bb2:	0e 94 b4 0f 	call	0x1f68	; 0x1f68 <strncasecmp_P>
    1bb6:	89 2b       	or	r24, r25
    1bb8:	59 f4       	brne	.+22     	; 0x1bd0 <strtod+0xc6>
    1bba:	c1 14       	cp	r12, r1
    1bbc:	d1 04       	cpc	r13, r1
    1bbe:	09 f4       	brne	.+2      	; 0x1bc2 <strtod+0xb8>
    1bc0:	e9 c0       	rjmp	.+466    	; 0x1d94 <strtod+0x28a>
    1bc2:	f2 e0       	ldi	r31, 0x02	; 2
    1bc4:	ef 0e       	add	r14, r31
    1bc6:	f1 1c       	adc	r15, r1
    1bc8:	f6 01       	movw	r30, r12
    1bca:	f1 82       	std	Z+1, r15	; 0x01
    1bcc:	e0 82       	st	Z, r14
    1bce:	e2 c0       	rjmp	.+452    	; 0x1d94 <strtod+0x28a>
    1bd0:	20 e0       	ldi	r18, 0x00	; 0
    1bd2:	30 e0       	ldi	r19, 0x00	; 0
    1bd4:	a9 01       	movw	r20, r18
    1bd6:	c0 e0       	ldi	r28, 0x00	; 0
    1bd8:	d0 e0       	ldi	r29, 0x00	; 0
    1bda:	f7 01       	movw	r30, r14
    1bdc:	80 ed       	ldi	r24, 0xD0	; 208
    1bde:	a8 2e       	mov	r10, r24
    1be0:	a0 0e       	add	r10, r16
    1be2:	89 e0       	ldi	r24, 0x09	; 9
    1be4:	8a 15       	cp	r24, r10
    1be6:	30 f1       	brcs	.+76     	; 0x1c34 <strtod+0x12a>
    1be8:	91 2f       	mov	r25, r17
    1bea:	92 60       	ori	r25, 0x02	; 2
    1bec:	b9 2e       	mov	r11, r25
    1bee:	81 2f       	mov	r24, r17
    1bf0:	88 70       	andi	r24, 0x08	; 8
    1bf2:	12 ff       	sbrs	r17, 2
    1bf4:	04 c0       	rjmp	.+8      	; 0x1bfe <strtod+0xf4>
    1bf6:	81 11       	cpse	r24, r1
    1bf8:	24 c0       	rjmp	.+72     	; 0x1c42 <strtod+0x138>
    1bfa:	21 96       	adiw	r28, 0x01	; 1
    1bfc:	22 c0       	rjmp	.+68     	; 0x1c42 <strtod+0x138>
    1bfe:	81 11       	cpse	r24, r1
    1c00:	21 97       	sbiw	r28, 0x01	; 1
    1c02:	a5 e0       	ldi	r26, 0x05	; 5
    1c04:	b0 e0       	ldi	r27, 0x00	; 0
    1c06:	0e 94 7f 10 	call	0x20fe	; 0x20fe <__muluhisi3>
    1c0a:	dc 01       	movw	r26, r24
    1c0c:	cb 01       	movw	r24, r22
    1c0e:	88 0f       	add	r24, r24
    1c10:	99 1f       	adc	r25, r25
    1c12:	aa 1f       	adc	r26, r26
    1c14:	bb 1f       	adc	r27, r27
    1c16:	9c 01       	movw	r18, r24
    1c18:	ad 01       	movw	r20, r26
    1c1a:	2a 0d       	add	r18, r10
    1c1c:	31 1d       	adc	r19, r1
    1c1e:	41 1d       	adc	r20, r1
    1c20:	51 1d       	adc	r21, r1
    1c22:	28 39       	cpi	r18, 0x98	; 152
    1c24:	89 e9       	ldi	r24, 0x99	; 153
    1c26:	38 07       	cpc	r19, r24
    1c28:	48 07       	cpc	r20, r24
    1c2a:	89 e1       	ldi	r24, 0x19	; 25
    1c2c:	58 07       	cpc	r21, r24
    1c2e:	48 f0       	brcs	.+18     	; 0x1c42 <strtod+0x138>
    1c30:	16 60       	ori	r17, 0x06	; 6
    1c32:	06 c0       	rjmp	.+12     	; 0x1c40 <strtod+0x136>
    1c34:	9e ef       	ldi	r25, 0xFE	; 254
    1c36:	a9 12       	cpse	r10, r25
    1c38:	0a c0       	rjmp	.+20     	; 0x1c4e <strtod+0x144>
    1c3a:	13 fd       	sbrc	r17, 3
    1c3c:	40 c0       	rjmp	.+128    	; 0x1cbe <strtod+0x1b4>
    1c3e:	18 60       	ori	r17, 0x08	; 8
    1c40:	b1 2e       	mov	r11, r17
    1c42:	8f ef       	ldi	r24, 0xFF	; 255
    1c44:	e8 1a       	sub	r14, r24
    1c46:	f8 0a       	sbc	r15, r24
    1c48:	00 81       	ld	r16, Z
    1c4a:	1b 2d       	mov	r17, r11
    1c4c:	c6 cf       	rjmp	.-116    	; 0x1bda <strtod+0xd0>
    1c4e:	80 2f       	mov	r24, r16
    1c50:	8f 7d       	andi	r24, 0xDF	; 223
    1c52:	85 34       	cpi	r24, 0x45	; 69
    1c54:	a1 f5       	brne	.+104    	; 0x1cbe <strtod+0x1b4>
    1c56:	80 81       	ld	r24, Z
    1c58:	8d 32       	cpi	r24, 0x2D	; 45
    1c5a:	11 f4       	brne	.+4      	; 0x1c60 <strtod+0x156>
    1c5c:	10 61       	ori	r17, 0x10	; 16
    1c5e:	06 c0       	rjmp	.+12     	; 0x1c6c <strtod+0x162>
    1c60:	8b 32       	cpi	r24, 0x2B	; 43
    1c62:	21 f0       	breq	.+8      	; 0x1c6c <strtod+0x162>
    1c64:	31 96       	adiw	r30, 0x01	; 1
    1c66:	61 e0       	ldi	r22, 0x01	; 1
    1c68:	70 e0       	ldi	r23, 0x00	; 0
    1c6a:	04 c0       	rjmp	.+8      	; 0x1c74 <strtod+0x16a>
    1c6c:	81 81       	ldd	r24, Z+1	; 0x01
    1c6e:	32 96       	adiw	r30, 0x02	; 2
    1c70:	62 e0       	ldi	r22, 0x02	; 2
    1c72:	70 e0       	ldi	r23, 0x00	; 0
    1c74:	80 53       	subi	r24, 0x30	; 48
    1c76:	8a 30       	cpi	r24, 0x0A	; 10
    1c78:	18 f0       	brcs	.+6      	; 0x1c80 <strtod+0x176>
    1c7a:	e6 1b       	sub	r30, r22
    1c7c:	f7 0b       	sbc	r31, r23
    1c7e:	1f c0       	rjmp	.+62     	; 0x1cbe <strtod+0x1b4>
    1c80:	60 e0       	ldi	r22, 0x00	; 0
    1c82:	70 e0       	ldi	r23, 0x00	; 0
    1c84:	60 38       	cpi	r22, 0x80	; 128
    1c86:	9c e0       	ldi	r25, 0x0C	; 12
    1c88:	79 07       	cpc	r23, r25
    1c8a:	5c f4       	brge	.+22     	; 0x1ca2 <strtod+0x198>
    1c8c:	db 01       	movw	r26, r22
    1c8e:	aa 0f       	add	r26, r26
    1c90:	bb 1f       	adc	r27, r27
    1c92:	aa 0f       	add	r26, r26
    1c94:	bb 1f       	adc	r27, r27
    1c96:	6a 0f       	add	r22, r26
    1c98:	7b 1f       	adc	r23, r27
    1c9a:	66 0f       	add	r22, r22
    1c9c:	77 1f       	adc	r23, r23
    1c9e:	68 0f       	add	r22, r24
    1ca0:	71 1d       	adc	r23, r1
    1ca2:	31 96       	adiw	r30, 0x01	; 1
    1ca4:	df 01       	movw	r26, r30
    1ca6:	11 97       	sbiw	r26, 0x01	; 1
    1ca8:	8c 91       	ld	r24, X
    1caa:	80 53       	subi	r24, 0x30	; 48
    1cac:	8a 30       	cpi	r24, 0x0A	; 10
    1cae:	50 f3       	brcs	.-44     	; 0x1c84 <strtod+0x17a>
    1cb0:	14 ff       	sbrs	r17, 4
    1cb2:	03 c0       	rjmp	.+6      	; 0x1cba <strtod+0x1b0>
    1cb4:	71 95       	neg	r23
    1cb6:	61 95       	neg	r22
    1cb8:	71 09       	sbc	r23, r1
    1cba:	c6 0f       	add	r28, r22
    1cbc:	d7 1f       	adc	r29, r23
    1cbe:	11 ff       	sbrs	r17, 1
    1cc0:	08 c0       	rjmp	.+16     	; 0x1cd2 <strtod+0x1c8>
    1cc2:	c1 14       	cp	r12, r1
    1cc4:	d1 04       	cpc	r13, r1
    1cc6:	29 f0       	breq	.+10     	; 0x1cd2 <strtod+0x1c8>
    1cc8:	cf 01       	movw	r24, r30
    1cca:	01 97       	sbiw	r24, 0x01	; 1
    1ccc:	f6 01       	movw	r30, r12
    1cce:	91 83       	std	Z+1, r25	; 0x01
    1cd0:	80 83       	st	Z, r24
    1cd2:	ca 01       	movw	r24, r20
    1cd4:	b9 01       	movw	r22, r18
    1cd6:	0e 94 70 08 	call	0x10e0	; 0x10e0 <__floatunsisf>
    1cda:	21 2f       	mov	r18, r17
    1cdc:	23 70       	andi	r18, 0x03	; 3
    1cde:	23 30       	cpi	r18, 0x03	; 3
    1ce0:	19 f0       	breq	.+6      	; 0x1ce8 <strtod+0x1de>
    1ce2:	4b 01       	movw	r8, r22
    1ce4:	5c 01       	movw	r10, r24
    1ce6:	06 c0       	rjmp	.+12     	; 0x1cf4 <strtod+0x1ea>
    1ce8:	4b 01       	movw	r8, r22
    1cea:	5c 01       	movw	r10, r24
    1cec:	b7 fa       	bst	r11, 7
    1cee:	b0 94       	com	r11
    1cf0:	b7 f8       	bld	r11, 7
    1cf2:	b0 94       	com	r11
    1cf4:	20 e0       	ldi	r18, 0x00	; 0
    1cf6:	30 e0       	ldi	r19, 0x00	; 0
    1cf8:	a9 01       	movw	r20, r18
    1cfa:	c5 01       	movw	r24, r10
    1cfc:	b4 01       	movw	r22, r8
    1cfe:	0e 94 c3 07 	call	0xf86	; 0xf86 <__cmpsf2>
    1d02:	88 23       	and	r24, r24
    1d04:	09 f4       	brne	.+2      	; 0x1d08 <strtod+0x1fe>
    1d06:	3e c0       	rjmp	.+124    	; 0x1d84 <strtod+0x27a>
    1d08:	d7 ff       	sbrs	r29, 7
    1d0a:	06 c0       	rjmp	.+12     	; 0x1d18 <strtod+0x20e>
    1d0c:	d1 95       	neg	r29
    1d0e:	c1 95       	neg	r28
    1d10:	d1 09       	sbc	r29, r1
    1d12:	03 e7       	ldi	r16, 0x73	; 115
    1d14:	10 e0       	ldi	r17, 0x00	; 0
    1d16:	02 c0       	rjmp	.+4      	; 0x1d1c <strtod+0x212>
    1d18:	0b e8       	ldi	r16, 0x8B	; 139
    1d1a:	10 e0       	ldi	r17, 0x00	; 0
    1d1c:	68 01       	movw	r12, r16
    1d1e:	f8 e1       	ldi	r31, 0x18	; 24
    1d20:	cf 1a       	sub	r12, r31
    1d22:	d1 08       	sbc	r13, r1
    1d24:	90 e2       	ldi	r25, 0x20	; 32
    1d26:	e9 2e       	mov	r14, r25
    1d28:	f1 2c       	mov	r15, r1
    1d2a:	ce 15       	cp	r28, r14
    1d2c:	df 05       	cpc	r29, r15
    1d2e:	74 f0       	brlt	.+28     	; 0x1d4c <strtod+0x242>
    1d30:	f8 01       	movw	r30, r16
    1d32:	25 91       	lpm	r18, Z+
    1d34:	35 91       	lpm	r19, Z+
    1d36:	45 91       	lpm	r20, Z+
    1d38:	54 91       	lpm	r21, Z
    1d3a:	c5 01       	movw	r24, r10
    1d3c:	b4 01       	movw	r22, r8
    1d3e:	0e 94 27 09 	call	0x124e	; 0x124e <__mulsf3>
    1d42:	4b 01       	movw	r8, r22
    1d44:	5c 01       	movw	r10, r24
    1d46:	ce 19       	sub	r28, r14
    1d48:	df 09       	sbc	r29, r15
    1d4a:	ef cf       	rjmp	.-34     	; 0x1d2a <strtod+0x220>
    1d4c:	04 50       	subi	r16, 0x04	; 4
    1d4e:	11 09       	sbc	r17, r1
    1d50:	f5 94       	asr	r15
    1d52:	e7 94       	ror	r14
    1d54:	0c 15       	cp	r16, r12
    1d56:	1d 05       	cpc	r17, r13
    1d58:	41 f7       	brne	.-48     	; 0x1d2a <strtod+0x220>
    1d5a:	8a 2d       	mov	r24, r10
    1d5c:	88 0f       	add	r24, r24
    1d5e:	8b 2d       	mov	r24, r11
    1d60:	88 1f       	adc	r24, r24
    1d62:	8f 3f       	cpi	r24, 0xFF	; 255
    1d64:	49 f0       	breq	.+18     	; 0x1d78 <strtod+0x26e>
    1d66:	20 e0       	ldi	r18, 0x00	; 0
    1d68:	30 e0       	ldi	r19, 0x00	; 0
    1d6a:	a9 01       	movw	r20, r18
    1d6c:	c5 01       	movw	r24, r10
    1d6e:	b4 01       	movw	r22, r8
    1d70:	0e 94 c3 07 	call	0xf86	; 0xf86 <__cmpsf2>
    1d74:	81 11       	cpse	r24, r1
    1d76:	06 c0       	rjmp	.+12     	; 0x1d84 <strtod+0x27a>
    1d78:	82 e2       	ldi	r24, 0x22	; 34
    1d7a:	90 e0       	ldi	r25, 0x00	; 0
    1d7c:	90 93 4c 02 	sts	0x024C, r25	; 0x80024c <errno+0x1>
    1d80:	80 93 4b 02 	sts	0x024B, r24	; 0x80024b <errno>
    1d84:	c5 01       	movw	r24, r10
    1d86:	b4 01       	movw	r22, r8
    1d88:	09 c0       	rjmp	.+18     	; 0x1d9c <strtod+0x292>
    1d8a:	60 e0       	ldi	r22, 0x00	; 0
    1d8c:	70 e0       	ldi	r23, 0x00	; 0
    1d8e:	80 e8       	ldi	r24, 0x80	; 128
    1d90:	9f ef       	ldi	r25, 0xFF	; 255
    1d92:	04 c0       	rjmp	.+8      	; 0x1d9c <strtod+0x292>
    1d94:	60 e0       	ldi	r22, 0x00	; 0
    1d96:	70 e0       	ldi	r23, 0x00	; 0
    1d98:	80 ec       	ldi	r24, 0xC0	; 192
    1d9a:	9f e7       	ldi	r25, 0x7F	; 127
    1d9c:	cd b7       	in	r28, 0x3d	; 61
    1d9e:	de b7       	in	r29, 0x3e	; 62
    1da0:	ec e0       	ldi	r30, 0x0C	; 12
    1da2:	0c 94 ac 10 	jmp	0x2158	; 0x2158 <__epilogue_restores__+0xc>

00001da6 <__ftoa_engine>:
    1da6:	28 30       	cpi	r18, 0x08	; 8
    1da8:	08 f0       	brcs	.+2      	; 0x1dac <__ftoa_engine+0x6>
    1daa:	27 e0       	ldi	r18, 0x07	; 7
    1dac:	33 27       	eor	r19, r19
    1dae:	da 01       	movw	r26, r20
    1db0:	99 0f       	add	r25, r25
    1db2:	31 1d       	adc	r19, r1
    1db4:	87 fd       	sbrc	r24, 7
    1db6:	91 60       	ori	r25, 0x01	; 1
    1db8:	00 96       	adiw	r24, 0x00	; 0
    1dba:	61 05       	cpc	r22, r1
    1dbc:	71 05       	cpc	r23, r1
    1dbe:	39 f4       	brne	.+14     	; 0x1dce <__ftoa_engine+0x28>
    1dc0:	32 60       	ori	r19, 0x02	; 2
    1dc2:	2e 5f       	subi	r18, 0xFE	; 254
    1dc4:	3d 93       	st	X+, r19
    1dc6:	30 e3       	ldi	r19, 0x30	; 48
    1dc8:	2a 95       	dec	r18
    1dca:	e1 f7       	brne	.-8      	; 0x1dc4 <__ftoa_engine+0x1e>
    1dcc:	08 95       	ret
    1dce:	9f 3f       	cpi	r25, 0xFF	; 255
    1dd0:	30 f0       	brcs	.+12     	; 0x1dde <__ftoa_engine+0x38>
    1dd2:	80 38       	cpi	r24, 0x80	; 128
    1dd4:	71 05       	cpc	r23, r1
    1dd6:	61 05       	cpc	r22, r1
    1dd8:	09 f0       	breq	.+2      	; 0x1ddc <__ftoa_engine+0x36>
    1dda:	3c 5f       	subi	r19, 0xFC	; 252
    1ddc:	3c 5f       	subi	r19, 0xFC	; 252
    1dde:	3d 93       	st	X+, r19
    1de0:	91 30       	cpi	r25, 0x01	; 1
    1de2:	08 f0       	brcs	.+2      	; 0x1de6 <__ftoa_engine+0x40>
    1de4:	80 68       	ori	r24, 0x80	; 128
    1de6:	91 1d       	adc	r25, r1
    1de8:	df 93       	push	r29
    1dea:	cf 93       	push	r28
    1dec:	1f 93       	push	r17
    1dee:	0f 93       	push	r16
    1df0:	ff 92       	push	r15
    1df2:	ef 92       	push	r14
    1df4:	19 2f       	mov	r17, r25
    1df6:	98 7f       	andi	r25, 0xF8	; 248
    1df8:	96 95       	lsr	r25
    1dfa:	e9 2f       	mov	r30, r25
    1dfc:	96 95       	lsr	r25
    1dfe:	96 95       	lsr	r25
    1e00:	e9 0f       	add	r30, r25
    1e02:	ff 27       	eor	r31, r31
    1e04:	e7 51       	subi	r30, 0x17	; 23
    1e06:	ff 4f       	sbci	r31, 0xFF	; 255
    1e08:	99 27       	eor	r25, r25
    1e0a:	33 27       	eor	r19, r19
    1e0c:	ee 24       	eor	r14, r14
    1e0e:	ff 24       	eor	r15, r15
    1e10:	a7 01       	movw	r20, r14
    1e12:	e7 01       	movw	r28, r14
    1e14:	05 90       	lpm	r0, Z+
    1e16:	08 94       	sec
    1e18:	07 94       	ror	r0
    1e1a:	28 f4       	brcc	.+10     	; 0x1e26 <__ftoa_engine+0x80>
    1e1c:	36 0f       	add	r19, r22
    1e1e:	e7 1e       	adc	r14, r23
    1e20:	f8 1e       	adc	r15, r24
    1e22:	49 1f       	adc	r20, r25
    1e24:	51 1d       	adc	r21, r1
    1e26:	66 0f       	add	r22, r22
    1e28:	77 1f       	adc	r23, r23
    1e2a:	88 1f       	adc	r24, r24
    1e2c:	99 1f       	adc	r25, r25
    1e2e:	06 94       	lsr	r0
    1e30:	a1 f7       	brne	.-24     	; 0x1e1a <__ftoa_engine+0x74>
    1e32:	05 90       	lpm	r0, Z+
    1e34:	07 94       	ror	r0
    1e36:	28 f4       	brcc	.+10     	; 0x1e42 <__ftoa_engine+0x9c>
    1e38:	e7 0e       	add	r14, r23
    1e3a:	f8 1e       	adc	r15, r24
    1e3c:	49 1f       	adc	r20, r25
    1e3e:	56 1f       	adc	r21, r22
    1e40:	c1 1d       	adc	r28, r1
    1e42:	77 0f       	add	r23, r23
    1e44:	88 1f       	adc	r24, r24
    1e46:	99 1f       	adc	r25, r25
    1e48:	66 1f       	adc	r22, r22
    1e4a:	06 94       	lsr	r0
    1e4c:	a1 f7       	brne	.-24     	; 0x1e36 <__ftoa_engine+0x90>
    1e4e:	05 90       	lpm	r0, Z+
    1e50:	07 94       	ror	r0
    1e52:	28 f4       	brcc	.+10     	; 0x1e5e <__ftoa_engine+0xb8>
    1e54:	f8 0e       	add	r15, r24
    1e56:	49 1f       	adc	r20, r25
    1e58:	56 1f       	adc	r21, r22
    1e5a:	c7 1f       	adc	r28, r23
    1e5c:	d1 1d       	adc	r29, r1
    1e5e:	88 0f       	add	r24, r24
    1e60:	99 1f       	adc	r25, r25
    1e62:	66 1f       	adc	r22, r22
    1e64:	77 1f       	adc	r23, r23
    1e66:	06 94       	lsr	r0
    1e68:	a1 f7       	brne	.-24     	; 0x1e52 <__ftoa_engine+0xac>
    1e6a:	05 90       	lpm	r0, Z+
    1e6c:	07 94       	ror	r0
    1e6e:	20 f4       	brcc	.+8      	; 0x1e78 <__ftoa_engine+0xd2>
    1e70:	49 0f       	add	r20, r25
    1e72:	56 1f       	adc	r21, r22
    1e74:	c7 1f       	adc	r28, r23
    1e76:	d8 1f       	adc	r29, r24
    1e78:	99 0f       	add	r25, r25
    1e7a:	66 1f       	adc	r22, r22
    1e7c:	77 1f       	adc	r23, r23
    1e7e:	88 1f       	adc	r24, r24
    1e80:	06 94       	lsr	r0
    1e82:	a9 f7       	brne	.-22     	; 0x1e6e <__ftoa_engine+0xc8>
    1e84:	84 91       	lpm	r24, Z
    1e86:	10 95       	com	r17
    1e88:	17 70       	andi	r17, 0x07	; 7
    1e8a:	41 f0       	breq	.+16     	; 0x1e9c <__ftoa_engine+0xf6>
    1e8c:	d6 95       	lsr	r29
    1e8e:	c7 95       	ror	r28
    1e90:	57 95       	ror	r21
    1e92:	47 95       	ror	r20
    1e94:	f7 94       	ror	r15
    1e96:	e7 94       	ror	r14
    1e98:	1a 95       	dec	r17
    1e9a:	c1 f7       	brne	.-16     	; 0x1e8c <__ftoa_engine+0xe6>
    1e9c:	ef e8       	ldi	r30, 0x8F	; 143
    1e9e:	f0 e0       	ldi	r31, 0x00	; 0
    1ea0:	68 94       	set
    1ea2:	15 90       	lpm	r1, Z+
    1ea4:	15 91       	lpm	r17, Z+
    1ea6:	35 91       	lpm	r19, Z+
    1ea8:	65 91       	lpm	r22, Z+
    1eaa:	95 91       	lpm	r25, Z+
    1eac:	05 90       	lpm	r0, Z+
    1eae:	7f e2       	ldi	r23, 0x2F	; 47
    1eb0:	73 95       	inc	r23
    1eb2:	e1 18       	sub	r14, r1
    1eb4:	f1 0a       	sbc	r15, r17
    1eb6:	43 0b       	sbc	r20, r19
    1eb8:	56 0b       	sbc	r21, r22
    1eba:	c9 0b       	sbc	r28, r25
    1ebc:	d0 09       	sbc	r29, r0
    1ebe:	c0 f7       	brcc	.-16     	; 0x1eb0 <__ftoa_engine+0x10a>
    1ec0:	e1 0c       	add	r14, r1
    1ec2:	f1 1e       	adc	r15, r17
    1ec4:	43 1f       	adc	r20, r19
    1ec6:	56 1f       	adc	r21, r22
    1ec8:	c9 1f       	adc	r28, r25
    1eca:	d0 1d       	adc	r29, r0
    1ecc:	7e f4       	brtc	.+30     	; 0x1eec <__ftoa_engine+0x146>
    1ece:	70 33       	cpi	r23, 0x30	; 48
    1ed0:	11 f4       	brne	.+4      	; 0x1ed6 <__ftoa_engine+0x130>
    1ed2:	8a 95       	dec	r24
    1ed4:	e6 cf       	rjmp	.-52     	; 0x1ea2 <__ftoa_engine+0xfc>
    1ed6:	e8 94       	clt
    1ed8:	01 50       	subi	r16, 0x01	; 1
    1eda:	30 f0       	brcs	.+12     	; 0x1ee8 <__ftoa_engine+0x142>
    1edc:	08 0f       	add	r16, r24
    1ede:	0a f4       	brpl	.+2      	; 0x1ee2 <__ftoa_engine+0x13c>
    1ee0:	00 27       	eor	r16, r16
    1ee2:	02 17       	cp	r16, r18
    1ee4:	08 f4       	brcc	.+2      	; 0x1ee8 <__ftoa_engine+0x142>
    1ee6:	20 2f       	mov	r18, r16
    1ee8:	23 95       	inc	r18
    1eea:	02 2f       	mov	r16, r18
    1eec:	7a 33       	cpi	r23, 0x3A	; 58
    1eee:	28 f0       	brcs	.+10     	; 0x1efa <__ftoa_engine+0x154>
    1ef0:	79 e3       	ldi	r23, 0x39	; 57
    1ef2:	7d 93       	st	X+, r23
    1ef4:	2a 95       	dec	r18
    1ef6:	e9 f7       	brne	.-6      	; 0x1ef2 <__ftoa_engine+0x14c>
    1ef8:	10 c0       	rjmp	.+32     	; 0x1f1a <__ftoa_engine+0x174>
    1efa:	7d 93       	st	X+, r23
    1efc:	2a 95       	dec	r18
    1efe:	89 f6       	brne	.-94     	; 0x1ea2 <__ftoa_engine+0xfc>
    1f00:	06 94       	lsr	r0
    1f02:	97 95       	ror	r25
    1f04:	67 95       	ror	r22
    1f06:	37 95       	ror	r19
    1f08:	17 95       	ror	r17
    1f0a:	17 94       	ror	r1
    1f0c:	e1 18       	sub	r14, r1
    1f0e:	f1 0a       	sbc	r15, r17
    1f10:	43 0b       	sbc	r20, r19
    1f12:	56 0b       	sbc	r21, r22
    1f14:	c9 0b       	sbc	r28, r25
    1f16:	d0 09       	sbc	r29, r0
    1f18:	98 f0       	brcs	.+38     	; 0x1f40 <__ftoa_engine+0x19a>
    1f1a:	23 95       	inc	r18
    1f1c:	7e 91       	ld	r23, -X
    1f1e:	73 95       	inc	r23
    1f20:	7a 33       	cpi	r23, 0x3A	; 58
    1f22:	08 f0       	brcs	.+2      	; 0x1f26 <__ftoa_engine+0x180>
    1f24:	70 e3       	ldi	r23, 0x30	; 48
    1f26:	7c 93       	st	X, r23
    1f28:	20 13       	cpse	r18, r16
    1f2a:	b8 f7       	brcc	.-18     	; 0x1f1a <__ftoa_engine+0x174>
    1f2c:	7e 91       	ld	r23, -X
    1f2e:	70 61       	ori	r23, 0x10	; 16
    1f30:	7d 93       	st	X+, r23
    1f32:	30 f0       	brcs	.+12     	; 0x1f40 <__ftoa_engine+0x19a>
    1f34:	83 95       	inc	r24
    1f36:	71 e3       	ldi	r23, 0x31	; 49
    1f38:	7d 93       	st	X+, r23
    1f3a:	70 e3       	ldi	r23, 0x30	; 48
    1f3c:	2a 95       	dec	r18
    1f3e:	e1 f7       	brne	.-8      	; 0x1f38 <__ftoa_engine+0x192>
    1f40:	11 24       	eor	r1, r1
    1f42:	ef 90       	pop	r14
    1f44:	ff 90       	pop	r15
    1f46:	0f 91       	pop	r16
    1f48:	1f 91       	pop	r17
    1f4a:	cf 91       	pop	r28
    1f4c:	df 91       	pop	r29
    1f4e:	99 27       	eor	r25, r25
    1f50:	87 fd       	sbrc	r24, 7
    1f52:	90 95       	com	r25
    1f54:	08 95       	ret

00001f56 <isspace>:
    1f56:	91 11       	cpse	r25, r1
    1f58:	0c 94 7c 10 	jmp	0x20f8	; 0x20f8 <__ctype_isfalse>
    1f5c:	80 32       	cpi	r24, 0x20	; 32
    1f5e:	19 f0       	breq	.+6      	; 0x1f66 <isspace+0x10>
    1f60:	89 50       	subi	r24, 0x09	; 9
    1f62:	85 50       	subi	r24, 0x05	; 5
    1f64:	c8 f7       	brcc	.-14     	; 0x1f58 <isspace+0x2>
    1f66:	08 95       	ret

00001f68 <strncasecmp_P>:
    1f68:	fb 01       	movw	r30, r22
    1f6a:	dc 01       	movw	r26, r24
    1f6c:	41 50       	subi	r20, 0x01	; 1
    1f6e:	50 40       	sbci	r21, 0x00	; 0
    1f70:	88 f0       	brcs	.+34     	; 0x1f94 <strncasecmp_P+0x2c>
    1f72:	8d 91       	ld	r24, X+
    1f74:	81 34       	cpi	r24, 0x41	; 65
    1f76:	1c f0       	brlt	.+6      	; 0x1f7e <strncasecmp_P+0x16>
    1f78:	8b 35       	cpi	r24, 0x5B	; 91
    1f7a:	0c f4       	brge	.+2      	; 0x1f7e <strncasecmp_P+0x16>
    1f7c:	80 5e       	subi	r24, 0xE0	; 224
    1f7e:	65 91       	lpm	r22, Z+
    1f80:	61 34       	cpi	r22, 0x41	; 65
    1f82:	1c f0       	brlt	.+6      	; 0x1f8a <strncasecmp_P+0x22>
    1f84:	6b 35       	cpi	r22, 0x5B	; 91
    1f86:	0c f4       	brge	.+2      	; 0x1f8a <strncasecmp_P+0x22>
    1f88:	60 5e       	subi	r22, 0xE0	; 224
    1f8a:	86 1b       	sub	r24, r22
    1f8c:	61 11       	cpse	r22, r1
    1f8e:	71 f3       	breq	.-36     	; 0x1f6c <strncasecmp_P+0x4>
    1f90:	99 0b       	sbc	r25, r25
    1f92:	08 95       	ret
    1f94:	88 1b       	sub	r24, r24
    1f96:	fc cf       	rjmp	.-8      	; 0x1f90 <strncasecmp_P+0x28>

00001f98 <strnlen_P>:
    1f98:	fc 01       	movw	r30, r24
    1f9a:	05 90       	lpm	r0, Z+
    1f9c:	61 50       	subi	r22, 0x01	; 1
    1f9e:	70 40       	sbci	r23, 0x00	; 0
    1fa0:	01 10       	cpse	r0, r1
    1fa2:	d8 f7       	brcc	.-10     	; 0x1f9a <strnlen_P+0x2>
    1fa4:	80 95       	com	r24
    1fa6:	90 95       	com	r25
    1fa8:	8e 0f       	add	r24, r30
    1faa:	9f 1f       	adc	r25, r31
    1fac:	08 95       	ret

00001fae <strnlen>:
    1fae:	fc 01       	movw	r30, r24
    1fb0:	61 50       	subi	r22, 0x01	; 1
    1fb2:	70 40       	sbci	r23, 0x00	; 0
    1fb4:	01 90       	ld	r0, Z+
    1fb6:	01 10       	cpse	r0, r1
    1fb8:	d8 f7       	brcc	.-10     	; 0x1fb0 <strnlen+0x2>
    1fba:	80 95       	com	r24
    1fbc:	90 95       	com	r25
    1fbe:	8e 0f       	add	r24, r30
    1fc0:	9f 1f       	adc	r25, r31
    1fc2:	08 95       	ret

00001fc4 <fputc>:
    1fc4:	0f 93       	push	r16
    1fc6:	1f 93       	push	r17
    1fc8:	cf 93       	push	r28
    1fca:	df 93       	push	r29
    1fcc:	fb 01       	movw	r30, r22
    1fce:	23 81       	ldd	r18, Z+3	; 0x03
    1fd0:	21 fd       	sbrc	r18, 1
    1fd2:	03 c0       	rjmp	.+6      	; 0x1fda <fputc+0x16>
    1fd4:	8f ef       	ldi	r24, 0xFF	; 255
    1fd6:	9f ef       	ldi	r25, 0xFF	; 255
    1fd8:	2c c0       	rjmp	.+88     	; 0x2032 <fputc+0x6e>
    1fda:	22 ff       	sbrs	r18, 2
    1fdc:	16 c0       	rjmp	.+44     	; 0x200a <fputc+0x46>
    1fde:	46 81       	ldd	r20, Z+6	; 0x06
    1fe0:	57 81       	ldd	r21, Z+7	; 0x07
    1fe2:	24 81       	ldd	r18, Z+4	; 0x04
    1fe4:	35 81       	ldd	r19, Z+5	; 0x05
    1fe6:	42 17       	cp	r20, r18
    1fe8:	53 07       	cpc	r21, r19
    1fea:	44 f4       	brge	.+16     	; 0x1ffc <fputc+0x38>
    1fec:	a0 81       	ld	r26, Z
    1fee:	b1 81       	ldd	r27, Z+1	; 0x01
    1ff0:	9d 01       	movw	r18, r26
    1ff2:	2f 5f       	subi	r18, 0xFF	; 255
    1ff4:	3f 4f       	sbci	r19, 0xFF	; 255
    1ff6:	31 83       	std	Z+1, r19	; 0x01
    1ff8:	20 83       	st	Z, r18
    1ffa:	8c 93       	st	X, r24
    1ffc:	26 81       	ldd	r18, Z+6	; 0x06
    1ffe:	37 81       	ldd	r19, Z+7	; 0x07
    2000:	2f 5f       	subi	r18, 0xFF	; 255
    2002:	3f 4f       	sbci	r19, 0xFF	; 255
    2004:	37 83       	std	Z+7, r19	; 0x07
    2006:	26 83       	std	Z+6, r18	; 0x06
    2008:	14 c0       	rjmp	.+40     	; 0x2032 <fputc+0x6e>
    200a:	8b 01       	movw	r16, r22
    200c:	ec 01       	movw	r28, r24
    200e:	fb 01       	movw	r30, r22
    2010:	00 84       	ldd	r0, Z+8	; 0x08
    2012:	f1 85       	ldd	r31, Z+9	; 0x09
    2014:	e0 2d       	mov	r30, r0
    2016:	09 95       	icall
    2018:	89 2b       	or	r24, r25
    201a:	e1 f6       	brne	.-72     	; 0x1fd4 <fputc+0x10>
    201c:	d8 01       	movw	r26, r16
    201e:	16 96       	adiw	r26, 0x06	; 6
    2020:	8d 91       	ld	r24, X+
    2022:	9c 91       	ld	r25, X
    2024:	17 97       	sbiw	r26, 0x07	; 7
    2026:	01 96       	adiw	r24, 0x01	; 1
    2028:	17 96       	adiw	r26, 0x07	; 7
    202a:	9c 93       	st	X, r25
    202c:	8e 93       	st	-X, r24
    202e:	16 97       	sbiw	r26, 0x06	; 6
    2030:	ce 01       	movw	r24, r28
    2032:	df 91       	pop	r29
    2034:	cf 91       	pop	r28
    2036:	1f 91       	pop	r17
    2038:	0f 91       	pop	r16
    203a:	08 95       	ret

0000203c <__ultoa_invert>:
    203c:	fa 01       	movw	r30, r20
    203e:	aa 27       	eor	r26, r26
    2040:	28 30       	cpi	r18, 0x08	; 8
    2042:	51 f1       	breq	.+84     	; 0x2098 <__ultoa_invert+0x5c>
    2044:	20 31       	cpi	r18, 0x10	; 16
    2046:	81 f1       	breq	.+96     	; 0x20a8 <__ultoa_invert+0x6c>
    2048:	e8 94       	clt
    204a:	6f 93       	push	r22
    204c:	6e 7f       	andi	r22, 0xFE	; 254
    204e:	6e 5f       	subi	r22, 0xFE	; 254
    2050:	7f 4f       	sbci	r23, 0xFF	; 255
    2052:	8f 4f       	sbci	r24, 0xFF	; 255
    2054:	9f 4f       	sbci	r25, 0xFF	; 255
    2056:	af 4f       	sbci	r26, 0xFF	; 255
    2058:	b1 e0       	ldi	r27, 0x01	; 1
    205a:	3e d0       	rcall	.+124    	; 0x20d8 <__ultoa_invert+0x9c>
    205c:	b4 e0       	ldi	r27, 0x04	; 4
    205e:	3c d0       	rcall	.+120    	; 0x20d8 <__ultoa_invert+0x9c>
    2060:	67 0f       	add	r22, r23
    2062:	78 1f       	adc	r23, r24
    2064:	89 1f       	adc	r24, r25
    2066:	9a 1f       	adc	r25, r26
    2068:	a1 1d       	adc	r26, r1
    206a:	68 0f       	add	r22, r24
    206c:	79 1f       	adc	r23, r25
    206e:	8a 1f       	adc	r24, r26
    2070:	91 1d       	adc	r25, r1
    2072:	a1 1d       	adc	r26, r1
    2074:	6a 0f       	add	r22, r26
    2076:	71 1d       	adc	r23, r1
    2078:	81 1d       	adc	r24, r1
    207a:	91 1d       	adc	r25, r1
    207c:	a1 1d       	adc	r26, r1
    207e:	20 d0       	rcall	.+64     	; 0x20c0 <__ultoa_invert+0x84>
    2080:	09 f4       	brne	.+2      	; 0x2084 <__ultoa_invert+0x48>
    2082:	68 94       	set
    2084:	3f 91       	pop	r19
    2086:	2a e0       	ldi	r18, 0x0A	; 10
    2088:	26 9f       	mul	r18, r22
    208a:	11 24       	eor	r1, r1
    208c:	30 19       	sub	r19, r0
    208e:	30 5d       	subi	r19, 0xD0	; 208
    2090:	31 93       	st	Z+, r19
    2092:	de f6       	brtc	.-74     	; 0x204a <__ultoa_invert+0xe>
    2094:	cf 01       	movw	r24, r30
    2096:	08 95       	ret
    2098:	46 2f       	mov	r20, r22
    209a:	47 70       	andi	r20, 0x07	; 7
    209c:	40 5d       	subi	r20, 0xD0	; 208
    209e:	41 93       	st	Z+, r20
    20a0:	b3 e0       	ldi	r27, 0x03	; 3
    20a2:	0f d0       	rcall	.+30     	; 0x20c2 <__ultoa_invert+0x86>
    20a4:	c9 f7       	brne	.-14     	; 0x2098 <__ultoa_invert+0x5c>
    20a6:	f6 cf       	rjmp	.-20     	; 0x2094 <__ultoa_invert+0x58>
    20a8:	46 2f       	mov	r20, r22
    20aa:	4f 70       	andi	r20, 0x0F	; 15
    20ac:	40 5d       	subi	r20, 0xD0	; 208
    20ae:	4a 33       	cpi	r20, 0x3A	; 58
    20b0:	18 f0       	brcs	.+6      	; 0x20b8 <__ultoa_invert+0x7c>
    20b2:	49 5d       	subi	r20, 0xD9	; 217
    20b4:	31 fd       	sbrc	r19, 1
    20b6:	40 52       	subi	r20, 0x20	; 32
    20b8:	41 93       	st	Z+, r20
    20ba:	02 d0       	rcall	.+4      	; 0x20c0 <__ultoa_invert+0x84>
    20bc:	a9 f7       	brne	.-22     	; 0x20a8 <__ultoa_invert+0x6c>
    20be:	ea cf       	rjmp	.-44     	; 0x2094 <__ultoa_invert+0x58>
    20c0:	b4 e0       	ldi	r27, 0x04	; 4
    20c2:	a6 95       	lsr	r26
    20c4:	97 95       	ror	r25
    20c6:	87 95       	ror	r24
    20c8:	77 95       	ror	r23
    20ca:	67 95       	ror	r22
    20cc:	ba 95       	dec	r27
    20ce:	c9 f7       	brne	.-14     	; 0x20c2 <__ultoa_invert+0x86>
    20d0:	00 97       	sbiw	r24, 0x00	; 0
    20d2:	61 05       	cpc	r22, r1
    20d4:	71 05       	cpc	r23, r1
    20d6:	08 95       	ret
    20d8:	9b 01       	movw	r18, r22
    20da:	ac 01       	movw	r20, r24
    20dc:	0a 2e       	mov	r0, r26
    20de:	06 94       	lsr	r0
    20e0:	57 95       	ror	r21
    20e2:	47 95       	ror	r20
    20e4:	37 95       	ror	r19
    20e6:	27 95       	ror	r18
    20e8:	ba 95       	dec	r27
    20ea:	c9 f7       	brne	.-14     	; 0x20de <__ultoa_invert+0xa2>
    20ec:	62 0f       	add	r22, r18
    20ee:	73 1f       	adc	r23, r19
    20f0:	84 1f       	adc	r24, r20
    20f2:	95 1f       	adc	r25, r21
    20f4:	a0 1d       	adc	r26, r0
    20f6:	08 95       	ret

000020f8 <__ctype_isfalse>:
    20f8:	99 27       	eor	r25, r25
    20fa:	88 27       	eor	r24, r24

000020fc <__ctype_istrue>:
    20fc:	08 95       	ret

000020fe <__muluhisi3>:
    20fe:	0e 94 c1 10 	call	0x2182	; 0x2182 <__umulhisi3>
    2102:	a5 9f       	mul	r26, r21
    2104:	90 0d       	add	r25, r0
    2106:	b4 9f       	mul	r27, r20
    2108:	90 0d       	add	r25, r0
    210a:	a4 9f       	mul	r26, r20
    210c:	80 0d       	add	r24, r0
    210e:	91 1d       	adc	r25, r1
    2110:	11 24       	eor	r1, r1
    2112:	08 95       	ret

00002114 <__prologue_saves__>:
    2114:	2f 92       	push	r2
    2116:	3f 92       	push	r3
    2118:	4f 92       	push	r4
    211a:	5f 92       	push	r5
    211c:	6f 92       	push	r6
    211e:	7f 92       	push	r7
    2120:	8f 92       	push	r8
    2122:	9f 92       	push	r9
    2124:	af 92       	push	r10
    2126:	bf 92       	push	r11
    2128:	cf 92       	push	r12
    212a:	df 92       	push	r13
    212c:	ef 92       	push	r14
    212e:	ff 92       	push	r15
    2130:	0f 93       	push	r16
    2132:	1f 93       	push	r17
    2134:	cf 93       	push	r28
    2136:	df 93       	push	r29
    2138:	cd b7       	in	r28, 0x3d	; 61
    213a:	de b7       	in	r29, 0x3e	; 62
    213c:	ca 1b       	sub	r28, r26
    213e:	db 0b       	sbc	r29, r27
    2140:	0f b6       	in	r0, 0x3f	; 63
    2142:	f8 94       	cli
    2144:	de bf       	out	0x3e, r29	; 62
    2146:	0f be       	out	0x3f, r0	; 63
    2148:	cd bf       	out	0x3d, r28	; 61
    214a:	09 94       	ijmp

0000214c <__epilogue_restores__>:
    214c:	2a 88       	ldd	r2, Y+18	; 0x12
    214e:	39 88       	ldd	r3, Y+17	; 0x11
    2150:	48 88       	ldd	r4, Y+16	; 0x10
    2152:	5f 84       	ldd	r5, Y+15	; 0x0f
    2154:	6e 84       	ldd	r6, Y+14	; 0x0e
    2156:	7d 84       	ldd	r7, Y+13	; 0x0d
    2158:	8c 84       	ldd	r8, Y+12	; 0x0c
    215a:	9b 84       	ldd	r9, Y+11	; 0x0b
    215c:	aa 84       	ldd	r10, Y+10	; 0x0a
    215e:	b9 84       	ldd	r11, Y+9	; 0x09
    2160:	c8 84       	ldd	r12, Y+8	; 0x08
    2162:	df 80       	ldd	r13, Y+7	; 0x07
    2164:	ee 80       	ldd	r14, Y+6	; 0x06
    2166:	fd 80       	ldd	r15, Y+5	; 0x05
    2168:	0c 81       	ldd	r16, Y+4	; 0x04
    216a:	1b 81       	ldd	r17, Y+3	; 0x03
    216c:	aa 81       	ldd	r26, Y+2	; 0x02
    216e:	b9 81       	ldd	r27, Y+1	; 0x01
    2170:	ce 0f       	add	r28, r30
    2172:	d1 1d       	adc	r29, r1
    2174:	0f b6       	in	r0, 0x3f	; 63
    2176:	f8 94       	cli
    2178:	de bf       	out	0x3e, r29	; 62
    217a:	0f be       	out	0x3f, r0	; 63
    217c:	cd bf       	out	0x3d, r28	; 61
    217e:	ed 01       	movw	r28, r26
    2180:	08 95       	ret

00002182 <__umulhisi3>:
    2182:	a2 9f       	mul	r26, r18
    2184:	b0 01       	movw	r22, r0
    2186:	b3 9f       	mul	r27, r19
    2188:	c0 01       	movw	r24, r0
    218a:	a3 9f       	mul	r26, r19
    218c:	70 0d       	add	r23, r0
    218e:	81 1d       	adc	r24, r1
    2190:	11 24       	eor	r1, r1
    2192:	91 1d       	adc	r25, r1
    2194:	b2 9f       	mul	r27, r18
    2196:	70 0d       	add	r23, r0
    2198:	81 1d       	adc	r24, r1
    219a:	11 24       	eor	r1, r1
    219c:	91 1d       	adc	r25, r1
    219e:	08 95       	ret

000021a0 <_exit>:
    21a0:	f8 94       	cli

000021a2 <__stop_program>:
    21a2:	ff cf       	rjmp	.-2      	; 0x21a2 <__stop_program>
