
FullCode.elf:     file format elf32-avr

Sections:
Idx Name          Size      VMA       LMA       File off  Algn
  0 .text         00001d8a  00000000  00000000  00000094  2**1
                  CONTENTS, ALLOC, LOAD, READONLY, CODE
  1 .data         00000146  00800060  00001d8a  00001e1e  2**0
                  CONTENTS, ALLOC, LOAD, DATA
  2 .bss          0000011e  008001a6  008001a6  00001f64  2**0
                  ALLOC
  3 .comment      0000005c  00000000  00000000  00001f64  2**0
                  CONTENTS, READONLY
  4 .note.gnu.avr.deviceinfo 0000003c  00000000  00000000  00001fc0  2**2
                  CONTENTS, READONLY
  5 .debug_aranges 00000178  00000000  00000000  00001ffc  2**0
                  CONTENTS, READONLY, DEBUGGING
  6 .debug_info   000022fa  00000000  00000000  00002174  2**0
                  CONTENTS, READONLY, DEBUGGING
  7 .debug_abbrev 00000883  00000000  00000000  0000446e  2**0
                  CONTENTS, READONLY, DEBUGGING
  8 .debug_line   00001175  00000000  00000000  00004cf1  2**0
                  CONTENTS, READONLY, DEBUGGING
  9 .debug_frame  0000043c  00000000  00000000  00005e68  2**2
                  CONTENTS, READONLY, DEBUGGING
 10 .debug_str    0000076b  00000000  00000000  000062a4  2**0
                  CONTENTS, READONLY, DEBUGGING
 11 .debug_loc    000018bc  00000000  00000000  00006a0f  2**0
                  CONTENTS, READONLY, DEBUGGING
 12 .debug_ranges 00000170  00000000  00000000  000082cb  2**0
                  CONTENTS, READONLY, DEBUGGING

Disassembly of section .text:

00000000 <__vectors>:
       0:	0c 94 c5 00 	jmp	0x18a	; 0x18a <__ctors_end>
       4:	0c 94 27 08 	jmp	0x104e	; 0x104e <__vector_1>
       8:	0c 94 e2 00 	jmp	0x1c4	; 0x1c4 <__bad_interrupt>
       c:	0c 94 e2 00 	jmp	0x1c4	; 0x1c4 <__bad_interrupt>
      10:	0c 94 e2 00 	jmp	0x1c4	; 0x1c4 <__bad_interrupt>
      14:	0c 94 e2 00 	jmp	0x1c4	; 0x1c4 <__bad_interrupt>
      18:	0c 94 e2 00 	jmp	0x1c4	; 0x1c4 <__bad_interrupt>
      1c:	0c 94 e2 00 	jmp	0x1c4	; 0x1c4 <__bad_interrupt>
      20:	0c 94 e2 00 	jmp	0x1c4	; 0x1c4 <__bad_interrupt>
      24:	0c 94 e2 00 	jmp	0x1c4	; 0x1c4 <__bad_interrupt>
      28:	0c 94 e2 00 	jmp	0x1c4	; 0x1c4 <__bad_interrupt>
      2c:	0c 94 e2 00 	jmp	0x1c4	; 0x1c4 <__bad_interrupt>
      30:	0c 94 e2 00 	jmp	0x1c4	; 0x1c4 <__bad_interrupt>
      34:	0c 94 51 03 	jmp	0x6a2	; 0x6a2 <__vector_13>
      38:	0c 94 e2 00 	jmp	0x1c4	; 0x1c4 <__bad_interrupt>
      3c:	0c 94 e2 00 	jmp	0x1c4	; 0x1c4 <__bad_interrupt>
      40:	0c 94 e2 00 	jmp	0x1c4	; 0x1c4 <__bad_interrupt>
      44:	0c 94 e2 00 	jmp	0x1c4	; 0x1c4 <__bad_interrupt>
      48:	0c 94 e2 00 	jmp	0x1c4	; 0x1c4 <__bad_interrupt>
      4c:	0c 94 e2 00 	jmp	0x1c4	; 0x1c4 <__bad_interrupt>
      50:	0c 94 e2 00 	jmp	0x1c4	; 0x1c4 <__bad_interrupt>

00000054 <__trampolines_end>:
      54:	4e 41       	sbci	r20, 0x1E	; 30
      56:	4e 49       	Address 0x00000056 is out of bounds.
.word	0xffff	; ????

00000057 <pstr_inity>:
      57:	49 4e 49 54 59                                      INITY

0000005c <pstr_inf>:
      5c:	49 4e 46                                            INF

0000005f <pwr_m10>:
      5f:	cd cc cc 3d 0a d7 23 3c 17 b7 d1 38 77 cc 2b 32     ...=..#<...8w.+2
      6f:	95 95 e6 24 1f b1 4f 0a                             ...$..O.

00000077 <pwr_p10>:
      77:	00 00 20 41 00 00 c8 42 00 40 1c 46 20 bc be 4c     .. A...B.@.F ..L
      87:	ca 1b 0e 5a ae c5 9d 74 00 40 7a 10 f3 5a 00 a0     ...Z...t.@z..Z..
      97:	72 4e 18 09 00 10 a5 d4 e8 00 00 e8 76 48 17 00     rN..........vH..
      a7:	00 e4 0b 54 02 00 00 ca 9a 3b 00 00 00 e1 f5 05     ...T.....;......
      b7:	00 00 80 96 98 00 00 00 40 42 0f 00 00 00 a0 86     ........@B......
      c7:	01 00 00 00 10 27 00 00 00 00 e8 03 00 00 00 00     .....'..........
      d7:	64 00 00 00 00 00 0a 00 00 00 00 00 01 00 00 00     d...............
      e7:	00 00 2c 76 d8 88 dc 67 4f 08 23 df c1 df ae 59     ..,v...gO.#....Y
      f7:	e1 b1 b7 96 e5 e3 e4 53 c6 3a e6 51 99 76 96 e8     .......S.:.Q.v..
     107:	e6 c2 84 26 eb 89 8c 9b 62 ed 40 7c 6f fc ef bc     ...&....b.@|o...
     117:	9c 9f 40 f2 ba a5 6f a5 f4 90 05 5a 2a f7 5c 93     ..@...o....Z*.\.
     127:	6b 6c f9 67 6d c1 1b fc e0 e4 0d 47 fe f5 20 e6     kl.gm......G.. .
     137:	b5 00 d0 ed 90 2e 03 00 94 35 77 05 00 80 84 1e     .........5w.....
     147:	08 00 00 20 4e 0a 00 00 00 c8 0c 33 33 33 33 0f     ... N......3333.
     157:	98 6e 12 83 11 41 ef 8d 21 14 89 3b e6 55 16 cf     .n...A..!..;.U..
     167:	fe e6 db 18 d1 84 4b 38 1b f7 7c 1d 90 1d a4 bb     ......K8..|.....
     177:	e4 24 20 32 84 72 5e 22 81 00 c9 f1 24 ec a1 e5     .$ 2.r^"....$...
     187:	3d 27 00                                            ='.

0000018a <__ctors_end>:
     18a:	11 24       	eor	r1, r1
     18c:	1f be       	out	0x3f, r1	; 63
     18e:	cf e5       	ldi	r28, 0x5F	; 95
     190:	d8 e0       	ldi	r29, 0x08	; 8
     192:	de bf       	out	0x3e, r29	; 62
     194:	cd bf       	out	0x3d, r28	; 61

00000196 <__do_copy_data>:
     196:	11 e0       	ldi	r17, 0x01	; 1
     198:	a0 e6       	ldi	r26, 0x60	; 96
     19a:	b0 e0       	ldi	r27, 0x00	; 0
     19c:	ea e8       	ldi	r30, 0x8A	; 138
     19e:	fd e1       	ldi	r31, 0x1D	; 29
     1a0:	02 c0       	rjmp	.+4      	; 0x1a6 <__do_copy_data+0x10>
     1a2:	05 90       	lpm	r0, Z+
     1a4:	0d 92       	st	X+, r0
     1a6:	a6 3a       	cpi	r26, 0xA6	; 166
     1a8:	b1 07       	cpc	r27, r17
     1aa:	d9 f7       	brne	.-10     	; 0x1a2 <__do_copy_data+0xc>

000001ac <__do_clear_bss>:
     1ac:	22 e0       	ldi	r18, 0x02	; 2
     1ae:	a6 ea       	ldi	r26, 0xA6	; 166
     1b0:	b1 e0       	ldi	r27, 0x01	; 1
     1b2:	01 c0       	rjmp	.+2      	; 0x1b6 <.do_clear_bss_start>

000001b4 <.do_clear_bss_loop>:
     1b4:	1d 92       	st	X+, r1

000001b6 <.do_clear_bss_start>:
     1b6:	a4 3c       	cpi	r26, 0xC4	; 196
     1b8:	b2 07       	cpc	r27, r18
     1ba:	e1 f7       	brne	.-8      	; 0x1b4 <.do_clear_bss_loop>
     1bc:	0e 94 df 06 	call	0xdbe	; 0xdbe <main>
     1c0:	0c 94 c3 0e 	jmp	0x1d86	; 0x1d86 <_exit>

000001c4 <__bad_interrupt>:
     1c4:	0c 94 00 00 	jmp	0	; 0x0 <__vectors>

000001c8 <I2C_Init>:
	return 1;												/* If yes then return 1 to indicate ack received i.e. ready to accept data byte */
	if (status == 0x20)										/* Check weather SLA+W transmitted & nack received or not? */
	return 2;												/* If yes then return 2 to indicate nack received i.e. device is busy */
	else
	return 3;												/* Else return 3 to indicate SLA+W failed */
}
     1c8:	11 b8       	out	0x01, r1	; 1
     1ca:	80 e2       	ldi	r24, 0x20	; 32
     1cc:	80 b9       	out	0x00, r24	; 0
     1ce:	08 95       	ret

000001d0 <I2C_Repeated_Start>:

uint8_t I2C_Repeated_Start(char slave_read_address)			/* I2C repeated start function */
{
	uint8_t status;											/* Declare variable */
	TWCR = (1<<TWSTA)|(1<<TWEN)|(1<<TWINT);					/* Enable TWI, generate start condition and clear interrupt flag */
     1d0:	94 ea       	ldi	r25, 0xA4	; 164
     1d2:	96 bf       	out	0x36, r25	; 54
	while (!(TWCR & (1<<TWINT)));							/* Wait until TWI finish its current job (start condition) */
     1d4:	06 b6       	in	r0, 0x36	; 54
     1d6:	07 fe       	sbrs	r0, 7
     1d8:	fd cf       	rjmp	.-6      	; 0x1d4 <I2C_Repeated_Start+0x4>
	status = TWSR & 0xF8;									/* Read TWI status register with masking lower three bits */
     1da:	91 b1       	in	r25, 0x01	; 1
     1dc:	98 7f       	andi	r25, 0xF8	; 248
	if (status != 0x10)										/* Check weather repeated start condition transmitted successfully or not? */
     1de:	90 31       	cpi	r25, 0x10	; 16
     1e0:	71 f4       	brne	.+28     	; 0x1fe <I2C_Repeated_Start+0x2e>
	return 0;												/* If no then return 0 to indicate repeated start condition fail */
	TWDR = slave_read_address;								/* If yes then write SLA+R in TWI data register */
     1e2:	83 b9       	out	0x03, r24	; 3
	TWCR = (1<<TWEN)|(1<<TWINT);							/* Enable TWI and clear interrupt flag */
     1e4:	84 e8       	ldi	r24, 0x84	; 132
     1e6:	86 bf       	out	0x36, r24	; 54
	while (!(TWCR & (1<<TWINT)));							/* Wait until TWI finish its current job (Write operation) */
     1e8:	06 b6       	in	r0, 0x36	; 54
     1ea:	07 fe       	sbrs	r0, 7
     1ec:	fd cf       	rjmp	.-6      	; 0x1e8 <I2C_Repeated_Start+0x18>
	status = TWSR & 0xF8;									/* Read TWI status register with masking lower three bits */
     1ee:	81 b1       	in	r24, 0x01	; 1
     1f0:	88 7f       	andi	r24, 0xF8	; 248
	if (status == 0x40)										/* Check weather SLA+R transmitted & ack received or not? */
     1f2:	80 34       	cpi	r24, 0x40	; 64
     1f4:	31 f0       	breq	.+12     	; 0x202 <I2C_Repeated_Start+0x32>
	return 1;												/* If yes then return 1 to indicate ack received */ 
	if (status == 0x20)										/* Check weather SLA+R transmitted & nack received or not? */
     1f6:	80 32       	cpi	r24, 0x20	; 32
     1f8:	31 f4       	brne	.+12     	; 0x206 <I2C_Repeated_Start+0x36>
	return 2;												/* If yes then return 2 to indicate nack received i.e. device is busy */
     1fa:	82 e0       	ldi	r24, 0x02	; 2
     1fc:	08 95       	ret
	uint8_t status;											/* Declare variable */
	TWCR = (1<<TWSTA)|(1<<TWEN)|(1<<TWINT);					/* Enable TWI, generate start condition and clear interrupt flag */
	while (!(TWCR & (1<<TWINT)));							/* Wait until TWI finish its current job (start condition) */
	status = TWSR & 0xF8;									/* Read TWI status register with masking lower three bits */
	if (status != 0x10)										/* Check weather repeated start condition transmitted successfully or not? */
	return 0;												/* If no then return 0 to indicate repeated start condition fail */
     1fe:	80 e0       	ldi	r24, 0x00	; 0
     200:	08 95       	ret
	TWDR = slave_read_address;								/* If yes then write SLA+R in TWI data register */
	TWCR = (1<<TWEN)|(1<<TWINT);							/* Enable TWI and clear interrupt flag */
	while (!(TWCR & (1<<TWINT)));							/* Wait until TWI finish its current job (Write operation) */
	status = TWSR & 0xF8;									/* Read TWI status register with masking lower three bits */
	if (status == 0x40)										/* Check weather SLA+R transmitted & ack received or not? */
	return 1;												/* If yes then return 1 to indicate ack received */ 
     202:	81 e0       	ldi	r24, 0x01	; 1
     204:	08 95       	ret
	if (status == 0x20)										/* Check weather SLA+R transmitted & nack received or not? */
	return 2;												/* If yes then return 2 to indicate nack received i.e. device is busy */
	else
	return 3;												/* Else return 3 to indicate SLA+W failed */
     206:	83 e0       	ldi	r24, 0x03	; 3
}
     208:	08 95       	ret

0000020a <I2C_Stop>:

void I2C_Stop()												/* I2C stop function */
{
	TWCR=(1<<TWSTO)|(1<<TWINT)|(1<<TWEN);					/* Enable TWI, generate stop condition and clear interrupt flag */
     20a:	84 e9       	ldi	r24, 0x94	; 148
     20c:	86 bf       	out	0x36, r24	; 54
	while(TWCR & (1<<TWSTO));								/* Wait until stop condition execution */ 
     20e:	06 b6       	in	r0, 0x36	; 54
     210:	04 fc       	sbrc	r0, 4
     212:	fd cf       	rjmp	.-6      	; 0x20e <I2C_Stop+0x4>
}
     214:	08 95       	ret

00000216 <I2C_Start_Wait>:

void I2C_Start_Wait(char slave_write_address)				/* I2C start wait function */
{
     216:	cf 93       	push	r28
     218:	c8 2f       	mov	r28, r24
	uint8_t status;											/* Declare variable */
	while (1)
	{
		TWCR = (1<<TWSTA)|(1<<TWEN)|(1<<TWINT);				/* Enable TWI, generate start condition and clear interrupt flag */
     21a:	84 ea       	ldi	r24, 0xA4	; 164
     21c:	86 bf       	out	0x36, r24	; 54
		while (!(TWCR & (1<<TWINT)));						/* Wait until TWI finish its current job (start condition) */
     21e:	06 b6       	in	r0, 0x36	; 54
     220:	07 fe       	sbrs	r0, 7
     222:	fd cf       	rjmp	.-6      	; 0x21e <I2C_Start_Wait+0x8>
		status = TWSR & 0xF8;								/* Read TWI status register with masking lower three bits */
     224:	81 b1       	in	r24, 0x01	; 1
     226:	88 7f       	andi	r24, 0xF8	; 248
		if (status != 0x08)									/* Check weather start condition transmitted successfully or not? */
     228:	88 30       	cpi	r24, 0x08	; 8
     22a:	b9 f7       	brne	.-18     	; 0x21a <I2C_Start_Wait+0x4>
		continue;											/* If no then continue with start loop again */
		TWDR = slave_write_address;							/* If yes then write SLA+W in TWI data register */
     22c:	c3 b9       	out	0x03, r28	; 3
		TWCR = (1<<TWEN)|(1<<TWINT);						/* Enable TWI and clear interrupt flag */
     22e:	84 e8       	ldi	r24, 0x84	; 132
     230:	86 bf       	out	0x36, r24	; 54
		while (!(TWCR & (1<<TWINT)));						/* Wait until TWI finish its current job (Write operation) */
     232:	06 b6       	in	r0, 0x36	; 54
     234:	07 fe       	sbrs	r0, 7
     236:	fd cf       	rjmp	.-6      	; 0x232 <I2C_Start_Wait+0x1c>
		status = TWSR & 0xF8;								/* Read TWI status register with masking lower three bits */
     238:	81 b1       	in	r24, 0x01	; 1
     23a:	88 7f       	andi	r24, 0xF8	; 248
		if (status != 0x18 )								/* Check weather SLA+W transmitted & ack received or not? */
     23c:	88 31       	cpi	r24, 0x18	; 24
     23e:	19 f0       	breq	.+6      	; 0x246 <I2C_Start_Wait+0x30>
		{
			I2C_Stop();										/* If not then generate stop condition */
     240:	0e 94 05 01 	call	0x20a	; 0x20a <I2C_Stop>
			continue;										/* continue with start loop again */
     244:	ea cf       	rjmp	.-44     	; 0x21a <I2C_Start_Wait+0x4>
		}
		break;												/* If yes then break loop */
	}
}
     246:	cf 91       	pop	r28
     248:	08 95       	ret

0000024a <I2C_Write>:

uint8_t I2C_Write(char data)								/* I2C write function */
{
	uint8_t status;											/* Declare variable */
	TWDR = data;											/* Copy data in TWI data register */
     24a:	83 b9       	out	0x03, r24	; 3
	TWCR = (1<<TWEN)|(1<<TWINT);							/* Enable TWI and clear interrupt flag */
     24c:	84 e8       	ldi	r24, 0x84	; 132
     24e:	86 bf       	out	0x36, r24	; 54
	while (!(TWCR & (1<<TWINT)));							/* Wait until TWI finish its current job (Write operation) */
     250:	06 b6       	in	r0, 0x36	; 54
     252:	07 fe       	sbrs	r0, 7
     254:	fd cf       	rjmp	.-6      	; 0x250 <I2C_Write+0x6>
	status = TWSR & 0xF8;									/* Read TWI status register with masking lower three bits */
     256:	81 b1       	in	r24, 0x01	; 1
     258:	88 7f       	andi	r24, 0xF8	; 248
	if (status == 0x28)										/* Check weather data transmitted & ack received or not? */
     25a:	88 32       	cpi	r24, 0x28	; 40
     25c:	21 f0       	breq	.+8      	; 0x266 <I2C_Write+0x1c>
	return 0;												/* If yes then return 0 to indicate ack received */
	if (status == 0x30)										/* Check weather data transmitted & nack received or not? */
     25e:	80 33       	cpi	r24, 0x30	; 48
     260:	21 f4       	brne	.+8      	; 0x26a <I2C_Write+0x20>
	return 1;												/* If yes then return 1 to indicate nack received */
     262:	81 e0       	ldi	r24, 0x01	; 1
     264:	08 95       	ret
	TWDR = data;											/* Copy data in TWI data register */
	TWCR = (1<<TWEN)|(1<<TWINT);							/* Enable TWI and clear interrupt flag */
	while (!(TWCR & (1<<TWINT)));							/* Wait until TWI finish its current job (Write operation) */
	status = TWSR & 0xF8;									/* Read TWI status register with masking lower three bits */
	if (status == 0x28)										/* Check weather data transmitted & ack received or not? */
	return 0;												/* If yes then return 0 to indicate ack received */
     266:	80 e0       	ldi	r24, 0x00	; 0
     268:	08 95       	ret
	if (status == 0x30)										/* Check weather data transmitted & nack received or not? */
	return 1;												/* If yes then return 1 to indicate nack received */
	else
	return 2;												/* Else return 2 to indicate data transmission failed */
     26a:	82 e0       	ldi	r24, 0x02	; 2
}
     26c:	08 95       	ret

0000026e <I2C_Read_Ack>:

char I2C_Read_Ack()										/* I2C read ack function */
{
	TWCR=(1<<TWEN)|(1<<TWINT)|(1<<TWEA);					/* Enable TWI, generation of ack and clear interrupt flag */
     26e:	84 ec       	ldi	r24, 0xC4	; 196
     270:	86 bf       	out	0x36, r24	; 54
	while (!(TWCR & (1<<TWINT)));							/* Wait until TWI finish its current job (read operation) */
     272:	06 b6       	in	r0, 0x36	; 54
     274:	07 fe       	sbrs	r0, 7
     276:	fd cf       	rjmp	.-6      	; 0x272 <I2C_Read_Ack+0x4>
	return TWDR;											/* Return received data */
     278:	83 b1       	in	r24, 0x03	; 3
}	
     27a:	08 95       	ret

0000027c <I2C_Read_Nack>:

char I2C_Read_Nack()										/* I2C read nack function */
{
	TWCR=(1<<TWEN)|(1<<TWINT);								/* Enable TWI and clear interrupt flag */
     27c:	84 e8       	ldi	r24, 0x84	; 132
     27e:	86 bf       	out	0x36, r24	; 54
	while (!(TWCR & (1<<TWINT)));							/* Wait until TWI finish its current job (read operation) */
     280:	06 b6       	in	r0, 0x36	; 54
     282:	07 fe       	sbrs	r0, 7
     284:	fd cf       	rjmp	.-6      	; 0x280 <I2C_Read_Nack+0x4>
	return TWDR;											/* Return received data */
     286:	83 b1       	in	r24, 0x03	; 3
}	
     288:	08 95       	ret

0000028a <LCD_Command>:
	while (str[i]!='\0')		/* Send string till null */
	{
		USART_TxChar(str[i]);
		i++;
	}
     28a:	98 b3       	in	r25, 0x18	; 24
     28c:	9f 70       	andi	r25, 0x0F	; 15
     28e:	28 2f       	mov	r18, r24
     290:	20 7f       	andi	r18, 0xF0	; 240
     292:	92 2b       	or	r25, r18
     294:	98 bb       	out	0x18, r25	; 24
     296:	98 b3       	in	r25, 0x18	; 24
     298:	9e 7f       	andi	r25, 0xFE	; 254
     29a:	98 bb       	out	0x18, r25	; 24
     29c:	98 b3       	in	r25, 0x18	; 24
     29e:	92 60       	ori	r25, 0x02	; 2
     2a0:	98 bb       	out	0x18, r25	; 24
     2a2:	32 e0       	ldi	r19, 0x02	; 2
     2a4:	3a 95       	dec	r19
     2a6:	f1 f7       	brne	.-4      	; 0x2a4 <LCD_Command+0x1a>
     2a8:	00 c0       	rjmp	.+0      	; 0x2aa <LCD_Command+0x20>
     2aa:	98 b3       	in	r25, 0x18	; 24
     2ac:	9d 7f       	andi	r25, 0xFD	; 253
     2ae:	98 bb       	out	0x18, r25	; 24
     2b0:	ef e8       	ldi	r30, 0x8F	; 143
     2b2:	f1 e0       	ldi	r31, 0x01	; 1
     2b4:	31 97       	sbiw	r30, 0x01	; 1
     2b6:	f1 f7       	brne	.-4      	; 0x2b4 <LCD_Command+0x2a>
     2b8:	00 c0       	rjmp	.+0      	; 0x2ba <LCD_Command+0x30>
     2ba:	00 00       	nop
     2bc:	28 b3       	in	r18, 0x18	; 24
     2be:	f0 e1       	ldi	r31, 0x10	; 16
     2c0:	8f 9f       	mul	r24, r31
     2c2:	c0 01       	movw	r24, r0
     2c4:	11 24       	eor	r1, r1
     2c6:	92 2f       	mov	r25, r18
     2c8:	9f 70       	andi	r25, 0x0F	; 15
     2ca:	89 2b       	or	r24, r25
     2cc:	88 bb       	out	0x18, r24	; 24
     2ce:	88 b3       	in	r24, 0x18	; 24
     2d0:	82 60       	ori	r24, 0x02	; 2
     2d2:	88 bb       	out	0x18, r24	; 24
     2d4:	32 e0       	ldi	r19, 0x02	; 2
     2d6:	3a 95       	dec	r19
     2d8:	f1 f7       	brne	.-4      	; 0x2d6 <LCD_Command+0x4c>
     2da:	00 c0       	rjmp	.+0      	; 0x2dc <LCD_Command+0x52>
     2dc:	88 b3       	in	r24, 0x18	; 24
     2de:	8d 7f       	andi	r24, 0xFD	; 253
     2e0:	88 bb       	out	0x18, r24	; 24
     2e2:	8f e9       	ldi	r24, 0x9F	; 159
     2e4:	9f e0       	ldi	r25, 0x0F	; 15
     2e6:	01 97       	sbiw	r24, 0x01	; 1
     2e8:	f1 f7       	brne	.-4      	; 0x2e6 <LCD_Command+0x5c>
     2ea:	00 c0       	rjmp	.+0      	; 0x2ec <LCD_Command+0x62>
     2ec:	00 00       	nop
     2ee:	08 95       	ret

000002f0 <LCD_Char>:
     2f0:	98 b3       	in	r25, 0x18	; 24
     2f2:	9f 70       	andi	r25, 0x0F	; 15
     2f4:	28 2f       	mov	r18, r24
     2f6:	20 7f       	andi	r18, 0xF0	; 240
     2f8:	92 2b       	or	r25, r18
     2fa:	98 bb       	out	0x18, r25	; 24
     2fc:	98 b3       	in	r25, 0x18	; 24
     2fe:	91 60       	ori	r25, 0x01	; 1
     300:	98 bb       	out	0x18, r25	; 24
     302:	98 b3       	in	r25, 0x18	; 24
     304:	92 60       	ori	r25, 0x02	; 2
     306:	98 bb       	out	0x18, r25	; 24
     308:	32 e0       	ldi	r19, 0x02	; 2
     30a:	3a 95       	dec	r19
     30c:	f1 f7       	brne	.-4      	; 0x30a <LCD_Char+0x1a>
     30e:	00 c0       	rjmp	.+0      	; 0x310 <LCD_Char+0x20>
     310:	98 b3       	in	r25, 0x18	; 24
     312:	9d 7f       	andi	r25, 0xFD	; 253
     314:	98 bb       	out	0x18, r25	; 24
     316:	ef e8       	ldi	r30, 0x8F	; 143
     318:	f1 e0       	ldi	r31, 0x01	; 1
     31a:	31 97       	sbiw	r30, 0x01	; 1
     31c:	f1 f7       	brne	.-4      	; 0x31a <LCD_Char+0x2a>
     31e:	00 c0       	rjmp	.+0      	; 0x320 <LCD_Char+0x30>
     320:	00 00       	nop
     322:	28 b3       	in	r18, 0x18	; 24
     324:	f0 e1       	ldi	r31, 0x10	; 16
     326:	8f 9f       	mul	r24, r31
     328:	c0 01       	movw	r24, r0
     32a:	11 24       	eor	r1, r1
     32c:	92 2f       	mov	r25, r18
     32e:	9f 70       	andi	r25, 0x0F	; 15
     330:	89 2b       	or	r24, r25
     332:	88 bb       	out	0x18, r24	; 24
     334:	88 b3       	in	r24, 0x18	; 24
     336:	82 60       	ori	r24, 0x02	; 2
     338:	88 bb       	out	0x18, r24	; 24
     33a:	32 e0       	ldi	r19, 0x02	; 2
     33c:	3a 95       	dec	r19
     33e:	f1 f7       	brne	.-4      	; 0x33c <LCD_Char+0x4c>
     340:	00 c0       	rjmp	.+0      	; 0x342 <LCD_Char+0x52>
     342:	88 b3       	in	r24, 0x18	; 24
     344:	8d 7f       	andi	r24, 0xFD	; 253
     346:	88 bb       	out	0x18, r24	; 24
     348:	8f e9       	ldi	r24, 0x9F	; 159
     34a:	9f e0       	ldi	r25, 0x0F	; 15
     34c:	01 97       	sbiw	r24, 0x01	; 1
     34e:	f1 f7       	brne	.-4      	; 0x34c <LCD_Char+0x5c>
     350:	00 c0       	rjmp	.+0      	; 0x352 <LCD_Char+0x62>
     352:	00 00       	nop
     354:	08 95       	ret

00000356 <LCD_Init>:
     356:	8f ef       	ldi	r24, 0xFF	; 255
     358:	87 bb       	out	0x17, r24	; 23
     35a:	8f e3       	ldi	r24, 0x3F	; 63
     35c:	9c e9       	ldi	r25, 0x9C	; 156
     35e:	01 97       	sbiw	r24, 0x01	; 1
     360:	f1 f7       	brne	.-4      	; 0x35e <LCD_Init+0x8>
     362:	00 c0       	rjmp	.+0      	; 0x364 <LCD_Init+0xe>
     364:	00 00       	nop
     366:	83 e3       	ldi	r24, 0x33	; 51
     368:	0e 94 45 01 	call	0x28a	; 0x28a <LCD_Command>
     36c:	82 e3       	ldi	r24, 0x32	; 50
     36e:	0e 94 45 01 	call	0x28a	; 0x28a <LCD_Command>
     372:	88 e2       	ldi	r24, 0x28	; 40
     374:	0e 94 45 01 	call	0x28a	; 0x28a <LCD_Command>
     378:	8c e0       	ldi	r24, 0x0C	; 12
     37a:	0e 94 45 01 	call	0x28a	; 0x28a <LCD_Command>
     37e:	86 e0       	ldi	r24, 0x06	; 6
     380:	0e 94 45 01 	call	0x28a	; 0x28a <LCD_Command>
     384:	81 e0       	ldi	r24, 0x01	; 1
     386:	0e 94 45 01 	call	0x28a	; 0x28a <LCD_Command>
     38a:	8f e9       	ldi	r24, 0x9F	; 159
     38c:	9f e0       	ldi	r25, 0x0F	; 15
     38e:	01 97       	sbiw	r24, 0x01	; 1
     390:	f1 f7       	brne	.-4      	; 0x38e <LCD_Init+0x38>
     392:	00 c0       	rjmp	.+0      	; 0x394 <LCD_Init+0x3e>
     394:	00 00       	nop
     396:	80 e8       	ldi	r24, 0x80	; 128
     398:	0e 94 45 01 	call	0x28a	; 0x28a <LCD_Command>
     39c:	08 95       	ret

0000039e <LCD_String>:
     39e:	0f 93       	push	r16
     3a0:	1f 93       	push	r17
     3a2:	cf 93       	push	r28
     3a4:	df 93       	push	r29
     3a6:	8c 01       	movw	r16, r24
     3a8:	c0 e0       	ldi	r28, 0x00	; 0
     3aa:	d0 e0       	ldi	r29, 0x00	; 0
     3ac:	03 c0       	rjmp	.+6      	; 0x3b4 <LCD_String+0x16>
     3ae:	0e 94 78 01 	call	0x2f0	; 0x2f0 <LCD_Char>
     3b2:	21 96       	adiw	r28, 0x01	; 1
     3b4:	f8 01       	movw	r30, r16
     3b6:	ec 0f       	add	r30, r28
     3b8:	fd 1f       	adc	r31, r29
     3ba:	80 81       	ld	r24, Z
     3bc:	81 11       	cpse	r24, r1
     3be:	f7 cf       	rjmp	.-18     	; 0x3ae <LCD_String+0x10>
     3c0:	df 91       	pop	r29
     3c2:	cf 91       	pop	r28
     3c4:	1f 91       	pop	r17
     3c6:	0f 91       	pop	r16
     3c8:	08 95       	ret

000003ca <LCD_String_xy>:
     3ca:	cf 93       	push	r28
     3cc:	df 93       	push	r29
     3ce:	ea 01       	movw	r28, r20
     3d0:	81 11       	cpse	r24, r1
     3d2:	08 c0       	rjmp	.+16     	; 0x3e4 <LCD_String_xy+0x1a>
     3d4:	60 31       	cpi	r22, 0x10	; 16
     3d6:	30 f4       	brcc	.+12     	; 0x3e4 <LCD_String_xy+0x1a>
     3d8:	86 2f       	mov	r24, r22
     3da:	8f 70       	andi	r24, 0x0F	; 15
     3dc:	80 68       	ori	r24, 0x80	; 128
     3de:	0e 94 45 01 	call	0x28a	; 0x28a <LCD_Command>
     3e2:	09 c0       	rjmp	.+18     	; 0x3f6 <LCD_String_xy+0x2c>
     3e4:	81 30       	cpi	r24, 0x01	; 1
     3e6:	39 f4       	brne	.+14     	; 0x3f6 <LCD_String_xy+0x2c>
     3e8:	60 31       	cpi	r22, 0x10	; 16
     3ea:	28 f4       	brcc	.+10     	; 0x3f6 <LCD_String_xy+0x2c>
     3ec:	86 2f       	mov	r24, r22
     3ee:	8f 70       	andi	r24, 0x0F	; 15
     3f0:	80 6c       	ori	r24, 0xC0	; 192
     3f2:	0e 94 45 01 	call	0x28a	; 0x28a <LCD_Command>
     3f6:	ce 01       	movw	r24, r28
     3f8:	0e 94 cf 01 	call	0x39e	; 0x39e <LCD_String>
     3fc:	df 91       	pop	r29
     3fe:	cf 91       	pop	r28
     400:	08 95       	ret

00000402 <LCD_Clear>:
     402:	81 e0       	ldi	r24, 0x01	; 1
     404:	0e 94 45 01 	call	0x28a	; 0x28a <LCD_Command>
     408:	8f e9       	ldi	r24, 0x9F	; 159
     40a:	9f e0       	ldi	r25, 0x0F	; 15
     40c:	01 97       	sbiw	r24, 0x01	; 1
     40e:	f1 f7       	brne	.-4      	; 0x40c <LCD_Clear+0xa>
     410:	00 c0       	rjmp	.+0      	; 0x412 <LCD_Clear+0x10>
     412:	00 00       	nop
     414:	80 e8       	ldi	r24, 0x80	; 128
     416:	0e 94 45 01 	call	0x28a	; 0x28a <LCD_Command>
     41a:	08 95       	ret

0000041c <USART_Init>:
     41c:	2a b1       	in	r18, 0x0a	; 10
     41e:	28 69       	ori	r18, 0x98	; 152
     420:	2a b9       	out	0x0a, r18	; 10
     422:	20 b5       	in	r18, 0x20	; 32
     424:	26 68       	ori	r18, 0x86	; 134
     426:	20 bd       	out	0x20, r18	; 32
     428:	dc 01       	movw	r26, r24
     42a:	cb 01       	movw	r24, r22
     42c:	88 0f       	add	r24, r24
     42e:	99 1f       	adc	r25, r25
     430:	aa 1f       	adc	r26, r26
     432:	bb 1f       	adc	r27, r27
     434:	88 0f       	add	r24, r24
     436:	99 1f       	adc	r25, r25
     438:	aa 1f       	adc	r26, r26
     43a:	bb 1f       	adc	r27, r27
     43c:	9c 01       	movw	r18, r24
     43e:	ad 01       	movw	r20, r26
     440:	22 0f       	add	r18, r18
     442:	33 1f       	adc	r19, r19
     444:	44 1f       	adc	r20, r20
     446:	55 1f       	adc	r21, r21
     448:	22 0f       	add	r18, r18
     44a:	33 1f       	adc	r19, r19
     44c:	44 1f       	adc	r20, r20
     44e:	55 1f       	adc	r21, r21
     450:	60 e0       	ldi	r22, 0x00	; 0
     452:	72 e1       	ldi	r23, 0x12	; 18
     454:	8a e7       	ldi	r24, 0x7A	; 122
     456:	90 e0       	ldi	r25, 0x00	; 0
     458:	0e 94 7d 0a 	call	0x14fa	; 0x14fa <__udivmodsi4>
     45c:	8f ef       	ldi	r24, 0xFF	; 255
     45e:	82 0f       	add	r24, r18
     460:	89 b9       	out	0x09, r24	; 9
     462:	da 01       	movw	r26, r20
     464:	c9 01       	movw	r24, r18
     466:	01 97       	sbiw	r24, 0x01	; 1
     468:	a1 09       	sbc	r26, r1
     46a:	b1 09       	sbc	r27, r1
     46c:	89 2f       	mov	r24, r25
     46e:	9a 2f       	mov	r25, r26
     470:	ab 2f       	mov	r26, r27
     472:	bb 27       	eor	r27, r27
     474:	80 bd       	out	0x20, r24	; 32
     476:	08 95       	ret

00000478 <USART_TxChar>:
     478:	5d 9b       	sbis	0x0b, 5	; 11
     47a:	fe cf       	rjmp	.-4      	; 0x478 <USART_TxChar>
     47c:	8c b9       	out	0x0c, r24	; 12
     47e:	08 95       	ret

00000480 <ADC_Init>:
void ADC_Init()
{
	DDRA=0x00;			/* Make ADC port as input */
     480:	1a ba       	out	0x1a, r1	; 26
	ADCSRA = 0x87;			/* Enable ADC, fr/128  */
     482:	87 e8       	ldi	r24, 0x87	; 135
     484:	86 b9       	out	0x06, r24	; 6
	ADMUX = 0x40;			/* Vref: Avcc, ADC channel: 0 */
     486:	80 e4       	ldi	r24, 0x40	; 64
     488:	87 b9       	out	0x07, r24	; 7
     48a:	08 95       	ret

0000048c <ADC_Read>:

int ADC_Read(char channel)
{
	int Ain,AinLow;
	
	ADMUX=ADMUX|(channel & 0x0f);	/* Set input channel to read */
     48c:	97 b1       	in	r25, 0x07	; 7
     48e:	8f 70       	andi	r24, 0x0F	; 15
     490:	98 2b       	or	r25, r24
     492:	97 b9       	out	0x07, r25	; 7

	ADCSRA |= (1<<ADSC);		/* Start conversion */
     494:	86 b1       	in	r24, 0x06	; 6
     496:	80 64       	ori	r24, 0x40	; 64
     498:	86 b9       	out	0x06, r24	; 6
	while((ADCSRA&(1<<ADIF))==0);	/* Monitor end of conversion interrupt */
     49a:	34 9b       	sbis	0x06, 4	; 6
     49c:	fe cf       	rjmp	.-4      	; 0x49a <ADC_Read+0xe>
	#else
		//round up by default
		__ticks_dc = (uint32_t)(ceil(fabs(__tmp)));
	#endif

	__builtin_avr_delay_cycles(__ticks_dc);
     49e:	8a e1       	ldi	r24, 0x1A	; 26
     4a0:	8a 95       	dec	r24
     4a2:	f1 f7       	brne	.-4      	; 0x4a0 <ADC_Read+0x14>
     4a4:	00 c0       	rjmp	.+0      	; 0x4a6 <ADC_Read+0x1a>
	
	_delay_us(10);
	AinLow = (int)ADCL;		/* Read lower byte*/
     4a6:	24 b1       	in	r18, 0x04	; 4
	Ain = (int)ADCH*256;		/* Read higher 2 bits and Multiply with weight */
     4a8:	85 b1       	in	r24, 0x05	; 5
     4aa:	90 e0       	ldi	r25, 0x00	; 0
     4ac:	98 2f       	mov	r25, r24
     4ae:	88 27       	eor	r24, r24
	Ain = Ain + AinLow;				
	return(Ain);			/* Return digital value*/
}
     4b0:	82 0f       	add	r24, r18
     4b2:	91 1d       	adc	r25, r1
     4b4:	08 95       	ret

000004b6 <get_altitude>:
	sei(); //It is a macro that executes an assembler instruction to enable interrupts.

}

void get_altitude(uint16_t alt_pointer){  //unsigned 16-bit integer - integers between 0 and 65,535
	cli(); //Command Line Interface - CLIs accept as input commands that are entered by keyboard
     4b6:	f8 94       	cli
	uint8_t alt_index;  //unsigned 8-bit integer- integer has a range of 0 to 255
	uint8_t index = alt_pointer+1;
     4b8:	8f 5f       	subi	r24, 0xFF	; 255
	alt_index=0;
     4ba:	90 e0       	ldi	r25, 0x00	; 0
	/* parse Altitude in GGA string stored in buffer */
	for( ; GGA_Buffer[index]!=','; index++){
     4bc:	07 c0       	rjmp	.+14     	; 0x4cc <get_altitude+0x16>
		Altitude_Buffer[alt_index]= GGA_Buffer[index];
     4be:	e9 2f       	mov	r30, r25
     4c0:	f0 e0       	ldi	r31, 0x00	; 0
     4c2:	e6 54       	subi	r30, 0x46	; 70
     4c4:	fd 4f       	sbci	r31, 0xFD	; 253
     4c6:	20 83       	st	Z, r18
		alt_index++;
     4c8:	9f 5f       	subi	r25, 0xFF	; 255
	cli(); //Command Line Interface - CLIs accept as input commands that are entered by keyboard
	uint8_t alt_index;  //unsigned 8-bit integer- integer has a range of 0 to 255
	uint8_t index = alt_pointer+1;
	alt_index=0;
	/* parse Altitude in GGA string stored in buffer */
	for( ; GGA_Buffer[index]!=','; index++){
     4ca:	8f 5f       	subi	r24, 0xFF	; 255
     4cc:	48 2f       	mov	r20, r24
     4ce:	50 e0       	ldi	r21, 0x00	; 0
     4d0:	fa 01       	movw	r30, r20
     4d2:	e5 55       	subi	r30, 0x55	; 85
     4d4:	fe 4f       	sbci	r31, 0xFE	; 254
     4d6:	20 81       	ld	r18, Z
     4d8:	2c 32       	cpi	r18, 0x2C	; 44
     4da:	89 f7       	brne	.-30     	; 0x4be <get_altitude+0x8>
		Altitude_Buffer[alt_index]= GGA_Buffer[index];
		alt_index++;
	}
	
	Altitude_Buffer[alt_index]   = GGA_Buffer[index+1];
     4dc:	e9 2f       	mov	r30, r25
     4de:	f0 e0       	ldi	r31, 0x00	; 0
     4e0:	da 01       	movw	r26, r20
     4e2:	a4 55       	subi	r26, 0x54	; 84
     4e4:	be 4f       	sbci	r27, 0xFE	; 254
     4e6:	8c 91       	ld	r24, X
     4e8:	e6 54       	subi	r30, 0x46	; 70
     4ea:	fd 4f       	sbci	r31, 0xFD	; 253
     4ec:	80 83       	st	Z, r24
	sei();//It is a macro that executes an assembler instruction to enable interrupts.
     4ee:	78 94       	sei
     4f0:	08 95       	ret

000004f2 <convert_to_degrees_lat>:
}


void convert_to_degrees_lat(char *raw){
     4f2:	8f 92       	push	r8
     4f4:	9f 92       	push	r9
     4f6:	af 92       	push	r10
     4f8:	bf 92       	push	r11
     4fa:	cf 92       	push	r12
     4fc:	df 92       	push	r13
     4fe:	ef 92       	push	r14
     500:	ff 92       	push	r15
     502:	0f 93       	push	r16
     504:	1f 93       	push	r17
	float decimal_value,temp;
	
	int32_t degrees;
	
	float position;
	value = atof(raw); /* convert string into float for conversion */
     506:	0e 94 bf 0a 	call	0x157e	; 0x157e <atof>
	
	/* convert raw latitude/longitude into degree format */
	decimal_value = (value/100);
     50a:	20 e0       	ldi	r18, 0x00	; 0
     50c:	30 e0       	ldi	r19, 0x00	; 0
     50e:	48 ec       	ldi	r20, 0xC8	; 200
     510:	52 e4       	ldi	r21, 0x42	; 66
     512:	0e 94 b1 08 	call	0x1162	; 0x1162 <__divsf3>
     516:	6b 01       	movw	r12, r22
     518:	7c 01       	movw	r14, r24
	degrees = (int)(decimal_value);
     51a:	0e 94 23 09 	call	0x1246	; 0x1246 <__fixsfsi>
	temp = (decimal_value - (int)decimal_value)/0.6;
     51e:	07 2e       	mov	r0, r23
     520:	00 0c       	add	r0, r0
     522:	88 0b       	sbc	r24, r24
     524:	99 0b       	sbc	r25, r25
     526:	0e 94 5b 09 	call	0x12b6	; 0x12b6 <__floatsisf>
     52a:	4b 01       	movw	r8, r22
     52c:	5c 01       	movw	r10, r24
     52e:	9b 01       	movw	r18, r22
     530:	ac 01       	movw	r20, r24
     532:	c7 01       	movw	r24, r14
     534:	b6 01       	movw	r22, r12
     536:	0e 94 3f 08 	call	0x107e	; 0x107e <__subsf3>
     53a:	2a e9       	ldi	r18, 0x9A	; 154
     53c:	39 e9       	ldi	r19, 0x99	; 153
     53e:	49 e1       	ldi	r20, 0x19	; 25
     540:	5f e3       	ldi	r21, 0x3F	; 63
     542:	0e 94 b1 08 	call	0x1162	; 0x1162 <__divsf3>
     546:	9b 01       	movw	r18, r22
     548:	ac 01       	movw	r20, r24
	position = (float)degrees + temp;
     54a:	c5 01       	movw	r24, r10
     54c:	b4 01       	movw	r22, r8
     54e:	0e 94 40 08 	call	0x1080	; 0x1080 <__addsf3>
	
	dtostrf(position, 6, 4, lat_degrees_buffer); /* dtostrf is a function that convert float value into string.Here the position is a float value and it convert as a string degree buffer variable*/
     552:	06 ea       	ldi	r16, 0xA6	; 166
     554:	12 e0       	ldi	r17, 0x02	; 2
     556:	24 e0       	ldi	r18, 0x04	; 4
     558:	46 e0       	ldi	r20, 0x06	; 6
     55a:	0e 94 9f 0a 	call	0x153e	; 0x153e <dtostrf>
}
     55e:	1f 91       	pop	r17
     560:	0f 91       	pop	r16
     562:	ff 90       	pop	r15
     564:	ef 90       	pop	r14
     566:	df 90       	pop	r13
     568:	cf 90       	pop	r12
     56a:	bf 90       	pop	r11
     56c:	af 90       	pop	r10
     56e:	9f 90       	pop	r9
     570:	8f 90       	pop	r8
     572:	08 95       	ret

00000574 <get_latitude>:




void get_latitude(uint16_t lat_pointer){  //unsigned 16-bit integer - integers between 0 and 65,535
	cli(); //Command Line Interface - CLIs accept as input commands that are entered by keyboard
     574:	f8 94       	cli
	uint8_t lat_index; //unsigned 8-bit integer- integer has a range of 0 to 255
	uint8_t index = lat_pointer+1;//unsigned 8-bit integer- integer has a range of 0 to 255
     576:	8f 5f       	subi	r24, 0xFF	; 255
	lat_index=0;
     578:	90 e0       	ldi	r25, 0x00	; 0
	
	/* parse Latitude in GGA string stored in buffer */
	for(;GGA_Buffer[index]!=',';index++){
     57a:	07 c0       	rjmp	.+14     	; 0x58a <get_latitude+0x16>
		Latitude_Buffer[lat_index]= GGA_Buffer[index];
     57c:	e9 2f       	mov	r30, r25
     57e:	f0 e0       	ldi	r31, 0x00	; 0
     580:	e1 58       	subi	r30, 0x81	; 129
     582:	fd 4f       	sbci	r31, 0xFD	; 253
     584:	20 83       	st	Z, r18
		lat_index++;
     586:	9f 5f       	subi	r25, 0xFF	; 255
	uint8_t lat_index; //unsigned 8-bit integer- integer has a range of 0 to 255
	uint8_t index = lat_pointer+1;//unsigned 8-bit integer- integer has a range of 0 to 255
	lat_index=0;
	
	/* parse Latitude in GGA string stored in buffer */
	for(;GGA_Buffer[index]!=',';index++){
     588:	8f 5f       	subi	r24, 0xFF	; 255
     58a:	e8 2f       	mov	r30, r24
     58c:	f0 e0       	ldi	r31, 0x00	; 0
     58e:	e5 55       	subi	r30, 0x55	; 85
     590:	fe 4f       	sbci	r31, 0xFE	; 254
     592:	20 81       	ld	r18, Z
     594:	2c 32       	cpi	r18, 0x2C	; 44
     596:	91 f7       	brne	.-28     	; 0x57c <get_latitude+0x8>
		Latitude_Buffer[lat_index]= GGA_Buffer[index];
		lat_index++;
	}
	
	Latitude_Buffer[lat_index++] = GGA_Buffer[index++];
     598:	31 e0       	ldi	r19, 0x01	; 1
     59a:	39 0f       	add	r19, r25
     59c:	e9 2f       	mov	r30, r25
     59e:	f0 e0       	ldi	r31, 0x00	; 0
     5a0:	8f 5f       	subi	r24, 0xFF	; 255
     5a2:	e1 58       	subi	r30, 0x81	; 129
     5a4:	fd 4f       	sbci	r31, 0xFD	; 253
     5a6:	20 83       	st	Z, r18
	Latitude_Buffer[lat_index]= GGA_Buffer[index];		/* get direction */
     5a8:	23 2f       	mov	r18, r19
     5aa:	30 e0       	ldi	r19, 0x00	; 0
     5ac:	e8 2f       	mov	r30, r24
     5ae:	f0 e0       	ldi	r31, 0x00	; 0
     5b0:	e5 55       	subi	r30, 0x55	; 85
     5b2:	fe 4f       	sbci	r31, 0xFE	; 254
     5b4:	80 81       	ld	r24, Z
     5b6:	f9 01       	movw	r30, r18
     5b8:	e1 58       	subi	r30, 0x81	; 129
     5ba:	fd 4f       	sbci	r31, 0xFD	; 253
     5bc:	80 83       	st	Z, r24
	convert_to_degrees_lat(Latitude_Buffer);   // convert raw latitude into degree format and pass that value as string
     5be:	8f e7       	ldi	r24, 0x7F	; 127
     5c0:	92 e0       	ldi	r25, 0x02	; 2
     5c2:	0e 94 79 02 	call	0x4f2	; 0x4f2 <convert_to_degrees_lat>
	sei(); //It is a macro that executes an assembler instruction to enable interrupts.
     5c6:	78 94       	sei
     5c8:	08 95       	ret

000005ca <convert_to_degrees_long>:
	position = (float)degrees + temp;
	
	dtostrf(position, 6, 4, lat_degrees_buffer); /* dtostrf is a function that convert float value into string.Here the position is a float value and it convert as a string degree buffer variable*/
}

void convert_to_degrees_long(char *raw){
     5ca:	8f 92       	push	r8
     5cc:	9f 92       	push	r9
     5ce:	af 92       	push	r10
     5d0:	bf 92       	push	r11
     5d2:	cf 92       	push	r12
     5d4:	df 92       	push	r13
     5d6:	ef 92       	push	r14
     5d8:	ff 92       	push	r15
     5da:	0f 93       	push	r16
     5dc:	1f 93       	push	r17
	float decimal_value,temp;
	
	int32_t degrees;
	
	float position;
	value = atof(raw); /* convert string into float for conversion */
     5de:	0e 94 bf 0a 	call	0x157e	; 0x157e <atof>
	
	/* convert raw latitude/longitude into degree format */
	decimal_value = (value/100);
     5e2:	20 e0       	ldi	r18, 0x00	; 0
     5e4:	30 e0       	ldi	r19, 0x00	; 0
     5e6:	48 ec       	ldi	r20, 0xC8	; 200
     5e8:	52 e4       	ldi	r21, 0x42	; 66
     5ea:	0e 94 b1 08 	call	0x1162	; 0x1162 <__divsf3>
     5ee:	6b 01       	movw	r12, r22
     5f0:	7c 01       	movw	r14, r24
	degrees = (int)(decimal_value);
     5f2:	0e 94 23 09 	call	0x1246	; 0x1246 <__fixsfsi>
	temp = (decimal_value - (int)decimal_value)/0.6;
     5f6:	07 2e       	mov	r0, r23
     5f8:	00 0c       	add	r0, r0
     5fa:	88 0b       	sbc	r24, r24
     5fc:	99 0b       	sbc	r25, r25
     5fe:	0e 94 5b 09 	call	0x12b6	; 0x12b6 <__floatsisf>
     602:	4b 01       	movw	r8, r22
     604:	5c 01       	movw	r10, r24
     606:	9b 01       	movw	r18, r22
     608:	ac 01       	movw	r20, r24
     60a:	c7 01       	movw	r24, r14
     60c:	b6 01       	movw	r22, r12
     60e:	0e 94 3f 08 	call	0x107e	; 0x107e <__subsf3>
     612:	2a e9       	ldi	r18, 0x9A	; 154
     614:	39 e9       	ldi	r19, 0x99	; 153
     616:	49 e1       	ldi	r20, 0x19	; 25
     618:	5f e3       	ldi	r21, 0x3F	; 63
     61a:	0e 94 b1 08 	call	0x1162	; 0x1162 <__divsf3>
     61e:	9b 01       	movw	r18, r22
     620:	ac 01       	movw	r20, r24
	position = (float)degrees + temp;
     622:	c5 01       	movw	r24, r10
     624:	b4 01       	movw	r22, r8
     626:	0e 94 40 08 	call	0x1080	; 0x1080 <__addsf3>
	
	dtostrf(position, 6, 4, long_degrees_buffer); /* dtostrf is a function that convert float value into string.Here the position is a float value and it convert as a string degree buffer variable*/
     62a:	0d e4       	ldi	r16, 0x4D	; 77
     62c:	12 e0       	ldi	r17, 0x02	; 2
     62e:	24 e0       	ldi	r18, 0x04	; 4
     630:	46 e0       	ldi	r20, 0x06	; 6
     632:	0e 94 9f 0a 	call	0x153e	; 0x153e <dtostrf>
}
     636:	1f 91       	pop	r17
     638:	0f 91       	pop	r16
     63a:	ff 90       	pop	r15
     63c:	ef 90       	pop	r14
     63e:	df 90       	pop	r13
     640:	cf 90       	pop	r12
     642:	bf 90       	pop	r11
     644:	af 90       	pop	r10
     646:	9f 90       	pop	r9
     648:	8f 90       	pop	r8
     64a:	08 95       	ret

0000064c <get_longitude>:
	convert_to_degrees_lat(Latitude_Buffer);   // convert raw latitude into degree format and pass that value as string
	sei(); //It is a macro that executes an assembler instruction to enable interrupts.
}

void get_longitude(uint16_t long_pointer){
	cli(); //Command Line Interface - CLIs accept as input commands that are entered by keyboard
     64c:	f8 94       	cli
	uint8_t long_index;  //unsigned 8-bit integer- integer has a range of 0 to 255
	uint8_t index = long_pointer+1;
     64e:	8f 5f       	subi	r24, 0xFF	; 255
	long_index=0;
     650:	90 e0       	ldi	r25, 0x00	; 0
	
	/* parse Longitude in GGA string stored in buffer */
	for( ; GGA_Buffer[index]!=','; index++){
     652:	07 c0       	rjmp	.+14     	; 0x662 <get_longitude+0x16>
		Longitude_Buffer[long_index]= GGA_Buffer[index];
     654:	e9 2f       	mov	r30, r25
     656:	f0 e0       	ldi	r31, 0x00	; 0
     658:	ef 59       	subi	r30, 0x9F	; 159
     65a:	fd 4f       	sbci	r31, 0xFD	; 253
     65c:	20 83       	st	Z, r18
		long_index++;
     65e:	9f 5f       	subi	r25, 0xFF	; 255
	uint8_t long_index;  //unsigned 8-bit integer- integer has a range of 0 to 255
	uint8_t index = long_pointer+1;
	long_index=0;
	
	/* parse Longitude in GGA string stored in buffer */
	for( ; GGA_Buffer[index]!=','; index++){
     660:	8f 5f       	subi	r24, 0xFF	; 255
     662:	e8 2f       	mov	r30, r24
     664:	f0 e0       	ldi	r31, 0x00	; 0
     666:	e5 55       	subi	r30, 0x55	; 85
     668:	fe 4f       	sbci	r31, 0xFE	; 254
     66a:	20 81       	ld	r18, Z
     66c:	2c 32       	cpi	r18, 0x2C	; 44
     66e:	91 f7       	brne	.-28     	; 0x654 <get_longitude+0x8>
		Longitude_Buffer[long_index]= GGA_Buffer[index];
		long_index++;
	}
	
	Longitude_Buffer[long_index++] = GGA_Buffer[index++];
     670:	31 e0       	ldi	r19, 0x01	; 1
     672:	39 0f       	add	r19, r25
     674:	e9 2f       	mov	r30, r25
     676:	f0 e0       	ldi	r31, 0x00	; 0
     678:	8f 5f       	subi	r24, 0xFF	; 255
     67a:	ef 59       	subi	r30, 0x9F	; 159
     67c:	fd 4f       	sbci	r31, 0xFD	; 253
     67e:	20 83       	st	Z, r18
	Longitude_Buffer[long_index]   = GGA_Buffer[index]; /* get direction */
     680:	23 2f       	mov	r18, r19
     682:	30 e0       	ldi	r19, 0x00	; 0
     684:	e8 2f       	mov	r30, r24
     686:	f0 e0       	ldi	r31, 0x00	; 0
     688:	e5 55       	subi	r30, 0x55	; 85
     68a:	fe 4f       	sbci	r31, 0xFE	; 254
     68c:	80 81       	ld	r24, Z
     68e:	f9 01       	movw	r30, r18
     690:	ef 59       	subi	r30, 0x9F	; 159
     692:	fd 4f       	sbci	r31, 0xFD	; 253
     694:	80 83       	st	Z, r24
	convert_to_degrees_long(Longitude_Buffer); // convert raw longitude into degree format and pass that value as string
     696:	81 e6       	ldi	r24, 0x61	; 97
     698:	92 e0       	ldi	r25, 0x02	; 2
     69a:	0e 94 e5 02 	call	0x5ca	; 0x5ca <convert_to_degrees_long>
	sei(); //It is a macro that executes an assembler instruction to enable interrupts.
     69e:	78 94       	sei
     6a0:	08 95       	ret

000006a2 <__vector_13>:
	
	dtostrf(position, 6, 4, long_degrees_buffer); /* dtostrf is a function that convert float value into string.Here the position is a float value and it convert as a string degree buffer variable*/
}

ISR (USART_RXC_vect)
{
     6a2:	1f 92       	push	r1
     6a4:	0f 92       	push	r0
     6a6:	0f b6       	in	r0, 0x3f	; 63
     6a8:	0f 92       	push	r0
     6aa:	11 24       	eor	r1, r1
     6ac:	2f 93       	push	r18
     6ae:	3f 93       	push	r19
     6b0:	4f 93       	push	r20
     6b2:	5f 93       	push	r21
     6b4:	8f 93       	push	r24
     6b6:	9f 93       	push	r25
     6b8:	ef 93       	push	r30
     6ba:	ff 93       	push	r31
	uint8_t oldsrg = SREG;  //unsigned 8-bit integer- integer has a range of 0 to 255
     6bc:	9f b7       	in	r25, 0x3f	; 63
	cli();					//Command Line Interface - CLIs accept as input commands that are entered by keyboard
     6be:	f8 94       	cli
	char received_char = UDR;
     6c0:	8c b1       	in	r24, 0x0c	; 12
	
	if(received_char =='$'){                                                    /* check for '$' */
     6c2:	84 32       	cpi	r24, 0x24	; 36
     6c4:	59 f4       	brne	.+22     	; 0x6dc <__vector_13+0x3a>
		GGA_Index = 0;
     6c6:	10 92 7b 02 	sts	0x027B, r1	; 0x80027b <GGA_Index+0x1>
     6ca:	10 92 7a 02 	sts	0x027A, r1	; 0x80027a <GGA_Index>
		CommaCounter = 0;
     6ce:	10 92 79 02 	sts	0x0279, r1	; 0x800279 <CommaCounter+0x1>
     6d2:	10 92 78 02 	sts	0x0278, r1	; 0x800278 <CommaCounter>
		IsItGGAString = false;
     6d6:	10 92 a6 01 	sts	0x01A6, r1	; 0x8001a6 <__data_end>
     6da:	45 c0       	rjmp	.+138    	; 0x766 <__vector_13+0xc4>
	}
	else if(IsItGGAString == true){                                             /* if true save GGA info. into buffer */
     6dc:	20 91 a6 01 	lds	r18, 0x01A6	; 0x8001a6 <__data_end>
     6e0:	22 23       	and	r18, r18
     6e2:	29 f1       	breq	.+74     	; 0x72e <__vector_13+0x8c>
		if(received_char == ',' ) GGA_Pointers[CommaCounter++] = GGA_Index;     /* store instances of ',' in buffer */
     6e4:	8c 32       	cpi	r24, 0x2C	; 44
     6e6:	99 f4       	brne	.+38     	; 0x70e <__vector_13+0x6c>
     6e8:	20 91 78 02 	lds	r18, 0x0278	; 0x800278 <CommaCounter>
     6ec:	30 91 79 02 	lds	r19, 0x0279	; 0x800279 <CommaCounter+0x1>
     6f0:	a9 01       	movw	r20, r18
     6f2:	4f 5f       	subi	r20, 0xFF	; 255
     6f4:	5f 4f       	sbci	r21, 0xFF	; 255
     6f6:	50 93 79 02 	sts	0x0279, r21	; 0x800279 <CommaCounter+0x1>
     6fa:	40 93 78 02 	sts	0x0278, r20	; 0x800278 <CommaCounter>
     6fe:	40 91 7a 02 	lds	r20, 0x027A	; 0x80027a <GGA_Index>
     702:	50 91 7b 02 	lds	r21, 0x027B	; 0x80027b <GGA_Index+0x1>
     706:	f9 01       	movw	r30, r18
     708:	ee 56       	subi	r30, 0x6E	; 110
     70a:	fd 4f       	sbci	r31, 0xFD	; 253
     70c:	40 83       	st	Z, r20
		GGA_Buffer[GGA_Index++] = received_char;
     70e:	20 91 7a 02 	lds	r18, 0x027A	; 0x80027a <GGA_Index>
     712:	30 91 7b 02 	lds	r19, 0x027B	; 0x80027b <GGA_Index+0x1>
     716:	a9 01       	movw	r20, r18
     718:	4f 5f       	subi	r20, 0xFF	; 255
     71a:	5f 4f       	sbci	r21, 0xFF	; 255
     71c:	50 93 7b 02 	sts	0x027B, r21	; 0x80027b <GGA_Index+0x1>
     720:	40 93 7a 02 	sts	0x027A, r20	; 0x80027a <GGA_Index>
     724:	f9 01       	movw	r30, r18
     726:	e5 55       	subi	r30, 0x55	; 85
     728:	fe 4f       	sbci	r31, 0xFE	; 254
     72a:	80 83       	st	Z, r24
     72c:	1c c0       	rjmp	.+56     	; 0x766 <__vector_13+0xc4>
	}
	else if(GGA_CODE[0] == 'G' && GGA_CODE[1] == 'G' && GGA_CODE[2] == 'A'){    /* check for GGA string */
     72e:	20 91 7c 02 	lds	r18, 0x027C	; 0x80027c <GGA_CODE>
     732:	27 34       	cpi	r18, 0x47	; 71
     734:	89 f4       	brne	.+34     	; 0x758 <__vector_13+0xb6>
     736:	20 91 7d 02 	lds	r18, 0x027D	; 0x80027d <GGA_CODE+0x1>
     73a:	27 34       	cpi	r18, 0x47	; 71
     73c:	69 f4       	brne	.+26     	; 0x758 <__vector_13+0xb6>
     73e:	20 91 7e 02 	lds	r18, 0x027E	; 0x80027e <GGA_CODE+0x2>
     742:	21 34       	cpi	r18, 0x41	; 65
     744:	49 f4       	brne	.+18     	; 0x758 <__vector_13+0xb6>
		IsItGGAString = true;
     746:	81 e0       	ldi	r24, 0x01	; 1
     748:	80 93 a6 01 	sts	0x01A6, r24	; 0x8001a6 <__data_end>
		GGA_CODE[0] = 0; GGA_CODE[1] = 0; GGA_CODE[2] = 0;
     74c:	ec e7       	ldi	r30, 0x7C	; 124
     74e:	f2 e0       	ldi	r31, 0x02	; 2
     750:	10 82       	st	Z, r1
     752:	11 82       	std	Z+1, r1	; 0x01
     754:	12 82       	std	Z+2, r1	; 0x02
     756:	07 c0       	rjmp	.+14     	; 0x766 <__vector_13+0xc4>
	}
	else{
		GGA_CODE[0] = GGA_CODE[1];  GGA_CODE[1] = GGA_CODE[2]; GGA_CODE[2] = received_char;
     758:	ec e7       	ldi	r30, 0x7C	; 124
     75a:	f2 e0       	ldi	r31, 0x02	; 2
     75c:	21 81       	ldd	r18, Z+1	; 0x01
     75e:	20 83       	st	Z, r18
     760:	22 81       	ldd	r18, Z+2	; 0x02
     762:	21 83       	std	Z+1, r18	; 0x01
     764:	82 83       	std	Z+2, r24	; 0x02
	}
	SREG = oldsrg;
     766:	9f bf       	out	0x3f, r25	; 63
}
     768:	ff 91       	pop	r31
     76a:	ef 91       	pop	r30
     76c:	9f 91       	pop	r25
     76e:	8f 91       	pop	r24
     770:	5f 91       	pop	r21
     772:	4f 91       	pop	r20
     774:	3f 91       	pop	r19
     776:	2f 91       	pop	r18
     778:	0f 90       	pop	r0
     77a:	0f be       	out	0x3f, r0	; 63
     77c:	0f 90       	pop	r0
     77e:	1f 90       	pop	r1
     780:	18 95       	reti

00000782 <MPU6050_Init>:
	#else
		//round up by default
		__ticks_dc = (uint32_t)(ceil(fabs(__tmp)));
	#endif

	__builtin_avr_delay_cycles(__ticks_dc);
     782:	2f e7       	ldi	r18, 0x7F	; 127
     784:	89 ea       	ldi	r24, 0xA9	; 169
     786:	93 e0       	ldi	r25, 0x03	; 3
     788:	21 50       	subi	r18, 0x01	; 1
     78a:	80 40       	sbci	r24, 0x00	; 0
     78c:	90 40       	sbci	r25, 0x00	; 0
     78e:	e1 f7       	brne	.-8      	; 0x788 <MPU6050_Init+0x6>
     790:	00 c0       	rjmp	.+0      	; 0x792 <MPU6050_Init+0x10>
     792:	00 00       	nop
float Acc_x,Acc_y,Acc_z,Temperature,Gyro_x,Gyro_y,Gyro_z;
void MPU6050_Init()										/* Gyro initialization function */
{
	_delay_ms(150);										/* Power up time >100ms */
	I2C_Start_Wait(0xD0);								/* Start with device write address */
     794:	80 ed       	ldi	r24, 0xD0	; 208
     796:	0e 94 0b 01 	call	0x216	; 0x216 <I2C_Start_Wait>
	I2C_Write(SMPLRT_DIV);								/* Write to sample rate register */
     79a:	89 e1       	ldi	r24, 0x19	; 25
     79c:	0e 94 25 01 	call	0x24a	; 0x24a <I2C_Write>
	I2C_Write(0x07);									/* 1KHz sample rate */
     7a0:	87 e0       	ldi	r24, 0x07	; 7
     7a2:	0e 94 25 01 	call	0x24a	; 0x24a <I2C_Write>
	I2C_Stop();
     7a6:	0e 94 05 01 	call	0x20a	; 0x20a <I2C_Stop>

	I2C_Start_Wait(0xD0);
     7aa:	80 ed       	ldi	r24, 0xD0	; 208
     7ac:	0e 94 0b 01 	call	0x216	; 0x216 <I2C_Start_Wait>
	I2C_Write(PWR_MGMT_1);								/* Write to power management register */
     7b0:	8b e6       	ldi	r24, 0x6B	; 107
     7b2:	0e 94 25 01 	call	0x24a	; 0x24a <I2C_Write>
	I2C_Write(0x01);									/* X axis gyroscope reference frequency */
     7b6:	81 e0       	ldi	r24, 0x01	; 1
     7b8:	0e 94 25 01 	call	0x24a	; 0x24a <I2C_Write>
	I2C_Stop();
     7bc:	0e 94 05 01 	call	0x20a	; 0x20a <I2C_Stop>

	I2C_Start_Wait(0xD0);
     7c0:	80 ed       	ldi	r24, 0xD0	; 208
     7c2:	0e 94 0b 01 	call	0x216	; 0x216 <I2C_Start_Wait>
	I2C_Write(CONFIG);									/* Write to Configuration register */
     7c6:	8a e1       	ldi	r24, 0x1A	; 26
     7c8:	0e 94 25 01 	call	0x24a	; 0x24a <I2C_Write>
	I2C_Write(0x00);									/* Fs = 8KHz */
     7cc:	80 e0       	ldi	r24, 0x00	; 0
     7ce:	0e 94 25 01 	call	0x24a	; 0x24a <I2C_Write>
	I2C_Stop();
     7d2:	0e 94 05 01 	call	0x20a	; 0x20a <I2C_Stop>

	I2C_Start_Wait(0xD0);
     7d6:	80 ed       	ldi	r24, 0xD0	; 208
     7d8:	0e 94 0b 01 	call	0x216	; 0x216 <I2C_Start_Wait>
	I2C_Write(GYRO_CONFIG);								/* Write to Gyro configuration register */
     7dc:	8b e1       	ldi	r24, 0x1B	; 27
     7de:	0e 94 25 01 	call	0x24a	; 0x24a <I2C_Write>
	I2C_Write(0x18);									/* Full scale range +/- 2000 degree/C */
     7e2:	88 e1       	ldi	r24, 0x18	; 24
     7e4:	0e 94 25 01 	call	0x24a	; 0x24a <I2C_Write>
	I2C_Stop();
     7e8:	0e 94 05 01 	call	0x20a	; 0x20a <I2C_Stop>

	I2C_Start_Wait(0xD0);
     7ec:	80 ed       	ldi	r24, 0xD0	; 208
     7ee:	0e 94 0b 01 	call	0x216	; 0x216 <I2C_Start_Wait>
	I2C_Write(INT_ENABLE);								/* Write to interrupt enable register */
     7f2:	88 e3       	ldi	r24, 0x38	; 56
     7f4:	0e 94 25 01 	call	0x24a	; 0x24a <I2C_Write>
	I2C_Write(0x01);
     7f8:	81 e0       	ldi	r24, 0x01	; 1
     7fa:	0e 94 25 01 	call	0x24a	; 0x24a <I2C_Write>
	I2C_Stop();
     7fe:	0e 94 05 01 	call	0x20a	; 0x20a <I2C_Stop>
     802:	08 95       	ret

00000804 <MPU_Start_Loc>:
}

void MPU_Start_Loc()
{
	I2C_Start_Wait(0xD0);								/* I2C start with device write address */
     804:	80 ed       	ldi	r24, 0xD0	; 208
     806:	0e 94 0b 01 	call	0x216	; 0x216 <I2C_Start_Wait>
	I2C_Write(ACCEL_XOUT_H);							/* Write start location address from where to read */
     80a:	8b e3       	ldi	r24, 0x3B	; 59
     80c:	0e 94 25 01 	call	0x24a	; 0x24a <I2C_Write>
	I2C_Repeated_Start(0xD1);							/* I2C start with device read address */
     810:	81 ed       	ldi	r24, 0xD1	; 209
     812:	0e 94 e8 00 	call	0x1d0	; 0x1d0 <I2C_Repeated_Start>
     816:	08 95       	ret

00000818 <Read_RawValue>:
}

void Read_RawValue()
{
     818:	cf 93       	push	r28
     81a:	df 93       	push	r29
	MPU_Start_Loc();									/* Read Gyro values */
     81c:	0e 94 02 04 	call	0x804	; 0x804 <MPU_Start_Loc>
	Acc_x = (((int)I2C_Read_Ack()<<8) | (int)I2C_Read_Ack());
     820:	0e 94 37 01 	call	0x26e	; 0x26e <I2C_Read_Ack>
     824:	c8 2f       	mov	r28, r24
     826:	d0 e0       	ldi	r29, 0x00	; 0
     828:	dc 2f       	mov	r29, r28
     82a:	cc 27       	eor	r28, r28
     82c:	0e 94 37 01 	call	0x26e	; 0x26e <I2C_Read_Ack>
     830:	be 01       	movw	r22, r28
     832:	68 2b       	or	r22, r24
     834:	07 2e       	mov	r0, r23
     836:	00 0c       	add	r0, r0
     838:	88 0b       	sbc	r24, r24
     83a:	99 0b       	sbc	r25, r25
     83c:	0e 94 5b 09 	call	0x12b6	; 0x12b6 <__floatsisf>
     840:	60 93 74 02 	sts	0x0274, r22	; 0x800274 <Acc_x>
     844:	70 93 75 02 	sts	0x0275, r23	; 0x800275 <Acc_x+0x1>
     848:	80 93 76 02 	sts	0x0276, r24	; 0x800276 <Acc_x+0x2>
     84c:	90 93 77 02 	sts	0x0277, r25	; 0x800277 <Acc_x+0x3>
	Acc_y = (((int)I2C_Read_Ack()<<8) | (int)I2C_Read_Ack());
     850:	0e 94 37 01 	call	0x26e	; 0x26e <I2C_Read_Ack>
     854:	c8 2f       	mov	r28, r24
     856:	d0 e0       	ldi	r29, 0x00	; 0
     858:	dc 2f       	mov	r29, r28
     85a:	cc 27       	eor	r28, r28
     85c:	0e 94 37 01 	call	0x26e	; 0x26e <I2C_Read_Ack>
     860:	be 01       	movw	r22, r28
     862:	68 2b       	or	r22, r24
     864:	07 2e       	mov	r0, r23
     866:	00 0c       	add	r0, r0
     868:	88 0b       	sbc	r24, r24
     86a:	99 0b       	sbc	r25, r25
     86c:	0e 94 5b 09 	call	0x12b6	; 0x12b6 <__floatsisf>
     870:	60 93 49 02 	sts	0x0249, r22	; 0x800249 <Acc_y>
     874:	70 93 4a 02 	sts	0x024A, r23	; 0x80024a <Acc_y+0x1>
     878:	80 93 4b 02 	sts	0x024B, r24	; 0x80024b <Acc_y+0x2>
     87c:	90 93 4c 02 	sts	0x024C, r25	; 0x80024c <Acc_y+0x3>
	Acc_z = (((int)I2C_Read_Ack()<<8) | (int)I2C_Read_Ack());
     880:	0e 94 37 01 	call	0x26e	; 0x26e <I2C_Read_Ack>
     884:	c8 2f       	mov	r28, r24
     886:	d0 e0       	ldi	r29, 0x00	; 0
     888:	dc 2f       	mov	r29, r28
     88a:	cc 27       	eor	r28, r28
     88c:	0e 94 37 01 	call	0x26e	; 0x26e <I2C_Read_Ack>
     890:	be 01       	movw	r22, r28
     892:	68 2b       	or	r22, r24
     894:	07 2e       	mov	r0, r23
     896:	00 0c       	add	r0, r0
     898:	88 0b       	sbc	r24, r24
     89a:	99 0b       	sbc	r25, r25
     89c:	0e 94 5b 09 	call	0x12b6	; 0x12b6 <__floatsisf>
     8a0:	60 93 a7 01 	sts	0x01A7, r22	; 0x8001a7 <Acc_z>
     8a4:	70 93 a8 01 	sts	0x01A8, r23	; 0x8001a8 <Acc_z+0x1>
     8a8:	80 93 a9 01 	sts	0x01A9, r24	; 0x8001a9 <Acc_z+0x2>
     8ac:	90 93 aa 01 	sts	0x01AA, r25	; 0x8001aa <Acc_z+0x3>
	Temperature = (((int)I2C_Read_Ack()<<8) | (int)I2C_Read_Ack());
     8b0:	0e 94 37 01 	call	0x26e	; 0x26e <I2C_Read_Ack>
     8b4:	c8 2f       	mov	r28, r24
     8b6:	d0 e0       	ldi	r29, 0x00	; 0
     8b8:	dc 2f       	mov	r29, r28
     8ba:	cc 27       	eor	r28, r28
     8bc:	0e 94 37 01 	call	0x26e	; 0x26e <I2C_Read_Ack>
     8c0:	be 01       	movw	r22, r28
     8c2:	68 2b       	or	r22, r24
     8c4:	07 2e       	mov	r0, r23
     8c6:	00 0c       	add	r0, r0
     8c8:	88 0b       	sbc	r24, r24
     8ca:	99 0b       	sbc	r25, r25
     8cc:	0e 94 5b 09 	call	0x12b6	; 0x12b6 <__floatsisf>
     8d0:	60 93 45 02 	sts	0x0245, r22	; 0x800245 <Temperature>
     8d4:	70 93 46 02 	sts	0x0246, r23	; 0x800246 <Temperature+0x1>
     8d8:	80 93 47 02 	sts	0x0247, r24	; 0x800247 <Temperature+0x2>
     8dc:	90 93 48 02 	sts	0x0248, r25	; 0x800248 <Temperature+0x3>
	Gyro_x = (((int)I2C_Read_Ack()<<8) | (int)I2C_Read_Ack());
     8e0:	0e 94 37 01 	call	0x26e	; 0x26e <I2C_Read_Ack>
     8e4:	c8 2f       	mov	r28, r24
     8e6:	d0 e0       	ldi	r29, 0x00	; 0
     8e8:	dc 2f       	mov	r29, r28
     8ea:	cc 27       	eor	r28, r28
     8ec:	0e 94 37 01 	call	0x26e	; 0x26e <I2C_Read_Ack>
     8f0:	be 01       	movw	r22, r28
     8f2:	68 2b       	or	r22, r24
     8f4:	07 2e       	mov	r0, r23
     8f6:	00 0c       	add	r0, r0
     8f8:	88 0b       	sbc	r24, r24
     8fa:	99 0b       	sbc	r25, r25
     8fc:	0e 94 5b 09 	call	0x12b6	; 0x12b6 <__floatsisf>
     900:	60 93 41 02 	sts	0x0241, r22	; 0x800241 <Gyro_x>
     904:	70 93 42 02 	sts	0x0242, r23	; 0x800242 <Gyro_x+0x1>
     908:	80 93 43 02 	sts	0x0243, r24	; 0x800243 <Gyro_x+0x2>
     90c:	90 93 44 02 	sts	0x0244, r25	; 0x800244 <Gyro_x+0x3>
	Gyro_y = (((int)I2C_Read_Ack()<<8) | (int)I2C_Read_Ack());
     910:	0e 94 37 01 	call	0x26e	; 0x26e <I2C_Read_Ack>
     914:	c8 2f       	mov	r28, r24
     916:	d0 e0       	ldi	r29, 0x00	; 0
     918:	dc 2f       	mov	r29, r28
     91a:	cc 27       	eor	r28, r28
     91c:	0e 94 37 01 	call	0x26e	; 0x26e <I2C_Read_Ack>
     920:	be 01       	movw	r22, r28
     922:	68 2b       	or	r22, r24
     924:	07 2e       	mov	r0, r23
     926:	00 0c       	add	r0, r0
     928:	88 0b       	sbc	r24, r24
     92a:	99 0b       	sbc	r25, r25
     92c:	0e 94 5b 09 	call	0x12b6	; 0x12b6 <__floatsisf>
     930:	60 93 8e 02 	sts	0x028E, r22	; 0x80028e <Gyro_y>
     934:	70 93 8f 02 	sts	0x028F, r23	; 0x80028f <Gyro_y+0x1>
     938:	80 93 90 02 	sts	0x0290, r24	; 0x800290 <Gyro_y+0x2>
     93c:	90 93 91 02 	sts	0x0291, r25	; 0x800291 <Gyro_y+0x3>
	Gyro_z = (((int)I2C_Read_Ack()<<8) | (int)I2C_Read_Nack());
     940:	0e 94 37 01 	call	0x26e	; 0x26e <I2C_Read_Ack>
     944:	c8 2f       	mov	r28, r24
     946:	d0 e0       	ldi	r29, 0x00	; 0
     948:	dc 2f       	mov	r29, r28
     94a:	cc 27       	eor	r28, r28
     94c:	0e 94 3e 01 	call	0x27c	; 0x27c <I2C_Read_Nack>
     950:	be 01       	movw	r22, r28
     952:	68 2b       	or	r22, r24
     954:	07 2e       	mov	r0, r23
     956:	00 0c       	add	r0, r0
     958:	88 0b       	sbc	r24, r24
     95a:	99 0b       	sbc	r25, r25
     95c:	0e 94 5b 09 	call	0x12b6	; 0x12b6 <__floatsisf>
     960:	60 93 70 02 	sts	0x0270, r22	; 0x800270 <Gyro_z>
     964:	70 93 71 02 	sts	0x0271, r23	; 0x800271 <Gyro_z+0x1>
     968:	80 93 72 02 	sts	0x0272, r24	; 0x800272 <Gyro_z+0x2>
     96c:	90 93 73 02 	sts	0x0273, r25	; 0x800273 <Gyro_z+0x3>
	I2C_Stop();
     970:	0e 94 05 01 	call	0x20a	; 0x20a <I2C_Stop>
}
     974:	df 91       	pop	r29
     976:	cf 91       	pop	r28
     978:	08 95       	ret

0000097a <isDriverSleepingGyro>:

int isDriverSleepingGyro(float Xa,float Ya,float Za){
     97a:	4f 92       	push	r4
     97c:	5f 92       	push	r5
     97e:	6f 92       	push	r6
     980:	7f 92       	push	r7
     982:	8f 92       	push	r8
     984:	9f 92       	push	r9
     986:	af 92       	push	r10
     988:	bf 92       	push	r11
     98a:	cf 92       	push	r12
     98c:	df 92       	push	r13
     98e:	ef 92       	push	r14
     990:	ff 92       	push	r15
     992:	0f 93       	push	r16
     994:	1f 93       	push	r17
     996:	4b 01       	movw	r8, r22
     998:	5c 01       	movw	r10, r24
     99a:	29 01       	movw	r4, r18
     99c:	3a 01       	movw	r6, r20
     99e:	67 01       	movw	r12, r14
     9a0:	78 01       	movw	r14, r16
	if((Za>-2.0 && Za<2.0) && (Xa>-3.0 && Xa<3.0) && (Ya>=8.0 && Ya<=9.0)){
     9a2:	20 e0       	ldi	r18, 0x00	; 0
     9a4:	30 e0       	ldi	r19, 0x00	; 0
     9a6:	40 e0       	ldi	r20, 0x00	; 0
     9a8:	50 ec       	ldi	r21, 0xC0	; 192
     9aa:	c7 01       	movw	r24, r14
     9ac:	b6 01       	movw	r22, r12
     9ae:	0e 94 0b 0a 	call	0x1416	; 0x1416 <__gesf2>
     9b2:	18 16       	cp	r1, r24
     9b4:	ac f5       	brge	.+106    	; 0xa20 <isDriverSleepingGyro+0xa6>
     9b6:	20 e0       	ldi	r18, 0x00	; 0
     9b8:	30 e0       	ldi	r19, 0x00	; 0
     9ba:	40 e0       	ldi	r20, 0x00	; 0
     9bc:	50 e4       	ldi	r21, 0x40	; 64
     9be:	c7 01       	movw	r24, r14
     9c0:	b6 01       	movw	r22, r12
     9c2:	0e 94 ac 08 	call	0x1158	; 0x1158 <__cmpsf2>
     9c6:	88 23       	and	r24, r24
     9c8:	74 f5       	brge	.+92     	; 0xa26 <isDriverSleepingGyro+0xac>
     9ca:	20 e0       	ldi	r18, 0x00	; 0
     9cc:	30 e0       	ldi	r19, 0x00	; 0
     9ce:	40 e4       	ldi	r20, 0x40	; 64
     9d0:	50 ec       	ldi	r21, 0xC0	; 192
     9d2:	c5 01       	movw	r24, r10
     9d4:	b4 01       	movw	r22, r8
     9d6:	0e 94 0b 0a 	call	0x1416	; 0x1416 <__gesf2>
     9da:	18 16       	cp	r1, r24
     9dc:	3c f5       	brge	.+78     	; 0xa2c <isDriverSleepingGyro+0xb2>
     9de:	20 e0       	ldi	r18, 0x00	; 0
     9e0:	30 e0       	ldi	r19, 0x00	; 0
     9e2:	40 e4       	ldi	r20, 0x40	; 64
     9e4:	50 e4       	ldi	r21, 0x40	; 64
     9e6:	c5 01       	movw	r24, r10
     9e8:	b4 01       	movw	r22, r8
     9ea:	0e 94 ac 08 	call	0x1158	; 0x1158 <__cmpsf2>
     9ee:	88 23       	and	r24, r24
     9f0:	04 f5       	brge	.+64     	; 0xa32 <isDriverSleepingGyro+0xb8>
     9f2:	20 e0       	ldi	r18, 0x00	; 0
     9f4:	30 e0       	ldi	r19, 0x00	; 0
     9f6:	40 e0       	ldi	r20, 0x00	; 0
     9f8:	51 e4       	ldi	r21, 0x41	; 65
     9fa:	c3 01       	movw	r24, r6
     9fc:	b2 01       	movw	r22, r4
     9fe:	0e 94 0b 0a 	call	0x1416	; 0x1416 <__gesf2>
     a02:	88 23       	and	r24, r24
     a04:	cc f0       	brlt	.+50     	; 0xa38 <isDriverSleepingGyro+0xbe>
     a06:	20 e0       	ldi	r18, 0x00	; 0
     a08:	30 e0       	ldi	r19, 0x00	; 0
     a0a:	40 e1       	ldi	r20, 0x10	; 16
     a0c:	51 e4       	ldi	r21, 0x41	; 65
     a0e:	c3 01       	movw	r24, r6
     a10:	b2 01       	movw	r22, r4
     a12:	0e 94 ac 08 	call	0x1158	; 0x1158 <__cmpsf2>
     a16:	18 16       	cp	r1, r24
     a18:	94 f4       	brge	.+36     	; 0xa3e <isDriverSleepingGyro+0xc4>
		return 0;//driver is not sleeping
	}else{
		return 1;//driver is sleeping
     a1a:	81 e0       	ldi	r24, 0x01	; 1
     a1c:	90 e0       	ldi	r25, 0x00	; 0
     a1e:	11 c0       	rjmp	.+34     	; 0xa42 <isDriverSleepingGyro+0xc8>
     a20:	81 e0       	ldi	r24, 0x01	; 1
     a22:	90 e0       	ldi	r25, 0x00	; 0
     a24:	0e c0       	rjmp	.+28     	; 0xa42 <isDriverSleepingGyro+0xc8>
     a26:	81 e0       	ldi	r24, 0x01	; 1
     a28:	90 e0       	ldi	r25, 0x00	; 0
     a2a:	0b c0       	rjmp	.+22     	; 0xa42 <isDriverSleepingGyro+0xc8>
     a2c:	81 e0       	ldi	r24, 0x01	; 1
     a2e:	90 e0       	ldi	r25, 0x00	; 0
     a30:	08 c0       	rjmp	.+16     	; 0xa42 <isDriverSleepingGyro+0xc8>
     a32:	81 e0       	ldi	r24, 0x01	; 1
     a34:	90 e0       	ldi	r25, 0x00	; 0
     a36:	05 c0       	rjmp	.+10     	; 0xa42 <isDriverSleepingGyro+0xc8>
     a38:	81 e0       	ldi	r24, 0x01	; 1
     a3a:	90 e0       	ldi	r25, 0x00	; 0
     a3c:	02 c0       	rjmp	.+4      	; 0xa42 <isDriverSleepingGyro+0xc8>
	I2C_Stop();
}

int isDriverSleepingGyro(float Xa,float Ya,float Za){
	if((Za>-2.0 && Za<2.0) && (Xa>-3.0 && Xa<3.0) && (Ya>=8.0 && Ya<=9.0)){
		return 0;//driver is not sleeping
     a3e:	80 e0       	ldi	r24, 0x00	; 0
     a40:	90 e0       	ldi	r25, 0x00	; 0
	}else{
		return 1;//driver is sleeping
	}
     a42:	1f 91       	pop	r17
     a44:	0f 91       	pop	r16
     a46:	ff 90       	pop	r15
     a48:	ef 90       	pop	r14
     a4a:	df 90       	pop	r13
     a4c:	cf 90       	pop	r12
     a4e:	bf 90       	pop	r11
     a50:	af 90       	pop	r10
     a52:	9f 90       	pop	r9
     a54:	8f 90       	pop	r8
     a56:	7f 90       	pop	r7
     a58:	6f 90       	pop	r6
     a5a:	5f 90       	pop	r5
     a5c:	4f 90       	pop	r4
     a5e:	08 95       	ret

00000a60 <PWM_init>:

//fast pwm mode
void PWM_init(){
	/*set fast PWM mode with non-inverted output*/
	TCCR0 = (1<<WGM00) | (1<<WGM01) | (1<<COM01) | (1<<CS00);
     a60:	89 e6       	ldi	r24, 0x69	; 105
     a62:	83 bf       	out	0x33, r24	; 51
	DDRB|=(1<<PB3);  /*set OC0 pin as output*/
     a64:	87 b3       	in	r24, 0x17	; 23
     a66:	88 60       	ori	r24, 0x08	; 8
     a68:	87 bb       	out	0x17, r24	; 23
     a6a:	08 95       	ret

00000a6c <sendMessage>:

void sendMessage(char* msg,char* lat,char* lngtd,char* altitude){
     a6c:	cf 92       	push	r12
     a6e:	df 92       	push	r13
     a70:	ef 92       	push	r14
     a72:	ff 92       	push	r15
     a74:	0f 93       	push	r16
     a76:	1f 93       	push	r17
     a78:	cf 93       	push	r28
     a7a:	df 93       	push	r29
     a7c:	cd b7       	in	r28, 0x3d	; 61
     a7e:	de b7       	in	r29, 0x3e	; 62
     a80:	a3 97       	sbiw	r28, 0x23	; 35
     a82:	0f b6       	in	r0, 0x3f	; 63
     a84:	f8 94       	cli
     a86:	de bf       	out	0x3e, r29	; 62
     a88:	0f be       	out	0x3f, r0	; 63
     a8a:	cd bf       	out	0x3d, r28	; 61
     a8c:	7c 01       	movw	r14, r24
     a8e:	6a 01       	movw	r12, r20
     a90:	89 01       	movw	r16, r18
	unsigned char cmd_1[4]="AT";
     a92:	81 e4       	ldi	r24, 0x41	; 65
     a94:	94 e5       	ldi	r25, 0x54	; 84
     a96:	9a 83       	std	Y+2, r25	; 0x02
     a98:	89 83       	std	Y+1, r24	; 0x01
     a9a:	1c 82       	std	Y+4, r1	; 0x04
     a9c:	1b 82       	std	Y+3, r1	; 0x03
	unsigned char cmd_2[10]="AT+CMGF=1";
     a9e:	8a e0       	ldi	r24, 0x0A	; 10
     aa0:	e7 ec       	ldi	r30, 0xC7	; 199
     aa2:	f0 e0       	ldi	r31, 0x00	; 0
     aa4:	de 01       	movw	r26, r28
     aa6:	15 96       	adiw	r26, 0x05	; 5
     aa8:	01 90       	ld	r0, Z+
     aaa:	0d 92       	st	X+, r0
     aac:	8a 95       	dec	r24
     aae:	e1 f7       	brne	.-8      	; 0xaa8 <sendMessage+0x3c>
	unsigned char cmd_3[10]="AT+CMGS=";
     ab0:	89 e0       	ldi	r24, 0x09	; 9
     ab2:	e0 e6       	ldi	r30, 0x60	; 96
     ab4:	f0 e0       	ldi	r31, 0x00	; 0
     ab6:	de 01       	movw	r26, r28
     ab8:	1f 96       	adiw	r26, 0x0f	; 15
     aba:	01 90       	ld	r0, Z+
     abc:	0d 92       	st	X+, r0
     abe:	8a 95       	dec	r24
     ac0:	e1 f7       	brne	.-8      	; 0xaba <sendMessage+0x4e>
     ac2:	18 8e       	std	Y+24, r1	; 0x18
	char* cmd_4 = msg;
	strcat(cmd_4,"\r   Location\r   Latitude : ");
     ac4:	d7 01       	movw	r26, r14
     ac6:	0d 90       	ld	r0, X+
     ac8:	00 20       	and	r0, r0
     aca:	e9 f7       	brne	.-6      	; 0xac6 <sendMessage+0x5a>
     acc:	11 97       	sbiw	r26, 0x01	; 1
     ace:	8c e1       	ldi	r24, 0x1C	; 28
     ad0:	ea e6       	ldi	r30, 0x6A	; 106
     ad2:	f0 e0       	ldi	r31, 0x00	; 0
     ad4:	01 90       	ld	r0, Z+
     ad6:	0d 92       	st	X+, r0
     ad8:	8a 95       	dec	r24
     ada:	e1 f7       	brne	.-8      	; 0xad4 <sendMessage+0x68>
	strcat(cmd_4,lat);
     adc:	c7 01       	movw	r24, r14
     ade:	0e 94 c3 0a 	call	0x1586	; 0x1586 <strcat>
	strcat(cmd_4,"\r   Longitude : ");
     ae2:	d7 01       	movw	r26, r14
     ae4:	0d 90       	ld	r0, X+
     ae6:	00 20       	and	r0, r0
     ae8:	e9 f7       	brne	.-6      	; 0xae4 <sendMessage+0x78>
     aea:	11 97       	sbiw	r26, 0x01	; 1
     aec:	81 e1       	ldi	r24, 0x11	; 17
     aee:	e6 e8       	ldi	r30, 0x86	; 134
     af0:	f0 e0       	ldi	r31, 0x00	; 0
     af2:	01 90       	ld	r0, Z+
     af4:	0d 92       	st	X+, r0
     af6:	8a 95       	dec	r24
     af8:	e1 f7       	brne	.-8      	; 0xaf2 <sendMessage+0x86>
	strcat(cmd_4,lngtd);
     afa:	b6 01       	movw	r22, r12
     afc:	c7 01       	movw	r24, r14
     afe:	0e 94 c3 0a 	call	0x1586	; 0x1586 <strcat>
	strcat(cmd_4,"\r   Altitude : ");
     b02:	d7 01       	movw	r26, r14
     b04:	0d 90       	ld	r0, X+
     b06:	00 20       	and	r0, r0
     b08:	e9 f7       	brne	.-6      	; 0xb04 <sendMessage+0x98>
     b0a:	11 97       	sbiw	r26, 0x01	; 1
     b0c:	80 e1       	ldi	r24, 0x10	; 16
     b0e:	e7 e9       	ldi	r30, 0x97	; 151
     b10:	f0 e0       	ldi	r31, 0x00	; 0
     b12:	01 90       	ld	r0, Z+
     b14:	0d 92       	st	X+, r0
     b16:	8a 95       	dec	r24
     b18:	e1 f7       	brne	.-8      	; 0xb12 <sendMessage+0xa6>
	strcat(cmd_4,altitude);
     b1a:	b8 01       	movw	r22, r16
     b1c:	c7 01       	movw	r24, r14
     b1e:	0e 94 c3 0a 	call	0x1586	; 0x1586 <strcat>
	unsigned char num[11] = "0771234567";
     b22:	8b e0       	ldi	r24, 0x0B	; 11
     b24:	e1 ed       	ldi	r30, 0xD1	; 209
     b26:	f0 e0       	ldi	r31, 0x00	; 0
     b28:	de 01       	movw	r26, r28
     b2a:	59 96       	adiw	r26, 0x19	; 25
     b2c:	01 90       	ld	r0, Z+
     b2e:	0d 92       	st	X+, r0
     b30:	8a 95       	dec	r24
     b32:	e1 f7       	brne	.-8      	; 0xb2c <sendMessage+0xc0>
	LCD_Clear();
     b34:	0e 94 01 02 	call	0x402	; 0x402 <LCD_Clear>
	LCD_String_xy(1,0,"Message");
     b38:	47 ea       	ldi	r20, 0xA7	; 167
     b3a:	50 e0       	ldi	r21, 0x00	; 0
     b3c:	60 e0       	ldi	r22, 0x00	; 0
     b3e:	81 e0       	ldi	r24, 0x01	; 1
     b40:	0e 94 e5 01 	call	0x3ca	; 0x3ca <LCD_String_xy>
	LCD_Command(0xc0);
     b44:	80 ec       	ldi	r24, 0xC0	; 192
     b46:	0e 94 45 01 	call	0x28a	; 0x28a <LCD_Command>
	LCD_String_xy(2,3,"Forwarding");
     b4a:	4f ea       	ldi	r20, 0xAF	; 175
     b4c:	50 e0       	ldi	r21, 0x00	; 0
     b4e:	63 e0       	ldi	r22, 0x03	; 3
     b50:	82 e0       	ldi	r24, 0x02	; 2
     b52:	0e 94 e5 01 	call	0x3ca	; 0x3ca <LCD_String_xy>
     b56:	2f ef       	ldi	r18, 0xFF	; 255
     b58:	84 e3       	ldi	r24, 0x34	; 52
     b5a:	9c e0       	ldi	r25, 0x0C	; 12
     b5c:	21 50       	subi	r18, 0x01	; 1
     b5e:	80 40       	sbci	r24, 0x00	; 0
     b60:	90 40       	sbci	r25, 0x00	; 0
     b62:	e1 f7       	brne	.-8      	; 0xb5c <sendMessage+0xf0>
     b64:	00 c0       	rjmp	.+0      	; 0xb66 <sendMessage+0xfa>
     b66:	00 00       	nop
	_delay_ms(500);
	for (int i=0;cmd_1[i]!='\0';i++) /*checking communication*/
     b68:	00 e0       	ldi	r16, 0x00	; 0
     b6a:	10 e0       	ldi	r17, 0x00	; 0
     b6c:	0a c0       	rjmp	.+20     	; 0xb82 <sendMessage+0x116>
	{
		USART_TxChar(cmd_1[i]);
     b6e:	0e 94 3c 02 	call	0x478	; 0x478 <USART_TxChar>
     b72:	8f e0       	ldi	r24, 0x0F	; 15
     b74:	97 e2       	ldi	r25, 0x27	; 39
     b76:	01 97       	sbiw	r24, 0x01	; 1
     b78:	f1 f7       	brne	.-4      	; 0xb76 <sendMessage+0x10a>
     b7a:	00 c0       	rjmp	.+0      	; 0xb7c <sendMessage+0x110>
     b7c:	00 00       	nop
	LCD_Clear();
	LCD_String_xy(1,0,"Message");
	LCD_Command(0xc0);
	LCD_String_xy(2,3,"Forwarding");
	_delay_ms(500);
	for (int i=0;cmd_1[i]!='\0';i++) /*checking communication*/
     b7e:	0f 5f       	subi	r16, 0xFF	; 255
     b80:	1f 4f       	sbci	r17, 0xFF	; 255
     b82:	e1 e0       	ldi	r30, 0x01	; 1
     b84:	f0 e0       	ldi	r31, 0x00	; 0
     b86:	ec 0f       	add	r30, r28
     b88:	fd 1f       	adc	r31, r29
     b8a:	e0 0f       	add	r30, r16
     b8c:	f1 1f       	adc	r31, r17
     b8e:	80 81       	ld	r24, Z
     b90:	81 11       	cpse	r24, r1
     b92:	ed cf       	rjmp	.-38     	; 0xb6e <sendMessage+0x102>
	{
		USART_TxChar(cmd_1[i]);
		_delay_ms(5);
	}
	USART_TxChar('\r'); /*carriage return ---> begining from the first line without going to next line*/
     b94:	8d e0       	ldi	r24, 0x0D	; 13
     b96:	0e 94 3c 02 	call	0x478	; 0x478 <USART_TxChar>
     b9a:	8f e0       	ldi	r24, 0x0F	; 15
     b9c:	97 e2       	ldi	r25, 0x27	; 39
     b9e:	01 97       	sbiw	r24, 0x01	; 1
     ba0:	f1 f7       	brne	.-4      	; 0xb9e <sendMessage+0x132>
     ba2:	00 c0       	rjmp	.+0      	; 0xba4 <sendMessage+0x138>
     ba4:	00 00       	nop
	_delay_ms(5);
	
	for (int i=0;cmd_2[i]!='\0';i++) /* set the operating mode to SMS text mode*/
     ba6:	00 e0       	ldi	r16, 0x00	; 0
     ba8:	10 e0       	ldi	r17, 0x00	; 0
     baa:	0a c0       	rjmp	.+20     	; 0xbc0 <sendMessage+0x154>
	{
		USART_TxChar(cmd_2[i]);
     bac:	0e 94 3c 02 	call	0x478	; 0x478 <USART_TxChar>
     bb0:	8f e0       	ldi	r24, 0x0F	; 15
     bb2:	97 e2       	ldi	r25, 0x27	; 39
     bb4:	01 97       	sbiw	r24, 0x01	; 1
     bb6:	f1 f7       	brne	.-4      	; 0xbb4 <sendMessage+0x148>
     bb8:	00 c0       	rjmp	.+0      	; 0xbba <sendMessage+0x14e>
     bba:	00 00       	nop
		_delay_ms(5);
	}
	USART_TxChar('\r'); /*carriage return ---> begining from the first line without going to next line*/
	_delay_ms(5);
	
	for (int i=0;cmd_2[i]!='\0';i++) /* set the operating mode to SMS text mode*/
     bbc:	0f 5f       	subi	r16, 0xFF	; 255
     bbe:	1f 4f       	sbci	r17, 0xFF	; 255
     bc0:	e5 e0       	ldi	r30, 0x05	; 5
     bc2:	f0 e0       	ldi	r31, 0x00	; 0
     bc4:	ec 0f       	add	r30, r28
     bc6:	fd 1f       	adc	r31, r29
     bc8:	e0 0f       	add	r30, r16
     bca:	f1 1f       	adc	r31, r17
     bcc:	80 81       	ld	r24, Z
     bce:	81 11       	cpse	r24, r1
     bd0:	ed cf       	rjmp	.-38     	; 0xbac <sendMessage+0x140>
	{
		USART_TxChar(cmd_2[i]);
		_delay_ms(5);
	}
	USART_TxChar('\r');
     bd2:	8d e0       	ldi	r24, 0x0D	; 13
     bd4:	0e 94 3c 02 	call	0x478	; 0x478 <USART_TxChar>
     bd8:	8f e0       	ldi	r24, 0x0F	; 15
     bda:	97 e2       	ldi	r25, 0x27	; 39
     bdc:	01 97       	sbiw	r24, 0x01	; 1
     bde:	f1 f7       	brne	.-4      	; 0xbdc <sendMessage+0x170>
     be0:	00 c0       	rjmp	.+0      	; 0xbe2 <sendMessage+0x176>
     be2:	00 00       	nop
	_delay_ms(5);
	
	for (int i=0;cmd_3[i]!='\0';i++) /* send SMS in text mode*/
     be4:	00 e0       	ldi	r16, 0x00	; 0
     be6:	10 e0       	ldi	r17, 0x00	; 0
     be8:	0a c0       	rjmp	.+20     	; 0xbfe <sendMessage+0x192>
	{
		USART_TxChar(cmd_3[i]);
     bea:	0e 94 3c 02 	call	0x478	; 0x478 <USART_TxChar>
     bee:	8f e0       	ldi	r24, 0x0F	; 15
     bf0:	97 e2       	ldi	r25, 0x27	; 39
     bf2:	01 97       	sbiw	r24, 0x01	; 1
     bf4:	f1 f7       	brne	.-4      	; 0xbf2 <sendMessage+0x186>
     bf6:	00 c0       	rjmp	.+0      	; 0xbf8 <sendMessage+0x18c>
     bf8:	00 00       	nop
		_delay_ms(5);
	}
	USART_TxChar('\r');
	_delay_ms(5);
	
	for (int i=0;cmd_3[i]!='\0';i++) /* send SMS in text mode*/
     bfa:	0f 5f       	subi	r16, 0xFF	; 255
     bfc:	1f 4f       	sbci	r17, 0xFF	; 255
     bfe:	ef e0       	ldi	r30, 0x0F	; 15
     c00:	f0 e0       	ldi	r31, 0x00	; 0
     c02:	ec 0f       	add	r30, r28
     c04:	fd 1f       	adc	r31, r29
     c06:	e0 0f       	add	r30, r16
     c08:	f1 1f       	adc	r31, r17
     c0a:	80 81       	ld	r24, Z
     c0c:	81 11       	cpse	r24, r1
     c0e:	ed cf       	rjmp	.-38     	; 0xbea <sendMessage+0x17e>
	{
		USART_TxChar(cmd_3[i]);
		_delay_ms(5);
	}
	UDR='"';
     c10:	82 e2       	ldi	r24, 0x22	; 34
     c12:	8c b9       	out	0x0c, r24	; 12
     c14:	9f ef       	ldi	r25, 0xFF	; 255
     c16:	20 e7       	ldi	r18, 0x70	; 112
     c18:	82 e0       	ldi	r24, 0x02	; 2
     c1a:	91 50       	subi	r25, 0x01	; 1
     c1c:	20 40       	sbci	r18, 0x00	; 0
     c1e:	80 40       	sbci	r24, 0x00	; 0
     c20:	e1 f7       	brne	.-8      	; 0xc1a <sendMessage+0x1ae>
     c22:	00 c0       	rjmp	.+0      	; 0xc24 <sendMessage+0x1b8>
     c24:	00 00       	nop
	_delay_ms(100);
	for (int i=0;num[i]!='\0';i++) /* SMS to be sent */
     c26:	00 e0       	ldi	r16, 0x00	; 0
     c28:	10 e0       	ldi	r17, 0x00	; 0
     c2a:	0a c0       	rjmp	.+20     	; 0xc40 <sendMessage+0x1d4>
	{
		USART_TxChar(num[i]);
     c2c:	0e 94 3c 02 	call	0x478	; 0x478 <USART_TxChar>
     c30:	8f e0       	ldi	r24, 0x0F	; 15
     c32:	97 e2       	ldi	r25, 0x27	; 39
     c34:	01 97       	sbiw	r24, 0x01	; 1
     c36:	f1 f7       	brne	.-4      	; 0xc34 <sendMessage+0x1c8>
     c38:	00 c0       	rjmp	.+0      	; 0xc3a <sendMessage+0x1ce>
     c3a:	00 00       	nop
		USART_TxChar(cmd_3[i]);
		_delay_ms(5);
	}
	UDR='"';
	_delay_ms(100);
	for (int i=0;num[i]!='\0';i++) /* SMS to be sent */
     c3c:	0f 5f       	subi	r16, 0xFF	; 255
     c3e:	1f 4f       	sbci	r17, 0xFF	; 255
     c40:	e9 e1       	ldi	r30, 0x19	; 25
     c42:	f0 e0       	ldi	r31, 0x00	; 0
     c44:	ec 0f       	add	r30, r28
     c46:	fd 1f       	adc	r31, r29
     c48:	e0 0f       	add	r30, r16
     c4a:	f1 1f       	adc	r31, r17
     c4c:	80 81       	ld	r24, Z
     c4e:	81 11       	cpse	r24, r1
     c50:	ed cf       	rjmp	.-38     	; 0xc2c <sendMessage+0x1c0>
	{
		USART_TxChar(num[i]);
		_delay_ms(5);
	}
	UDR='"';
     c52:	82 e2       	ldi	r24, 0x22	; 34
     c54:	8c b9       	out	0x0c, r24	; 12
     c56:	8f e0       	ldi	r24, 0x0F	; 15
     c58:	97 e2       	ldi	r25, 0x27	; 39
     c5a:	01 97       	sbiw	r24, 0x01	; 1
     c5c:	f1 f7       	brne	.-4      	; 0xc5a <sendMessage+0x1ee>
     c5e:	00 c0       	rjmp	.+0      	; 0xc60 <sendMessage+0x1f4>
     c60:	00 00       	nop
	_delay_ms(5);
	UDR='\r';
     c62:	8d e0       	ldi	r24, 0x0D	; 13
     c64:	8c b9       	out	0x0c, r24	; 12
     c66:	8f e0       	ldi	r24, 0x0F	; 15
     c68:	97 e2       	ldi	r25, 0x27	; 39
     c6a:	01 97       	sbiw	r24, 0x01	; 1
     c6c:	f1 f7       	brne	.-4      	; 0xc6a <sendMessage+0x1fe>
     c6e:	00 c0       	rjmp	.+0      	; 0xc70 <sendMessage+0x204>
     c70:	00 00       	nop
	_delay_ms(5);

	for (int i=0;cmd_4[i]!='\0';i++) /* message */
     c72:	00 e0       	ldi	r16, 0x00	; 0
     c74:	10 e0       	ldi	r17, 0x00	; 0
     c76:	0a c0       	rjmp	.+20     	; 0xc8c <sendMessage+0x220>
	{
		USART_TxChar(cmd_4[i]);
     c78:	0e 94 3c 02 	call	0x478	; 0x478 <USART_TxChar>
     c7c:	8f e0       	ldi	r24, 0x0F	; 15
     c7e:	97 e2       	ldi	r25, 0x27	; 39
     c80:	01 97       	sbiw	r24, 0x01	; 1
     c82:	f1 f7       	brne	.-4      	; 0xc80 <sendMessage+0x214>
     c84:	00 c0       	rjmp	.+0      	; 0xc86 <sendMessage+0x21a>
     c86:	00 00       	nop
	UDR='"';
	_delay_ms(5);
	UDR='\r';
	_delay_ms(5);

	for (int i=0;cmd_4[i]!='\0';i++) /* message */
     c88:	0f 5f       	subi	r16, 0xFF	; 255
     c8a:	1f 4f       	sbci	r17, 0xFF	; 255
     c8c:	f7 01       	movw	r30, r14
     c8e:	e0 0f       	add	r30, r16
     c90:	f1 1f       	adc	r31, r17
     c92:	80 81       	ld	r24, Z
     c94:	81 11       	cpse	r24, r1
     c96:	f0 cf       	rjmp	.-32     	; 0xc78 <sendMessage+0x20c>
     c98:	9f ef       	ldi	r25, 0xFF	; 255
     c9a:	21 ee       	ldi	r18, 0xE1	; 225
     c9c:	84 e0       	ldi	r24, 0x04	; 4
     c9e:	91 50       	subi	r25, 0x01	; 1
     ca0:	20 40       	sbci	r18, 0x00	; 0
     ca2:	80 40       	sbci	r24, 0x00	; 0
     ca4:	e1 f7       	brne	.-8      	; 0xc9e <sendMessage+0x232>
     ca6:	00 c0       	rjmp	.+0      	; 0xca8 <sendMessage+0x23c>
     ca8:	00 00       	nop
	{
		USART_TxChar(cmd_4[i]);
		_delay_ms(5);
	}
	_delay_ms(200);
	LCD_Clear();
     caa:	0e 94 01 02 	call	0x402	; 0x402 <LCD_Clear>
	LCD_String_xy(1,0,"Message sent");
     cae:	4a eb       	ldi	r20, 0xBA	; 186
     cb0:	50 e0       	ldi	r21, 0x00	; 0
     cb2:	60 e0       	ldi	r22, 0x00	; 0
     cb4:	81 e0       	ldi	r24, 0x01	; 1
     cb6:	0e 94 e5 01 	call	0x3ca	; 0x3ca <LCD_String_xy>
     cba:	9f ef       	ldi	r25, 0xFF	; 255
     cbc:	22 e5       	ldi	r18, 0x52	; 82
     cbe:	87 e0       	ldi	r24, 0x07	; 7
     cc0:	91 50       	subi	r25, 0x01	; 1
     cc2:	20 40       	sbci	r18, 0x00	; 0
     cc4:	80 40       	sbci	r24, 0x00	; 0
     cc6:	e1 f7       	brne	.-8      	; 0xcc0 <sendMessage+0x254>
     cc8:	00 c0       	rjmp	.+0      	; 0xcca <sendMessage+0x25e>
     cca:	00 00       	nop
	_delay_ms(300);
	LCD_Clear();
     ccc:	0e 94 01 02 	call	0x402	; 0x402 <LCD_Clear>
     cd0:	a3 96       	adiw	r28, 0x23	; 35
     cd2:	0f b6       	in	r0, 0x3f	; 63
     cd4:	f8 94       	cli
     cd6:	de bf       	out	0x3e, r29	; 62
     cd8:	0f be       	out	0x3f, r0	; 63
     cda:	cd bf       	out	0x3d, r28	; 61
     cdc:	df 91       	pop	r29
     cde:	cf 91       	pop	r28
     ce0:	1f 91       	pop	r17
     ce2:	0f 91       	pop	r16
     ce4:	ff 90       	pop	r15
     ce6:	ef 90       	pop	r14
     ce8:	df 90       	pop	r13
     cea:	cf 90       	pop	r12
     cec:	08 95       	ret

00000cee <ringAlarm>:
		}
	}
}

void ringAlarm(){
	portHigh(PORTD,buzzer);//buzzer
     cee:	82 b3       	in	r24, 0x12	; 18
     cf0:	80 68       	ori	r24, 0x80	; 128
     cf2:	82 bb       	out	0x12, r24	; 18
     cf4:	08 95       	ret

00000cf6 <stopAlarm>:
}
void stopAlarm(){
	portLow(PORTD,buzzer);
     cf6:	82 b3       	in	r24, 0x12	; 18
     cf8:	8f 77       	andi	r24, 0x7F	; 127
     cfa:	82 bb       	out	0x12, r24	; 18
     cfc:	08 95       	ret

00000cfe <onHazardLight>:
}
void onHazardLight(){
	portHigh(PORTD,led);
     cfe:	82 b3       	in	r24, 0x12	; 18
     d00:	80 64       	ori	r24, 0x40	; 64
     d02:	82 bb       	out	0x12, r24	; 18
     d04:	08 95       	ret

00000d06 <offHazardLight>:
}
void offHazardLight(){
	portLow(PORTD,led);
     d06:	82 b3       	in	r24, 0x12	; 18
     d08:	8f 7b       	andi	r24, 0xBF	; 191
     d0a:	82 bb       	out	0x12, r24	; 18
     d0c:	08 95       	ret

00000d0e <playRadio>:
}
void playRadio(){
	portHigh(PORTD,musicSystem);
     d0e:	82 b3       	in	r24, 0x12	; 18
     d10:	80 62       	ori	r24, 0x20	; 32
     d12:	82 bb       	out	0x12, r24	; 18
     d14:	08 95       	ret

00000d16 <isDriverSleepingIR>:
}

int isDriverSleepingIR(){
     d16:	cf 93       	push	r28
     d18:	df 93       	push	r29
	LCD_Clear();
     d1a:	0e 94 01 02 	call	0x402	; 0x402 <LCD_Clear>
	LCD_String("Checking Eyes");
     d1e:	8c ed       	ldi	r24, 0xDC	; 220
     d20:	90 e0       	ldi	r25, 0x00	; 0
     d22:	0e 94 cf 01 	call	0x39e	; 0x39e <LCD_String>
	//wait for 2seconds on 40ms time interval
	int timeInterval=40;
	int flag=0;
	for(int i=1;i<=timeInterval;i++){
     d26:	81 e0       	ldi	r24, 0x01	; 1
     d28:	90 e0       	ldi	r25, 0x00	; 0
int isDriverSleepingIR(){
	LCD_Clear();
	LCD_String("Checking Eyes");
	//wait for 2seconds on 40ms time interval
	int timeInterval=40;
	int flag=0;
     d2a:	c0 e0       	ldi	r28, 0x00	; 0
     d2c:	d0 e0       	ldi	r29, 0x00	; 0
	for(int i=1;i<=timeInterval;i++){
     d2e:	0f c0       	rjmp	.+30     	; 0xd4e <isDriverSleepingIR+0x38>
		if(pinRead(PINC,irsensor)==0x40){
     d30:	9e 9b       	sbis	0x13, 6	; 19
     d32:	02 c0       	rjmp	.+4      	; 0xd38 <isDriverSleepingIR+0x22>
			flag++;
     d34:	21 96       	adiw	r28, 0x01	; 1
     d36:	01 c0       	rjmp	.+2      	; 0xd3a <isDriverSleepingIR+0x24>
		}else{
			flag--;
     d38:	21 97       	sbiw	r28, 0x01	; 1
     d3a:	2f e7       	ldi	r18, 0x7F	; 127
     d3c:	38 e3       	ldi	r19, 0x38	; 56
     d3e:	41 e0       	ldi	r20, 0x01	; 1
     d40:	21 50       	subi	r18, 0x01	; 1
     d42:	30 40       	sbci	r19, 0x00	; 0
     d44:	40 40       	sbci	r20, 0x00	; 0
     d46:	e1 f7       	brne	.-8      	; 0xd40 <isDriverSleepingIR+0x2a>
     d48:	00 c0       	rjmp	.+0      	; 0xd4a <isDriverSleepingIR+0x34>
     d4a:	00 00       	nop
	LCD_Clear();
	LCD_String("Checking Eyes");
	//wait for 2seconds on 40ms time interval
	int timeInterval=40;
	int flag=0;
	for(int i=1;i<=timeInterval;i++){
     d4c:	01 96       	adiw	r24, 0x01	; 1
     d4e:	89 32       	cpi	r24, 0x29	; 41
     d50:	91 05       	cpc	r25, r1
     d52:	74 f3       	brlt	.-36     	; 0xd30 <isDriverSleepingIR+0x1a>
		}else{
			flag--;
		}
		_delay_ms(50);
	}
	LCD_Command(0xc0);
     d54:	80 ec       	ldi	r24, 0xC0	; 192
     d56:	0e 94 45 01 	call	0x28a	; 0x28a <LCD_Command>
	LCD_String("  -Finished");
     d5a:	8a ee       	ldi	r24, 0xEA	; 234
     d5c:	90 e0       	ldi	r25, 0x00	; 0
     d5e:	0e 94 cf 01 	call	0x39e	; 0x39e <LCD_String>
	if(flag==timeInterval){
     d62:	a8 97       	sbiw	r28, 0x28	; 40
     d64:	19 f4       	brne	.+6      	; 0xd6c <isDriverSleepingIR+0x56>
		return 1;
     d66:	81 e0       	ldi	r24, 0x01	; 1
     d68:	90 e0       	ldi	r25, 0x00	; 0
     d6a:	02 c0       	rjmp	.+4      	; 0xd70 <isDriverSleepingIR+0x5a>
	}else{
		return 0; 
     d6c:	80 e0       	ldi	r24, 0x00	; 0
     d6e:	90 e0       	ldi	r25, 0x00	; 0
	}
}
     d70:	df 91       	pop	r29
     d72:	cf 91       	pop	r28
     d74:	08 95       	ret

00000d76 <sendLocation>:

void sendLocation(char* message){
     d76:	0f 93       	push	r16
     d78:	1f 93       	push	r17
     d7a:	cf 93       	push	r28
     d7c:	df 93       	push	r29
     d7e:	8c 01       	movw	r16, r24
	get_latitude(GGA_Pointers[0]);char* lat=lat_degrees_buffer;
     d80:	c2 e9       	ldi	r28, 0x92	; 146
     d82:	d2 e0       	ldi	r29, 0x02	; 2
     d84:	88 81       	ld	r24, Y
     d86:	90 e0       	ldi	r25, 0x00	; 0
     d88:	0e 94 ba 02 	call	0x574	; 0x574 <get_latitude>
	get_longitude(GGA_Pointers[2]);char* lngtd=long_degrees_buffer;
     d8c:	8a 81       	ldd	r24, Y+2	; 0x02
     d8e:	90 e0       	ldi	r25, 0x00	; 0
     d90:	0e 94 26 03 	call	0x64c	; 0x64c <get_longitude>
	get_altitude(GGA_Pointers[7]);char* altitude=Altitude_Buffer;
     d94:	8f 81       	ldd	r24, Y+7	; 0x07
     d96:	90 e0       	ldi	r25, 0x00	; 0
     d98:	0e 94 5b 02 	call	0x4b6	; 0x4b6 <get_altitude>
	PORTD=0x08;// change signal using mux
     d9c:	88 e0       	ldi	r24, 0x08	; 8
     d9e:	82 bb       	out	0x12, r24	; 18
	sendMessage(message,lat,lngtd,altitude);
     da0:	2a eb       	ldi	r18, 0xBA	; 186
     da2:	32 e0       	ldi	r19, 0x02	; 2
     da4:	4d e4       	ldi	r20, 0x4D	; 77
     da6:	52 e0       	ldi	r21, 0x02	; 2
     da8:	66 ea       	ldi	r22, 0xA6	; 166
     daa:	72 e0       	ldi	r23, 0x02	; 2
     dac:	c8 01       	movw	r24, r16
     dae:	0e 94 36 05 	call	0xa6c	; 0xa6c <sendMessage>
	PORTD=0x00;// turn back to normal
     db2:	12 ba       	out	0x12, r1	; 18
}
     db4:	df 91       	pop	r29
     db6:	cf 91       	pop	r28
     db8:	1f 91       	pop	r17
     dba:	0f 91       	pop	r16
     dbc:	08 95       	ret

00000dbe <main>:
#define F_CPU 8000000UL
#define SREG   _SFR_IO8(0x3f)
#include "headerfiles.h"
int main(void){
	DDRD=0xE8; 
     dbe:	88 ee       	ldi	r24, 0xE8	; 232
     dc0:	81 bb       	out	0x11, r24	; 17
	PORTD=0x04;
     dc2:	84 e0       	ldi	r24, 0x04	; 4
     dc4:	82 bb       	out	0x12, r24	; 18
	LCD_Init();
     dc6:	0e 94 ab 01 	call	0x356	; 0x356 <LCD_Init>
	LCD_String("Initializing..");
     dca:	86 ef       	ldi	r24, 0xF6	; 246
     dcc:	90 e0       	ldi	r25, 0x00	; 0
     dce:	0e 94 cf 01 	call	0x39e	; 0x39e <LCD_String>
     dd2:	2f e7       	ldi	r18, 0x7F	; 127
     dd4:	88 e3       	ldi	r24, 0x38	; 56
     dd6:	91 e0       	ldi	r25, 0x01	; 1
     dd8:	21 50       	subi	r18, 0x01	; 1
     dda:	80 40       	sbci	r24, 0x00	; 0
     ddc:	90 40       	sbci	r25, 0x00	; 0
     dde:	e1 f7       	brne	.-8      	; 0xdd8 <main+0x1a>
     de0:	00 c0       	rjmp	.+0      	; 0xde2 <main+0x24>
     de2:	00 00       	nop
	_delay_ms(50);
	LCD_Clear();
     de4:	0e 94 01 02 	call	0x402	; 0x402 <LCD_Clear>
	I2C_Init();
     de8:	0e 94 e4 00 	call	0x1c8	; 0x1c8 <I2C_Init>
	MPU6050_Init();
     dec:	0e 94 c1 03 	call	0x782	; 0x782 <MPU6050_Init>
	PWM_init();
     df0:	0e 94 30 05 	call	0xa60	; 0xa60 <PWM_init>
	GGA_Index=0;
     df4:	10 92 7b 02 	sts	0x027B, r1	; 0x80027b <GGA_Index+0x1>
     df8:	10 92 7a 02 	sts	0x027A, r1	; 0x80027a <GGA_Index>
	USART_Init(9600);
     dfc:	60 e8       	ldi	r22, 0x80	; 128
     dfe:	75 e2       	ldi	r23, 0x25	; 37
     e00:	80 e0       	ldi	r24, 0x00	; 0
     e02:	90 e0       	ldi	r25, 0x00	; 0
     e04:	0e 94 0e 02 	call	0x41c	; 0x41c <USART_Init>
	sei();
     e08:	78 94       	sei
	LCD_String("Welcome");
     e0a:	85 e0       	ldi	r24, 0x05	; 5
     e0c:	91 e0       	ldi	r25, 0x01	; 1
     e0e:	0e 94 cf 01 	call	0x39e	; 0x39e <LCD_String>
     e12:	2f ef       	ldi	r18, 0xFF	; 255
     e14:	8d e3       	ldi	r24, 0x3D	; 61
     e16:	99 e4       	ldi	r25, 0x49	; 73
     e18:	21 50       	subi	r18, 0x01	; 1
     e1a:	80 40       	sbci	r24, 0x00	; 0
     e1c:	90 40       	sbci	r25, 0x00	; 0
     e1e:	e1 f7       	brne	.-8      	; 0xe18 <main+0x5a>
     e20:	00 c0       	rjmp	.+0      	; 0xe22 <main+0x64>
     e22:	00 00       	nop
	_delay_ms(3000);
	LCD_Clear();
     e24:	0e 94 01 02 	call	0x402	; 0x402 <LCD_Clear>
	float Xa,Ya,Za; // for gyroscope
	while (1){
		//flame detection
		if(pinRead(PINC,flame)==0x10){
     e28:	9c 9b       	sbis	0x13, 4	; 19
     e2a:	1e c0       	rjmp	.+60     	; 0xe68 <main+0xaa>
			LCD_Clear();
     e2c:	0e 94 01 02 	call	0x402	; 0x402 <LCD_Clear>
			LCD_String("Flame Detected !");
     e30:	8d e0       	ldi	r24, 0x0D	; 13
     e32:	91 e0       	ldi	r25, 0x01	; 1
     e34:	0e 94 cf 01 	call	0x39e	; 0x39e <LCD_String>
			ringAlarm();
     e38:	0e 94 77 06 	call	0xcee	; 0xcee <ringAlarm>
			onHazardLight();
     e3c:	0e 94 7f 06 	call	0xcfe	; 0xcfe <onHazardLight>
     e40:	2f ef       	ldi	r18, 0xFF	; 255
     e42:	84 e3       	ldi	r24, 0x34	; 52
     e44:	9c e0       	ldi	r25, 0x0C	; 12
     e46:	21 50       	subi	r18, 0x01	; 1
     e48:	80 40       	sbci	r24, 0x00	; 0
     e4a:	90 40       	sbci	r25, 0x00	; 0
     e4c:	e1 f7       	brne	.-8      	; 0xe46 <main+0x88>
     e4e:	00 c0       	rjmp	.+0      	; 0xe50 <main+0x92>
     e50:	00 00       	nop
			_delay_ms(500);
			stopAlarm();
     e52:	0e 94 7b 06 	call	0xcf6	; 0xcf6 <stopAlarm>
			offHazardLight();
     e56:	0e 94 83 06 	call	0xd06	; 0xd06 <offHazardLight>
			LCD_Clear();
     e5a:	0e 94 01 02 	call	0x402	; 0x402 <LCD_Clear>
			sendLocation("Flame is Detected");
     e5e:	8e e1       	ldi	r24, 0x1E	; 30
     e60:	91 e0       	ldi	r25, 0x01	; 1
     e62:	0e 94 bb 06 	call	0xd76	; 0xd76 <sendLocation>
     e66:	e0 cf       	rjmp	.-64     	; 0xe28 <main+0x6a>
		}
		else{
			ADC_Init();
     e68:	0e 94 40 02 	call	0x480	; 0x480 <ADC_Init>
			int value = ADC_Read(1);
     e6c:	81 e0       	ldi	r24, 0x01	; 1
     e6e:	0e 94 46 02 	call	0x48c	; 0x48c <ADC_Read>
			if (value > 109){// if value gt 109 vehicle is moving
     e72:	8e 36       	cpi	r24, 0x6E	; 110
     e74:	91 05       	cpc	r25, r1
     e76:	0c f4       	brge	.+2      	; 0xe7a <main+0xbc>
     e78:	d3 c0       	rjmp	.+422    	; 0x1020 <main+0x262>
				int val=ADC_Read(0);
     e7a:	80 e0       	ldi	r24, 0x00	; 0
     e7c:	0e 94 46 02 	call	0x48c	; 0x48c <ADC_Read>
				float speed=(val/1024.0)*255.0;
     e80:	bc 01       	movw	r22, r24
     e82:	99 0f       	add	r25, r25
     e84:	88 0b       	sbc	r24, r24
     e86:	99 0b       	sbc	r25, r25
     e88:	0e 94 5b 09 	call	0x12b6	; 0x12b6 <__floatsisf>
     e8c:	20 e0       	ldi	r18, 0x00	; 0
     e8e:	30 e0       	ldi	r19, 0x00	; 0
     e90:	40 e8       	ldi	r20, 0x80	; 128
     e92:	5a e3       	ldi	r21, 0x3A	; 58
     e94:	0e 94 10 0a 	call	0x1420	; 0x1420 <__mulsf3>
     e98:	20 e0       	ldi	r18, 0x00	; 0
     e9a:	30 e0       	ldi	r19, 0x00	; 0
     e9c:	4f e7       	ldi	r20, 0x7F	; 127
     e9e:	53 e4       	ldi	r21, 0x43	; 67
     ea0:	0e 94 10 0a 	call	0x1420	; 0x1420 <__mulsf3>
				OCR0=(int)speed;
     ea4:	0e 94 23 09 	call	0x1246	; 0x1246 <__fixsfsi>
     ea8:	6c bf       	out	0x3c, r22	; 60
				LCD_Clear();
     eaa:	0e 94 01 02 	call	0x402	; 0x402 <LCD_Clear>
				LCD_String("Driving mode");
     eae:	80 e3       	ldi	r24, 0x30	; 48
     eb0:	91 e0       	ldi	r25, 0x01	; 1
     eb2:	0e 94 cf 01 	call	0x39e	; 0x39e <LCD_String>
				if(pinRead(PINC,alcohol)==0x20){
     eb6:	9d 9b       	sbis	0x13, 5	; 19
     eb8:	1a c0       	rjmp	.+52     	; 0xeee <main+0x130>
					LCD_Clear();
     eba:	0e 94 01 02 	call	0x402	; 0x402 <LCD_Clear>
					LCD_String("Alcohol Detected");
     ebe:	8d e3       	ldi	r24, 0x3D	; 61
     ec0:	91 e0       	ldi	r25, 0x01	; 1
     ec2:	0e 94 cf 01 	call	0x39e	; 0x39e <LCD_String>
					ringAlarm();
     ec6:	0e 94 77 06 	call	0xcee	; 0xcee <ringAlarm>
     eca:	2f ef       	ldi	r18, 0xFF	; 255
     ecc:	80 e7       	ldi	r24, 0x70	; 112
     ece:	92 e0       	ldi	r25, 0x02	; 2
     ed0:	21 50       	subi	r18, 0x01	; 1
     ed2:	80 40       	sbci	r24, 0x00	; 0
     ed4:	90 40       	sbci	r25, 0x00	; 0
     ed6:	e1 f7       	brne	.-8      	; 0xed0 <main+0x112>
     ed8:	00 c0       	rjmp	.+0      	; 0xeda <main+0x11c>
     eda:	00 00       	nop
					_delay_ms(100);
					stopAlarm();
     edc:	0e 94 7b 06 	call	0xcf6	; 0xcf6 <stopAlarm>
					LCD_Clear();
     ee0:	0e 94 01 02 	call	0x402	; 0x402 <LCD_Clear>
					sendLocation("Alcohol Detected");
     ee4:	8d e3       	ldi	r24, 0x3D	; 61
     ee6:	91 e0       	ldi	r25, 0x01	; 1
     ee8:	0e 94 bb 06 	call	0xd76	; 0xd76 <sendLocation>
     eec:	9d cf       	rjmp	.-198    	; 0xe28 <main+0x6a>
				}
				else{
					Read_RawValue();
     eee:	0e 94 0c 04 	call	0x818	; 0x818 <Read_RawValue>
					Xa = (Acc_x/16384.0)*9.8066;
     ef2:	20 e0       	ldi	r18, 0x00	; 0
     ef4:	30 e0       	ldi	r19, 0x00	; 0
     ef6:	40 e8       	ldi	r20, 0x80	; 128
     ef8:	58 e3       	ldi	r21, 0x38	; 56
     efa:	60 91 74 02 	lds	r22, 0x0274	; 0x800274 <Acc_x>
     efe:	70 91 75 02 	lds	r23, 0x0275	; 0x800275 <Acc_x+0x1>
     f02:	80 91 76 02 	lds	r24, 0x0276	; 0x800276 <Acc_x+0x2>
     f06:	90 91 77 02 	lds	r25, 0x0277	; 0x800277 <Acc_x+0x3>
     f0a:	0e 94 10 0a 	call	0x1420	; 0x1420 <__mulsf3>
     f0e:	25 ed       	ldi	r18, 0xD5	; 213
     f10:	37 ee       	ldi	r19, 0xE7	; 231
     f12:	4c e1       	ldi	r20, 0x1C	; 28
     f14:	51 e4       	ldi	r21, 0x41	; 65
     f16:	0e 94 10 0a 	call	0x1420	; 0x1420 <__mulsf3>
     f1a:	4b 01       	movw	r8, r22
     f1c:	5c 01       	movw	r10, r24
					Ya = (Acc_y/16384.0)*9.8066;
     f1e:	20 e0       	ldi	r18, 0x00	; 0
     f20:	30 e0       	ldi	r19, 0x00	; 0
     f22:	40 e8       	ldi	r20, 0x80	; 128
     f24:	58 e3       	ldi	r21, 0x38	; 56
     f26:	60 91 49 02 	lds	r22, 0x0249	; 0x800249 <Acc_y>
     f2a:	70 91 4a 02 	lds	r23, 0x024A	; 0x80024a <Acc_y+0x1>
     f2e:	80 91 4b 02 	lds	r24, 0x024B	; 0x80024b <Acc_y+0x2>
     f32:	90 91 4c 02 	lds	r25, 0x024C	; 0x80024c <Acc_y+0x3>
     f36:	0e 94 10 0a 	call	0x1420	; 0x1420 <__mulsf3>
     f3a:	25 ed       	ldi	r18, 0xD5	; 213
     f3c:	37 ee       	ldi	r19, 0xE7	; 231
     f3e:	4c e1       	ldi	r20, 0x1C	; 28
     f40:	51 e4       	ldi	r21, 0x41	; 65
     f42:	0e 94 10 0a 	call	0x1420	; 0x1420 <__mulsf3>
     f46:	2b 01       	movw	r4, r22
     f48:	3c 01       	movw	r6, r24
					Za = (Acc_z/16384.0)*9.8066;
     f4a:	20 e0       	ldi	r18, 0x00	; 0
     f4c:	30 e0       	ldi	r19, 0x00	; 0
     f4e:	40 e8       	ldi	r20, 0x80	; 128
     f50:	58 e3       	ldi	r21, 0x38	; 56
     f52:	60 91 a7 01 	lds	r22, 0x01A7	; 0x8001a7 <Acc_z>
     f56:	70 91 a8 01 	lds	r23, 0x01A8	; 0x8001a8 <Acc_z+0x1>
     f5a:	80 91 a9 01 	lds	r24, 0x01A9	; 0x8001a9 <Acc_z+0x2>
     f5e:	90 91 aa 01 	lds	r25, 0x01AA	; 0x8001aa <Acc_z+0x3>
     f62:	0e 94 10 0a 	call	0x1420	; 0x1420 <__mulsf3>
     f66:	25 ed       	ldi	r18, 0xD5	; 213
     f68:	37 ee       	ldi	r19, 0xE7	; 231
     f6a:	4c e1       	ldi	r20, 0x1C	; 28
     f6c:	51 e4       	ldi	r21, 0x41	; 65
     f6e:	0e 94 10 0a 	call	0x1420	; 0x1420 <__mulsf3>
     f72:	6b 01       	movw	r12, r22
     f74:	7c 01       	movw	r14, r24
					if(isDriverSleepingIR() && isDriverSleepingGyro(Xa,Ya,Za)){
     f76:	0e 94 8b 06 	call	0xd16	; 0xd16 <isDriverSleepingIR>
     f7a:	89 2b       	or	r24, r25
     f7c:	09 f4       	brne	.+2      	; 0xf80 <main+0x1c2>
     f7e:	54 cf       	rjmp	.-344    	; 0xe28 <main+0x6a>
     f80:	87 01       	movw	r16, r14
     f82:	76 01       	movw	r14, r12
     f84:	a3 01       	movw	r20, r6
     f86:	92 01       	movw	r18, r4
     f88:	c5 01       	movw	r24, r10
     f8a:	b4 01       	movw	r22, r8
     f8c:	0e 94 bd 04 	call	0x97a	; 0x97a <isDriverSleepingGyro>
     f90:	89 2b       	or	r24, r25
     f92:	09 f4       	brne	.+2      	; 0xf96 <main+0x1d8>
     f94:	49 cf       	rjmp	.-366    	; 0xe28 <main+0x6a>
						LCD_Clear();
     f96:	0e 94 01 02 	call	0x402	; 0x402 <LCD_Clear>
						LCD_String("Sleeping");
     f9a:	87 e8       	ldi	r24, 0x87	; 135
     f9c:	91 e0       	ldi	r25, 0x01	; 1
     f9e:	0e 94 cf 01 	call	0x39e	; 0x39e <LCD_String>
						ringAlarm();
     fa2:	0e 94 77 06 	call	0xcee	; 0xcee <ringAlarm>
						onHazardLight();
     fa6:	0e 94 7f 06 	call	0xcfe	; 0xcfe <onHazardLight>
						LCD_Command(0xc0);
     faa:	80 ec       	ldi	r24, 0xC0	; 192
     fac:	0e 94 45 01 	call	0x28a	; 0x28a <LCD_Command>
						LCD_String("Waiting..");
     fb0:	8e e4       	ldi	r24, 0x4E	; 78
     fb2:	91 e0       	ldi	r25, 0x01	; 1
     fb4:	0e 94 cf 01 	call	0x39e	; 0x39e <LCD_String>
						GICR = 1<<INT0;		/* Enable INT0*/
     fb8:	80 e4       	ldi	r24, 0x40	; 64
     fba:	8b bf       	out	0x3b, r24	; 59
						MCUCR = 1<<ISC01 | 1<<ISC00;  /* Trigger INT0 on rising edge */
     fbc:	83 e0       	ldi	r24, 0x03	; 3
     fbe:	85 bf       	out	0x35, r24	; 53
						sei();			/* Enable Global Interrupt */
     fc0:	78 94       	sei
     fc2:	2f ef       	ldi	r18, 0xFF	; 255
     fc4:	81 e1       	ldi	r24, 0x11	; 17
     fc6:	9a e7       	ldi	r25, 0x7A	; 122
     fc8:	21 50       	subi	r18, 0x01	; 1
     fca:	80 40       	sbci	r24, 0x00	; 0
     fcc:	90 40       	sbci	r25, 0x00	; 0
     fce:	e1 f7       	brne	.-8      	; 0xfc8 <main+0x20a>
     fd0:	00 c0       	rjmp	.+0      	; 0xfd2 <main+0x214>
     fd2:	00 00       	nop
						_delay_ms(5000);
						LCD_Clear();
     fd4:	0e 94 01 02 	call	0x402	; 0x402 <LCD_Clear>
						LCD_String("Waiting");
     fd8:	88 e5       	ldi	r24, 0x58	; 88
     fda:	91 e0       	ldi	r25, 0x01	; 1
     fdc:	0e 94 cf 01 	call	0x39e	; 0x39e <LCD_String>
						LCD_Command(0xc0);
     fe0:	80 ec       	ldi	r24, 0xC0	; 192
     fe2:	0e 94 45 01 	call	0x28a	; 0x28a <LCD_Command>
						LCD_String("Complete");
     fe6:	80 e6       	ldi	r24, 0x60	; 96
     fe8:	91 e0       	ldi	r25, 0x01	; 1
     fea:	0e 94 cf 01 	call	0x39e	; 0x39e <LCD_String>
						offHazardLight();
     fee:	0e 94 83 06 	call	0xd06	; 0xd06 <offHazardLight>
						stopAlarm();
     ff2:	0e 94 7b 06 	call	0xcf6	; 0xcf6 <stopAlarm>
						OCR0=0;
     ff6:	1c be       	out	0x3c, r1	; 60
						LCD_Clear();
     ff8:	0e 94 01 02 	call	0x402	; 0x402 <LCD_Clear>
						LCD_String("Speed is");
     ffc:	89 e6       	ldi	r24, 0x69	; 105
     ffe:	91 e0       	ldi	r25, 0x01	; 1
    1000:	0e 94 cf 01 	call	0x39e	; 0x39e <LCD_String>
						LCD_Command(0xc0);
    1004:	80 ec       	ldi	r24, 0xC0	; 192
    1006:	0e 94 45 01 	call	0x28a	; 0x28a <LCD_Command>
						LCD_String("Reducing..");
    100a:	82 e7       	ldi	r24, 0x72	; 114
    100c:	91 e0       	ldi	r25, 0x01	; 1
    100e:	0e 94 cf 01 	call	0x39e	; 0x39e <LCD_String>
						sendLocation("Driver is Sleeping");
    1012:	8d e7       	ldi	r24, 0x7D	; 125
    1014:	91 e0       	ldi	r25, 0x01	; 1
    1016:	0e 94 bb 06 	call	0xd76	; 0xd76 <sendLocation>
						playRadio();
    101a:	0e 94 87 06 	call	0xd0e	; 0xd0e <playRadio>
    101e:	ff cf       	rjmp	.-2      	; 0x101e <main+0x260>
						while(1){}//let motor to slowdown fully
					}
				}
			}else{
				LCD_String("Vehicle is");
    1020:	80 e9       	ldi	r24, 0x90	; 144
    1022:	91 e0       	ldi	r25, 0x01	; 1
    1024:	0e 94 cf 01 	call	0x39e	; 0x39e <LCD_String>
				LCD_Command(0xc0);
    1028:	80 ec       	ldi	r24, 0xC0	; 192
    102a:	0e 94 45 01 	call	0x28a	; 0x28a <LCD_Command>
				LCD_String("not moving");
    102e:	8b e9       	ldi	r24, 0x9B	; 155
    1030:	91 e0       	ldi	r25, 0x01	; 1
    1032:	0e 94 cf 01 	call	0x39e	; 0x39e <LCD_String>
    1036:	2f e7       	ldi	r18, 0x7F	; 127
    1038:	88 e3       	ldi	r24, 0x38	; 56
    103a:	91 e0       	ldi	r25, 0x01	; 1
    103c:	21 50       	subi	r18, 0x01	; 1
    103e:	80 40       	sbci	r24, 0x00	; 0
    1040:	90 40       	sbci	r25, 0x00	; 0
    1042:	e1 f7       	brne	.-8      	; 0x103c <main+0x27e>
    1044:	00 c0       	rjmp	.+0      	; 0x1046 <main+0x288>
    1046:	00 00       	nop
				_delay_ms(50);
				LCD_Clear();
    1048:	0e 94 01 02 	call	0x402	; 0x402 <LCD_Clear>
    104c:	ed ce       	rjmp	.-550    	; 0xe28 <main+0x6a>

0000104e <__vector_1>:
	sendMessage(message,lat,lngtd,altitude);
	PORTD=0x00;// turn back to normal
}

ISR(INT0_vect)
{
    104e:	1f 92       	push	r1
    1050:	0f 92       	push	r0
    1052:	0f b6       	in	r0, 0x3f	; 63
    1054:	0f 92       	push	r0
    1056:	11 24       	eor	r1, r1
	LCD_Clear();
    1058:	0e 94 01 02 	call	0x402	; 0x402 <LCD_Clear>
	portLow(PORTD,6);
    105c:	82 b3       	in	r24, 0x12	; 18
    105e:	8f 7b       	andi	r24, 0xBF	; 191
    1060:	82 bb       	out	0x12, r24	; 18
	portLow(PORTD,7);
    1062:	82 b3       	in	r24, 0x12	; 18
    1064:	8f 77       	andi	r24, 0x7F	; 127
    1066:	82 bb       	out	0x12, r24	; 18
    1068:	2f e7       	ldi	r18, 0x7F	; 127
    106a:	88 e3       	ldi	r24, 0x38	; 56
    106c:	91 e0       	ldi	r25, 0x01	; 1
    106e:	21 50       	subi	r18, 0x01	; 1
    1070:	80 40       	sbci	r24, 0x00	; 0
    1072:	90 40       	sbci	r25, 0x00	; 0
    1074:	e1 f7       	brne	.-8      	; 0x106e <__vector_1+0x20>
    1076:	00 c0       	rjmp	.+0      	; 0x1078 <__vector_1+0x2a>
    1078:	00 00       	nop
	_delay_ms(50);
	main();
    107a:	0e 94 df 06 	call	0xdbe	; 0xdbe <main>

0000107e <__subsf3>:
    107e:	50 58       	subi	r21, 0x80	; 128

00001080 <__addsf3>:
    1080:	bb 27       	eor	r27, r27
    1082:	aa 27       	eor	r26, r26
    1084:	0e 94 57 08 	call	0x10ae	; 0x10ae <__addsf3x>
    1088:	0c 94 d1 09 	jmp	0x13a2	; 0x13a2 <__fp_round>
    108c:	0e 94 c3 09 	call	0x1386	; 0x1386 <__fp_pscA>
    1090:	38 f0       	brcs	.+14     	; 0x10a0 <__addsf3+0x20>
    1092:	0e 94 ca 09 	call	0x1394	; 0x1394 <__fp_pscB>
    1096:	20 f0       	brcs	.+8      	; 0x10a0 <__addsf3+0x20>
    1098:	39 f4       	brne	.+14     	; 0x10a8 <__addsf3+0x28>
    109a:	9f 3f       	cpi	r25, 0xFF	; 255
    109c:	19 f4       	brne	.+6      	; 0x10a4 <__addsf3+0x24>
    109e:	26 f4       	brtc	.+8      	; 0x10a8 <__addsf3+0x28>
    10a0:	0c 94 c0 09 	jmp	0x1380	; 0x1380 <__fp_nan>
    10a4:	0e f4       	brtc	.+2      	; 0x10a8 <__addsf3+0x28>
    10a6:	e0 95       	com	r30
    10a8:	e7 fb       	bst	r30, 7
    10aa:	0c 94 ba 09 	jmp	0x1374	; 0x1374 <__fp_inf>

000010ae <__addsf3x>:
    10ae:	e9 2f       	mov	r30, r25
    10b0:	0e 94 e2 09 	call	0x13c4	; 0x13c4 <__fp_split3>
    10b4:	58 f3       	brcs	.-42     	; 0x108c <__addsf3+0xc>
    10b6:	ba 17       	cp	r27, r26
    10b8:	62 07       	cpc	r22, r18
    10ba:	73 07       	cpc	r23, r19
    10bc:	84 07       	cpc	r24, r20
    10be:	95 07       	cpc	r25, r21
    10c0:	20 f0       	brcs	.+8      	; 0x10ca <__addsf3x+0x1c>
    10c2:	79 f4       	brne	.+30     	; 0x10e2 <__addsf3x+0x34>
    10c4:	a6 f5       	brtc	.+104    	; 0x112e <__addsf3x+0x80>
    10c6:	0c 94 04 0a 	jmp	0x1408	; 0x1408 <__fp_zero>
    10ca:	0e f4       	brtc	.+2      	; 0x10ce <__addsf3x+0x20>
    10cc:	e0 95       	com	r30
    10ce:	0b 2e       	mov	r0, r27
    10d0:	ba 2f       	mov	r27, r26
    10d2:	a0 2d       	mov	r26, r0
    10d4:	0b 01       	movw	r0, r22
    10d6:	b9 01       	movw	r22, r18
    10d8:	90 01       	movw	r18, r0
    10da:	0c 01       	movw	r0, r24
    10dc:	ca 01       	movw	r24, r20
    10de:	a0 01       	movw	r20, r0
    10e0:	11 24       	eor	r1, r1
    10e2:	ff 27       	eor	r31, r31
    10e4:	59 1b       	sub	r21, r25
    10e6:	99 f0       	breq	.+38     	; 0x110e <__addsf3x+0x60>
    10e8:	59 3f       	cpi	r21, 0xF9	; 249
    10ea:	50 f4       	brcc	.+20     	; 0x1100 <__addsf3x+0x52>
    10ec:	50 3e       	cpi	r21, 0xE0	; 224
    10ee:	68 f1       	brcs	.+90     	; 0x114a <__addsf3x+0x9c>
    10f0:	1a 16       	cp	r1, r26
    10f2:	f0 40       	sbci	r31, 0x00	; 0
    10f4:	a2 2f       	mov	r26, r18
    10f6:	23 2f       	mov	r18, r19
    10f8:	34 2f       	mov	r19, r20
    10fa:	44 27       	eor	r20, r20
    10fc:	58 5f       	subi	r21, 0xF8	; 248
    10fe:	f3 cf       	rjmp	.-26     	; 0x10e6 <__addsf3x+0x38>
    1100:	46 95       	lsr	r20
    1102:	37 95       	ror	r19
    1104:	27 95       	ror	r18
    1106:	a7 95       	ror	r26
    1108:	f0 40       	sbci	r31, 0x00	; 0
    110a:	53 95       	inc	r21
    110c:	c9 f7       	brne	.-14     	; 0x1100 <__addsf3x+0x52>
    110e:	7e f4       	brtc	.+30     	; 0x112e <__addsf3x+0x80>
    1110:	1f 16       	cp	r1, r31
    1112:	ba 0b       	sbc	r27, r26
    1114:	62 0b       	sbc	r22, r18
    1116:	73 0b       	sbc	r23, r19
    1118:	84 0b       	sbc	r24, r20
    111a:	ba f0       	brmi	.+46     	; 0x114a <__addsf3x+0x9c>
    111c:	91 50       	subi	r25, 0x01	; 1
    111e:	a1 f0       	breq	.+40     	; 0x1148 <__addsf3x+0x9a>
    1120:	ff 0f       	add	r31, r31
    1122:	bb 1f       	adc	r27, r27
    1124:	66 1f       	adc	r22, r22
    1126:	77 1f       	adc	r23, r23
    1128:	88 1f       	adc	r24, r24
    112a:	c2 f7       	brpl	.-16     	; 0x111c <__addsf3x+0x6e>
    112c:	0e c0       	rjmp	.+28     	; 0x114a <__addsf3x+0x9c>
    112e:	ba 0f       	add	r27, r26
    1130:	62 1f       	adc	r22, r18
    1132:	73 1f       	adc	r23, r19
    1134:	84 1f       	adc	r24, r20
    1136:	48 f4       	brcc	.+18     	; 0x114a <__addsf3x+0x9c>
    1138:	87 95       	ror	r24
    113a:	77 95       	ror	r23
    113c:	67 95       	ror	r22
    113e:	b7 95       	ror	r27
    1140:	f7 95       	ror	r31
    1142:	9e 3f       	cpi	r25, 0xFE	; 254
    1144:	08 f0       	brcs	.+2      	; 0x1148 <__addsf3x+0x9a>
    1146:	b0 cf       	rjmp	.-160    	; 0x10a8 <__addsf3+0x28>
    1148:	93 95       	inc	r25
    114a:	88 0f       	add	r24, r24
    114c:	08 f0       	brcs	.+2      	; 0x1150 <__addsf3x+0xa2>
    114e:	99 27       	eor	r25, r25
    1150:	ee 0f       	add	r30, r30
    1152:	97 95       	ror	r25
    1154:	87 95       	ror	r24
    1156:	08 95       	ret

00001158 <__cmpsf2>:
    1158:	0e 94 96 09 	call	0x132c	; 0x132c <__fp_cmp>
    115c:	08 f4       	brcc	.+2      	; 0x1160 <__cmpsf2+0x8>
    115e:	81 e0       	ldi	r24, 0x01	; 1
    1160:	08 95       	ret

00001162 <__divsf3>:
    1162:	0e 94 c5 08 	call	0x118a	; 0x118a <__divsf3x>
    1166:	0c 94 d1 09 	jmp	0x13a2	; 0x13a2 <__fp_round>
    116a:	0e 94 ca 09 	call	0x1394	; 0x1394 <__fp_pscB>
    116e:	58 f0       	brcs	.+22     	; 0x1186 <__divsf3+0x24>
    1170:	0e 94 c3 09 	call	0x1386	; 0x1386 <__fp_pscA>
    1174:	40 f0       	brcs	.+16     	; 0x1186 <__divsf3+0x24>
    1176:	29 f4       	brne	.+10     	; 0x1182 <__divsf3+0x20>
    1178:	5f 3f       	cpi	r21, 0xFF	; 255
    117a:	29 f0       	breq	.+10     	; 0x1186 <__divsf3+0x24>
    117c:	0c 94 ba 09 	jmp	0x1374	; 0x1374 <__fp_inf>
    1180:	51 11       	cpse	r21, r1
    1182:	0c 94 05 0a 	jmp	0x140a	; 0x140a <__fp_szero>
    1186:	0c 94 c0 09 	jmp	0x1380	; 0x1380 <__fp_nan>

0000118a <__divsf3x>:
    118a:	0e 94 e2 09 	call	0x13c4	; 0x13c4 <__fp_split3>
    118e:	68 f3       	brcs	.-38     	; 0x116a <__divsf3+0x8>

00001190 <__divsf3_pse>:
    1190:	99 23       	and	r25, r25
    1192:	b1 f3       	breq	.-20     	; 0x1180 <__divsf3+0x1e>
    1194:	55 23       	and	r21, r21
    1196:	91 f3       	breq	.-28     	; 0x117c <__divsf3+0x1a>
    1198:	95 1b       	sub	r25, r21
    119a:	55 0b       	sbc	r21, r21
    119c:	bb 27       	eor	r27, r27
    119e:	aa 27       	eor	r26, r26
    11a0:	62 17       	cp	r22, r18
    11a2:	73 07       	cpc	r23, r19
    11a4:	84 07       	cpc	r24, r20
    11a6:	38 f0       	brcs	.+14     	; 0x11b6 <__divsf3_pse+0x26>
    11a8:	9f 5f       	subi	r25, 0xFF	; 255
    11aa:	5f 4f       	sbci	r21, 0xFF	; 255
    11ac:	22 0f       	add	r18, r18
    11ae:	33 1f       	adc	r19, r19
    11b0:	44 1f       	adc	r20, r20
    11b2:	aa 1f       	adc	r26, r26
    11b4:	a9 f3       	breq	.-22     	; 0x11a0 <__divsf3_pse+0x10>
    11b6:	35 d0       	rcall	.+106    	; 0x1222 <__divsf3_pse+0x92>
    11b8:	0e 2e       	mov	r0, r30
    11ba:	3a f0       	brmi	.+14     	; 0x11ca <__divsf3_pse+0x3a>
    11bc:	e0 e8       	ldi	r30, 0x80	; 128
    11be:	32 d0       	rcall	.+100    	; 0x1224 <__divsf3_pse+0x94>
    11c0:	91 50       	subi	r25, 0x01	; 1
    11c2:	50 40       	sbci	r21, 0x00	; 0
    11c4:	e6 95       	lsr	r30
    11c6:	00 1c       	adc	r0, r0
    11c8:	ca f7       	brpl	.-14     	; 0x11bc <__divsf3_pse+0x2c>
    11ca:	2b d0       	rcall	.+86     	; 0x1222 <__divsf3_pse+0x92>
    11cc:	fe 2f       	mov	r31, r30
    11ce:	29 d0       	rcall	.+82     	; 0x1222 <__divsf3_pse+0x92>
    11d0:	66 0f       	add	r22, r22
    11d2:	77 1f       	adc	r23, r23
    11d4:	88 1f       	adc	r24, r24
    11d6:	bb 1f       	adc	r27, r27
    11d8:	26 17       	cp	r18, r22
    11da:	37 07       	cpc	r19, r23
    11dc:	48 07       	cpc	r20, r24
    11de:	ab 07       	cpc	r26, r27
    11e0:	b0 e8       	ldi	r27, 0x80	; 128
    11e2:	09 f0       	breq	.+2      	; 0x11e6 <__divsf3_pse+0x56>
    11e4:	bb 0b       	sbc	r27, r27
    11e6:	80 2d       	mov	r24, r0
    11e8:	bf 01       	movw	r22, r30
    11ea:	ff 27       	eor	r31, r31
    11ec:	93 58       	subi	r25, 0x83	; 131
    11ee:	5f 4f       	sbci	r21, 0xFF	; 255
    11f0:	3a f0       	brmi	.+14     	; 0x1200 <__divsf3_pse+0x70>
    11f2:	9e 3f       	cpi	r25, 0xFE	; 254
    11f4:	51 05       	cpc	r21, r1
    11f6:	78 f0       	brcs	.+30     	; 0x1216 <__divsf3_pse+0x86>
    11f8:	0c 94 ba 09 	jmp	0x1374	; 0x1374 <__fp_inf>
    11fc:	0c 94 05 0a 	jmp	0x140a	; 0x140a <__fp_szero>
    1200:	5f 3f       	cpi	r21, 0xFF	; 255
    1202:	e4 f3       	brlt	.-8      	; 0x11fc <__divsf3_pse+0x6c>
    1204:	98 3e       	cpi	r25, 0xE8	; 232
    1206:	d4 f3       	brlt	.-12     	; 0x11fc <__divsf3_pse+0x6c>
    1208:	86 95       	lsr	r24
    120a:	77 95       	ror	r23
    120c:	67 95       	ror	r22
    120e:	b7 95       	ror	r27
    1210:	f7 95       	ror	r31
    1212:	9f 5f       	subi	r25, 0xFF	; 255
    1214:	c9 f7       	brne	.-14     	; 0x1208 <__divsf3_pse+0x78>
    1216:	88 0f       	add	r24, r24
    1218:	91 1d       	adc	r25, r1
    121a:	96 95       	lsr	r25
    121c:	87 95       	ror	r24
    121e:	97 f9       	bld	r25, 7
    1220:	08 95       	ret
    1222:	e1 e0       	ldi	r30, 0x01	; 1
    1224:	66 0f       	add	r22, r22
    1226:	77 1f       	adc	r23, r23
    1228:	88 1f       	adc	r24, r24
    122a:	bb 1f       	adc	r27, r27
    122c:	62 17       	cp	r22, r18
    122e:	73 07       	cpc	r23, r19
    1230:	84 07       	cpc	r24, r20
    1232:	ba 07       	cpc	r27, r26
    1234:	20 f0       	brcs	.+8      	; 0x123e <__divsf3_pse+0xae>
    1236:	62 1b       	sub	r22, r18
    1238:	73 0b       	sbc	r23, r19
    123a:	84 0b       	sbc	r24, r20
    123c:	ba 0b       	sbc	r27, r26
    123e:	ee 1f       	adc	r30, r30
    1240:	88 f7       	brcc	.-30     	; 0x1224 <__divsf3_pse+0x94>
    1242:	e0 95       	com	r30
    1244:	08 95       	ret

00001246 <__fixsfsi>:
    1246:	0e 94 2a 09 	call	0x1254	; 0x1254 <__fixunssfsi>
    124a:	68 94       	set
    124c:	b1 11       	cpse	r27, r1
    124e:	0c 94 05 0a 	jmp	0x140a	; 0x140a <__fp_szero>
    1252:	08 95       	ret

00001254 <__fixunssfsi>:
    1254:	0e 94 ea 09 	call	0x13d4	; 0x13d4 <__fp_splitA>
    1258:	88 f0       	brcs	.+34     	; 0x127c <__fixunssfsi+0x28>
    125a:	9f 57       	subi	r25, 0x7F	; 127
    125c:	98 f0       	brcs	.+38     	; 0x1284 <__fixunssfsi+0x30>
    125e:	b9 2f       	mov	r27, r25
    1260:	99 27       	eor	r25, r25
    1262:	b7 51       	subi	r27, 0x17	; 23
    1264:	b0 f0       	brcs	.+44     	; 0x1292 <__fixunssfsi+0x3e>
    1266:	e1 f0       	breq	.+56     	; 0x12a0 <__fixunssfsi+0x4c>
    1268:	66 0f       	add	r22, r22
    126a:	77 1f       	adc	r23, r23
    126c:	88 1f       	adc	r24, r24
    126e:	99 1f       	adc	r25, r25
    1270:	1a f0       	brmi	.+6      	; 0x1278 <__fixunssfsi+0x24>
    1272:	ba 95       	dec	r27
    1274:	c9 f7       	brne	.-14     	; 0x1268 <__fixunssfsi+0x14>
    1276:	14 c0       	rjmp	.+40     	; 0x12a0 <__fixunssfsi+0x4c>
    1278:	b1 30       	cpi	r27, 0x01	; 1
    127a:	91 f0       	breq	.+36     	; 0x12a0 <__fixunssfsi+0x4c>
    127c:	0e 94 04 0a 	call	0x1408	; 0x1408 <__fp_zero>
    1280:	b1 e0       	ldi	r27, 0x01	; 1
    1282:	08 95       	ret
    1284:	0c 94 04 0a 	jmp	0x1408	; 0x1408 <__fp_zero>
    1288:	67 2f       	mov	r22, r23
    128a:	78 2f       	mov	r23, r24
    128c:	88 27       	eor	r24, r24
    128e:	b8 5f       	subi	r27, 0xF8	; 248
    1290:	39 f0       	breq	.+14     	; 0x12a0 <__fixunssfsi+0x4c>
    1292:	b9 3f       	cpi	r27, 0xF9	; 249
    1294:	cc f3       	brlt	.-14     	; 0x1288 <__fixunssfsi+0x34>
    1296:	86 95       	lsr	r24
    1298:	77 95       	ror	r23
    129a:	67 95       	ror	r22
    129c:	b3 95       	inc	r27
    129e:	d9 f7       	brne	.-10     	; 0x1296 <__fixunssfsi+0x42>
    12a0:	3e f4       	brtc	.+14     	; 0x12b0 <__fixunssfsi+0x5c>
    12a2:	90 95       	com	r25
    12a4:	80 95       	com	r24
    12a6:	70 95       	com	r23
    12a8:	61 95       	neg	r22
    12aa:	7f 4f       	sbci	r23, 0xFF	; 255
    12ac:	8f 4f       	sbci	r24, 0xFF	; 255
    12ae:	9f 4f       	sbci	r25, 0xFF	; 255
    12b0:	08 95       	ret

000012b2 <__floatunsisf>:
    12b2:	e8 94       	clt
    12b4:	09 c0       	rjmp	.+18     	; 0x12c8 <__floatsisf+0x12>

000012b6 <__floatsisf>:
    12b6:	97 fb       	bst	r25, 7
    12b8:	3e f4       	brtc	.+14     	; 0x12c8 <__floatsisf+0x12>
    12ba:	90 95       	com	r25
    12bc:	80 95       	com	r24
    12be:	70 95       	com	r23
    12c0:	61 95       	neg	r22
    12c2:	7f 4f       	sbci	r23, 0xFF	; 255
    12c4:	8f 4f       	sbci	r24, 0xFF	; 255
    12c6:	9f 4f       	sbci	r25, 0xFF	; 255
    12c8:	99 23       	and	r25, r25
    12ca:	a9 f0       	breq	.+42     	; 0x12f6 <__floatsisf+0x40>
    12cc:	f9 2f       	mov	r31, r25
    12ce:	96 e9       	ldi	r25, 0x96	; 150
    12d0:	bb 27       	eor	r27, r27
    12d2:	93 95       	inc	r25
    12d4:	f6 95       	lsr	r31
    12d6:	87 95       	ror	r24
    12d8:	77 95       	ror	r23
    12da:	67 95       	ror	r22
    12dc:	b7 95       	ror	r27
    12de:	f1 11       	cpse	r31, r1
    12e0:	f8 cf       	rjmp	.-16     	; 0x12d2 <__floatsisf+0x1c>
    12e2:	fa f4       	brpl	.+62     	; 0x1322 <__floatsisf+0x6c>
    12e4:	bb 0f       	add	r27, r27
    12e6:	11 f4       	brne	.+4      	; 0x12ec <__floatsisf+0x36>
    12e8:	60 ff       	sbrs	r22, 0
    12ea:	1b c0       	rjmp	.+54     	; 0x1322 <__floatsisf+0x6c>
    12ec:	6f 5f       	subi	r22, 0xFF	; 255
    12ee:	7f 4f       	sbci	r23, 0xFF	; 255
    12f0:	8f 4f       	sbci	r24, 0xFF	; 255
    12f2:	9f 4f       	sbci	r25, 0xFF	; 255
    12f4:	16 c0       	rjmp	.+44     	; 0x1322 <__floatsisf+0x6c>
    12f6:	88 23       	and	r24, r24
    12f8:	11 f0       	breq	.+4      	; 0x12fe <__floatsisf+0x48>
    12fa:	96 e9       	ldi	r25, 0x96	; 150
    12fc:	11 c0       	rjmp	.+34     	; 0x1320 <__floatsisf+0x6a>
    12fe:	77 23       	and	r23, r23
    1300:	21 f0       	breq	.+8      	; 0x130a <__floatsisf+0x54>
    1302:	9e e8       	ldi	r25, 0x8E	; 142
    1304:	87 2f       	mov	r24, r23
    1306:	76 2f       	mov	r23, r22
    1308:	05 c0       	rjmp	.+10     	; 0x1314 <__floatsisf+0x5e>
    130a:	66 23       	and	r22, r22
    130c:	71 f0       	breq	.+28     	; 0x132a <__floatsisf+0x74>
    130e:	96 e8       	ldi	r25, 0x86	; 134
    1310:	86 2f       	mov	r24, r22
    1312:	70 e0       	ldi	r23, 0x00	; 0
    1314:	60 e0       	ldi	r22, 0x00	; 0
    1316:	2a f0       	brmi	.+10     	; 0x1322 <__floatsisf+0x6c>
    1318:	9a 95       	dec	r25
    131a:	66 0f       	add	r22, r22
    131c:	77 1f       	adc	r23, r23
    131e:	88 1f       	adc	r24, r24
    1320:	da f7       	brpl	.-10     	; 0x1318 <__floatsisf+0x62>
    1322:	88 0f       	add	r24, r24
    1324:	96 95       	lsr	r25
    1326:	87 95       	ror	r24
    1328:	97 f9       	bld	r25, 7
    132a:	08 95       	ret

0000132c <__fp_cmp>:
    132c:	99 0f       	add	r25, r25
    132e:	00 08       	sbc	r0, r0
    1330:	55 0f       	add	r21, r21
    1332:	aa 0b       	sbc	r26, r26
    1334:	e0 e8       	ldi	r30, 0x80	; 128
    1336:	fe ef       	ldi	r31, 0xFE	; 254
    1338:	16 16       	cp	r1, r22
    133a:	17 06       	cpc	r1, r23
    133c:	e8 07       	cpc	r30, r24
    133e:	f9 07       	cpc	r31, r25
    1340:	c0 f0       	brcs	.+48     	; 0x1372 <__fp_cmp+0x46>
    1342:	12 16       	cp	r1, r18
    1344:	13 06       	cpc	r1, r19
    1346:	e4 07       	cpc	r30, r20
    1348:	f5 07       	cpc	r31, r21
    134a:	98 f0       	brcs	.+38     	; 0x1372 <__fp_cmp+0x46>
    134c:	62 1b       	sub	r22, r18
    134e:	73 0b       	sbc	r23, r19
    1350:	84 0b       	sbc	r24, r20
    1352:	95 0b       	sbc	r25, r21
    1354:	39 f4       	brne	.+14     	; 0x1364 <__fp_cmp+0x38>
    1356:	0a 26       	eor	r0, r26
    1358:	61 f0       	breq	.+24     	; 0x1372 <__fp_cmp+0x46>
    135a:	23 2b       	or	r18, r19
    135c:	24 2b       	or	r18, r20
    135e:	25 2b       	or	r18, r21
    1360:	21 f4       	brne	.+8      	; 0x136a <__fp_cmp+0x3e>
    1362:	08 95       	ret
    1364:	0a 26       	eor	r0, r26
    1366:	09 f4       	brne	.+2      	; 0x136a <__fp_cmp+0x3e>
    1368:	a1 40       	sbci	r26, 0x01	; 1
    136a:	a6 95       	lsr	r26
    136c:	8f ef       	ldi	r24, 0xFF	; 255
    136e:	81 1d       	adc	r24, r1
    1370:	81 1d       	adc	r24, r1
    1372:	08 95       	ret

00001374 <__fp_inf>:
    1374:	97 f9       	bld	r25, 7
    1376:	9f 67       	ori	r25, 0x7F	; 127
    1378:	80 e8       	ldi	r24, 0x80	; 128
    137a:	70 e0       	ldi	r23, 0x00	; 0
    137c:	60 e0       	ldi	r22, 0x00	; 0
    137e:	08 95       	ret

00001380 <__fp_nan>:
    1380:	9f ef       	ldi	r25, 0xFF	; 255
    1382:	80 ec       	ldi	r24, 0xC0	; 192
    1384:	08 95       	ret

00001386 <__fp_pscA>:
    1386:	00 24       	eor	r0, r0
    1388:	0a 94       	dec	r0
    138a:	16 16       	cp	r1, r22
    138c:	17 06       	cpc	r1, r23
    138e:	18 06       	cpc	r1, r24
    1390:	09 06       	cpc	r0, r25
    1392:	08 95       	ret

00001394 <__fp_pscB>:
    1394:	00 24       	eor	r0, r0
    1396:	0a 94       	dec	r0
    1398:	12 16       	cp	r1, r18
    139a:	13 06       	cpc	r1, r19
    139c:	14 06       	cpc	r1, r20
    139e:	05 06       	cpc	r0, r21
    13a0:	08 95       	ret

000013a2 <__fp_round>:
    13a2:	09 2e       	mov	r0, r25
    13a4:	03 94       	inc	r0
    13a6:	00 0c       	add	r0, r0
    13a8:	11 f4       	brne	.+4      	; 0x13ae <__fp_round+0xc>
    13aa:	88 23       	and	r24, r24
    13ac:	52 f0       	brmi	.+20     	; 0x13c2 <__fp_round+0x20>
    13ae:	bb 0f       	add	r27, r27
    13b0:	40 f4       	brcc	.+16     	; 0x13c2 <__fp_round+0x20>
    13b2:	bf 2b       	or	r27, r31
    13b4:	11 f4       	brne	.+4      	; 0x13ba <__fp_round+0x18>
    13b6:	60 ff       	sbrs	r22, 0
    13b8:	04 c0       	rjmp	.+8      	; 0x13c2 <__fp_round+0x20>
    13ba:	6f 5f       	subi	r22, 0xFF	; 255
    13bc:	7f 4f       	sbci	r23, 0xFF	; 255
    13be:	8f 4f       	sbci	r24, 0xFF	; 255
    13c0:	9f 4f       	sbci	r25, 0xFF	; 255
    13c2:	08 95       	ret

000013c4 <__fp_split3>:
    13c4:	57 fd       	sbrc	r21, 7
    13c6:	90 58       	subi	r25, 0x80	; 128
    13c8:	44 0f       	add	r20, r20
    13ca:	55 1f       	adc	r21, r21
    13cc:	59 f0       	breq	.+22     	; 0x13e4 <__fp_splitA+0x10>
    13ce:	5f 3f       	cpi	r21, 0xFF	; 255
    13d0:	71 f0       	breq	.+28     	; 0x13ee <__fp_splitA+0x1a>
    13d2:	47 95       	ror	r20

000013d4 <__fp_splitA>:
    13d4:	88 0f       	add	r24, r24
    13d6:	97 fb       	bst	r25, 7
    13d8:	99 1f       	adc	r25, r25
    13da:	61 f0       	breq	.+24     	; 0x13f4 <__fp_splitA+0x20>
    13dc:	9f 3f       	cpi	r25, 0xFF	; 255
    13de:	79 f0       	breq	.+30     	; 0x13fe <__fp_splitA+0x2a>
    13e0:	87 95       	ror	r24
    13e2:	08 95       	ret
    13e4:	12 16       	cp	r1, r18
    13e6:	13 06       	cpc	r1, r19
    13e8:	14 06       	cpc	r1, r20
    13ea:	55 1f       	adc	r21, r21
    13ec:	f2 cf       	rjmp	.-28     	; 0x13d2 <__fp_split3+0xe>
    13ee:	46 95       	lsr	r20
    13f0:	f1 df       	rcall	.-30     	; 0x13d4 <__fp_splitA>
    13f2:	08 c0       	rjmp	.+16     	; 0x1404 <__fp_splitA+0x30>
    13f4:	16 16       	cp	r1, r22
    13f6:	17 06       	cpc	r1, r23
    13f8:	18 06       	cpc	r1, r24
    13fa:	99 1f       	adc	r25, r25
    13fc:	f1 cf       	rjmp	.-30     	; 0x13e0 <__fp_splitA+0xc>
    13fe:	86 95       	lsr	r24
    1400:	71 05       	cpc	r23, r1
    1402:	61 05       	cpc	r22, r1
    1404:	08 94       	sec
    1406:	08 95       	ret

00001408 <__fp_zero>:
    1408:	e8 94       	clt

0000140a <__fp_szero>:
    140a:	bb 27       	eor	r27, r27
    140c:	66 27       	eor	r22, r22
    140e:	77 27       	eor	r23, r23
    1410:	cb 01       	movw	r24, r22
    1412:	97 f9       	bld	r25, 7
    1414:	08 95       	ret

00001416 <__gesf2>:
    1416:	0e 94 96 09 	call	0x132c	; 0x132c <__fp_cmp>
    141a:	08 f4       	brcc	.+2      	; 0x141e <__gesf2+0x8>
    141c:	8f ef       	ldi	r24, 0xFF	; 255
    141e:	08 95       	ret

00001420 <__mulsf3>:
    1420:	0e 94 23 0a 	call	0x1446	; 0x1446 <__mulsf3x>
    1424:	0c 94 d1 09 	jmp	0x13a2	; 0x13a2 <__fp_round>
    1428:	0e 94 c3 09 	call	0x1386	; 0x1386 <__fp_pscA>
    142c:	38 f0       	brcs	.+14     	; 0x143c <__mulsf3+0x1c>
    142e:	0e 94 ca 09 	call	0x1394	; 0x1394 <__fp_pscB>
    1432:	20 f0       	brcs	.+8      	; 0x143c <__mulsf3+0x1c>
    1434:	95 23       	and	r25, r21
    1436:	11 f0       	breq	.+4      	; 0x143c <__mulsf3+0x1c>
    1438:	0c 94 ba 09 	jmp	0x1374	; 0x1374 <__fp_inf>
    143c:	0c 94 c0 09 	jmp	0x1380	; 0x1380 <__fp_nan>
    1440:	11 24       	eor	r1, r1
    1442:	0c 94 05 0a 	jmp	0x140a	; 0x140a <__fp_szero>

00001446 <__mulsf3x>:
    1446:	0e 94 e2 09 	call	0x13c4	; 0x13c4 <__fp_split3>
    144a:	70 f3       	brcs	.-36     	; 0x1428 <__mulsf3+0x8>

0000144c <__mulsf3_pse>:
    144c:	95 9f       	mul	r25, r21
    144e:	c1 f3       	breq	.-16     	; 0x1440 <__mulsf3+0x20>
    1450:	95 0f       	add	r25, r21
    1452:	50 e0       	ldi	r21, 0x00	; 0
    1454:	55 1f       	adc	r21, r21
    1456:	62 9f       	mul	r22, r18
    1458:	f0 01       	movw	r30, r0
    145a:	72 9f       	mul	r23, r18
    145c:	bb 27       	eor	r27, r27
    145e:	f0 0d       	add	r31, r0
    1460:	b1 1d       	adc	r27, r1
    1462:	63 9f       	mul	r22, r19
    1464:	aa 27       	eor	r26, r26
    1466:	f0 0d       	add	r31, r0
    1468:	b1 1d       	adc	r27, r1
    146a:	aa 1f       	adc	r26, r26
    146c:	64 9f       	mul	r22, r20
    146e:	66 27       	eor	r22, r22
    1470:	b0 0d       	add	r27, r0
    1472:	a1 1d       	adc	r26, r1
    1474:	66 1f       	adc	r22, r22
    1476:	82 9f       	mul	r24, r18
    1478:	22 27       	eor	r18, r18
    147a:	b0 0d       	add	r27, r0
    147c:	a1 1d       	adc	r26, r1
    147e:	62 1f       	adc	r22, r18
    1480:	73 9f       	mul	r23, r19
    1482:	b0 0d       	add	r27, r0
    1484:	a1 1d       	adc	r26, r1
    1486:	62 1f       	adc	r22, r18
    1488:	83 9f       	mul	r24, r19
    148a:	a0 0d       	add	r26, r0
    148c:	61 1d       	adc	r22, r1
    148e:	22 1f       	adc	r18, r18
    1490:	74 9f       	mul	r23, r20
    1492:	33 27       	eor	r19, r19
    1494:	a0 0d       	add	r26, r0
    1496:	61 1d       	adc	r22, r1
    1498:	23 1f       	adc	r18, r19
    149a:	84 9f       	mul	r24, r20
    149c:	60 0d       	add	r22, r0
    149e:	21 1d       	adc	r18, r1
    14a0:	82 2f       	mov	r24, r18
    14a2:	76 2f       	mov	r23, r22
    14a4:	6a 2f       	mov	r22, r26
    14a6:	11 24       	eor	r1, r1
    14a8:	9f 57       	subi	r25, 0x7F	; 127
    14aa:	50 40       	sbci	r21, 0x00	; 0
    14ac:	9a f0       	brmi	.+38     	; 0x14d4 <__mulsf3_pse+0x88>
    14ae:	f1 f0       	breq	.+60     	; 0x14ec <__mulsf3_pse+0xa0>
    14b0:	88 23       	and	r24, r24
    14b2:	4a f0       	brmi	.+18     	; 0x14c6 <__mulsf3_pse+0x7a>
    14b4:	ee 0f       	add	r30, r30
    14b6:	ff 1f       	adc	r31, r31
    14b8:	bb 1f       	adc	r27, r27
    14ba:	66 1f       	adc	r22, r22
    14bc:	77 1f       	adc	r23, r23
    14be:	88 1f       	adc	r24, r24
    14c0:	91 50       	subi	r25, 0x01	; 1
    14c2:	50 40       	sbci	r21, 0x00	; 0
    14c4:	a9 f7       	brne	.-22     	; 0x14b0 <__mulsf3_pse+0x64>
    14c6:	9e 3f       	cpi	r25, 0xFE	; 254
    14c8:	51 05       	cpc	r21, r1
    14ca:	80 f0       	brcs	.+32     	; 0x14ec <__mulsf3_pse+0xa0>
    14cc:	0c 94 ba 09 	jmp	0x1374	; 0x1374 <__fp_inf>
    14d0:	0c 94 05 0a 	jmp	0x140a	; 0x140a <__fp_szero>
    14d4:	5f 3f       	cpi	r21, 0xFF	; 255
    14d6:	e4 f3       	brlt	.-8      	; 0x14d0 <__mulsf3_pse+0x84>
    14d8:	98 3e       	cpi	r25, 0xE8	; 232
    14da:	d4 f3       	brlt	.-12     	; 0x14d0 <__mulsf3_pse+0x84>
    14dc:	86 95       	lsr	r24
    14de:	77 95       	ror	r23
    14e0:	67 95       	ror	r22
    14e2:	b7 95       	ror	r27
    14e4:	f7 95       	ror	r31
    14e6:	e7 95       	ror	r30
    14e8:	9f 5f       	subi	r25, 0xFF	; 255
    14ea:	c1 f7       	brne	.-16     	; 0x14dc <__mulsf3_pse+0x90>
    14ec:	fe 2b       	or	r31, r30
    14ee:	88 0f       	add	r24, r24
    14f0:	91 1d       	adc	r25, r1
    14f2:	96 95       	lsr	r25
    14f4:	87 95       	ror	r24
    14f6:	97 f9       	bld	r25, 7
    14f8:	08 95       	ret

000014fa <__udivmodsi4>:
    14fa:	a1 e2       	ldi	r26, 0x21	; 33
    14fc:	1a 2e       	mov	r1, r26
    14fe:	aa 1b       	sub	r26, r26
    1500:	bb 1b       	sub	r27, r27
    1502:	fd 01       	movw	r30, r26
    1504:	0d c0       	rjmp	.+26     	; 0x1520 <__udivmodsi4_ep>

00001506 <__udivmodsi4_loop>:
    1506:	aa 1f       	adc	r26, r26
    1508:	bb 1f       	adc	r27, r27
    150a:	ee 1f       	adc	r30, r30
    150c:	ff 1f       	adc	r31, r31
    150e:	a2 17       	cp	r26, r18
    1510:	b3 07       	cpc	r27, r19
    1512:	e4 07       	cpc	r30, r20
    1514:	f5 07       	cpc	r31, r21
    1516:	20 f0       	brcs	.+8      	; 0x1520 <__udivmodsi4_ep>
    1518:	a2 1b       	sub	r26, r18
    151a:	b3 0b       	sbc	r27, r19
    151c:	e4 0b       	sbc	r30, r20
    151e:	f5 0b       	sbc	r31, r21

00001520 <__udivmodsi4_ep>:
    1520:	66 1f       	adc	r22, r22
    1522:	77 1f       	adc	r23, r23
    1524:	88 1f       	adc	r24, r24
    1526:	99 1f       	adc	r25, r25
    1528:	1a 94       	dec	r1
    152a:	69 f7       	brne	.-38     	; 0x1506 <__udivmodsi4_loop>
    152c:	60 95       	com	r22
    152e:	70 95       	com	r23
    1530:	80 95       	com	r24
    1532:	90 95       	com	r25
    1534:	9b 01       	movw	r18, r22
    1536:	ac 01       	movw	r20, r24
    1538:	bd 01       	movw	r22, r26
    153a:	cf 01       	movw	r24, r30
    153c:	08 95       	ret

0000153e <dtostrf>:
    153e:	ef 92       	push	r14
    1540:	0f 93       	push	r16
    1542:	1f 93       	push	r17
    1544:	cf 93       	push	r28
    1546:	df 93       	push	r29
    1548:	e8 01       	movw	r28, r16
    154a:	47 fd       	sbrc	r20, 7
    154c:	02 c0       	rjmp	.+4      	; 0x1552 <dtostrf+0x14>
    154e:	34 e0       	ldi	r19, 0x04	; 4
    1550:	01 c0       	rjmp	.+2      	; 0x1554 <dtostrf+0x16>
    1552:	34 e1       	ldi	r19, 0x14	; 20
    1554:	04 2e       	mov	r0, r20
    1556:	00 0c       	add	r0, r0
    1558:	55 0b       	sbc	r21, r21
    155a:	57 ff       	sbrs	r21, 7
    155c:	03 c0       	rjmp	.+6      	; 0x1564 <dtostrf+0x26>
    155e:	51 95       	neg	r21
    1560:	41 95       	neg	r20
    1562:	51 09       	sbc	r21, r1
    1564:	e3 2e       	mov	r14, r19
    1566:	02 2f       	mov	r16, r18
    1568:	24 2f       	mov	r18, r20
    156a:	ae 01       	movw	r20, r28
    156c:	0e 94 ce 0a 	call	0x159c	; 0x159c <dtoa_prf>
    1570:	ce 01       	movw	r24, r28
    1572:	df 91       	pop	r29
    1574:	cf 91       	pop	r28
    1576:	1f 91       	pop	r17
    1578:	0f 91       	pop	r16
    157a:	ef 90       	pop	r14
    157c:	08 95       	ret

0000157e <atof>:
    157e:	66 27       	eor	r22, r22
    1580:	77 27       	eor	r23, r23
    1582:	0c 94 28 0c 	jmp	0x1850	; 0x1850 <strtod>

00001586 <strcat>:
    1586:	fb 01       	movw	r30, r22
    1588:	dc 01       	movw	r26, r24
    158a:	0d 90       	ld	r0, X+
    158c:	00 20       	and	r0, r0
    158e:	e9 f7       	brne	.-6      	; 0x158a <strcat+0x4>
    1590:	11 97       	sbiw	r26, 0x01	; 1
    1592:	01 90       	ld	r0, Z+
    1594:	0d 92       	st	X+, r0
    1596:	00 20       	and	r0, r0
    1598:	e1 f7       	brne	.-8      	; 0x1592 <strcat+0xc>
    159a:	08 95       	ret

0000159c <dtoa_prf>:
    159c:	a9 e0       	ldi	r26, 0x09	; 9
    159e:	b0 e0       	ldi	r27, 0x00	; 0
    15a0:	e4 ed       	ldi	r30, 0xD4	; 212
    15a2:	fa e0       	ldi	r31, 0x0A	; 10
    15a4:	0c 94 83 0e 	jmp	0x1d06	; 0x1d06 <__prologue_saves__+0xc>
    15a8:	6a 01       	movw	r12, r20
    15aa:	12 2f       	mov	r17, r18
    15ac:	b0 2e       	mov	r11, r16
    15ae:	2b e3       	ldi	r18, 0x3B	; 59
    15b0:	20 17       	cp	r18, r16
    15b2:	20 f0       	brcs	.+8      	; 0x15bc <dtoa_prf+0x20>
    15b4:	ff 24       	eor	r15, r15
    15b6:	f3 94       	inc	r15
    15b8:	f0 0e       	add	r15, r16
    15ba:	02 c0       	rjmp	.+4      	; 0x15c0 <dtoa_prf+0x24>
    15bc:	2c e3       	ldi	r18, 0x3C	; 60
    15be:	f2 2e       	mov	r15, r18
    15c0:	0f 2d       	mov	r16, r15
    15c2:	27 e0       	ldi	r18, 0x07	; 7
    15c4:	ae 01       	movw	r20, r28
    15c6:	4f 5f       	subi	r20, 0xFF	; 255
    15c8:	5f 4f       	sbci	r21, 0xFF	; 255
    15ca:	0e 94 76 0d 	call	0x1aec	; 0x1aec <__ftoa_engine>
    15ce:	bc 01       	movw	r22, r24
    15d0:	49 81       	ldd	r20, Y+1	; 0x01
    15d2:	84 2f       	mov	r24, r20
    15d4:	89 70       	andi	r24, 0x09	; 9
    15d6:	81 30       	cpi	r24, 0x01	; 1
    15d8:	31 f0       	breq	.+12     	; 0x15e6 <dtoa_prf+0x4a>
    15da:	e1 fc       	sbrc	r14, 1
    15dc:	06 c0       	rjmp	.+12     	; 0x15ea <dtoa_prf+0x4e>
    15de:	e0 fe       	sbrs	r14, 0
    15e0:	06 c0       	rjmp	.+12     	; 0x15ee <dtoa_prf+0x52>
    15e2:	90 e2       	ldi	r25, 0x20	; 32
    15e4:	05 c0       	rjmp	.+10     	; 0x15f0 <dtoa_prf+0x54>
    15e6:	9d e2       	ldi	r25, 0x2D	; 45
    15e8:	03 c0       	rjmp	.+6      	; 0x15f0 <dtoa_prf+0x54>
    15ea:	9b e2       	ldi	r25, 0x2B	; 43
    15ec:	01 c0       	rjmp	.+2      	; 0x15f0 <dtoa_prf+0x54>
    15ee:	90 e0       	ldi	r25, 0x00	; 0
    15f0:	5e 2d       	mov	r21, r14
    15f2:	50 71       	andi	r21, 0x10	; 16
    15f4:	43 ff       	sbrs	r20, 3
    15f6:	3c c0       	rjmp	.+120    	; 0x1670 <dtoa_prf+0xd4>
    15f8:	91 11       	cpse	r25, r1
    15fa:	02 c0       	rjmp	.+4      	; 0x1600 <dtoa_prf+0x64>
    15fc:	83 e0       	ldi	r24, 0x03	; 3
    15fe:	01 c0       	rjmp	.+2      	; 0x1602 <dtoa_prf+0x66>
    1600:	84 e0       	ldi	r24, 0x04	; 4
    1602:	81 17       	cp	r24, r17
    1604:	18 f4       	brcc	.+6      	; 0x160c <dtoa_prf+0x70>
    1606:	21 2f       	mov	r18, r17
    1608:	28 1b       	sub	r18, r24
    160a:	01 c0       	rjmp	.+2      	; 0x160e <dtoa_prf+0x72>
    160c:	20 e0       	ldi	r18, 0x00	; 0
    160e:	51 11       	cpse	r21, r1
    1610:	0b c0       	rjmp	.+22     	; 0x1628 <dtoa_prf+0x8c>
    1612:	f6 01       	movw	r30, r12
    1614:	82 2f       	mov	r24, r18
    1616:	30 e2       	ldi	r19, 0x20	; 32
    1618:	88 23       	and	r24, r24
    161a:	19 f0       	breq	.+6      	; 0x1622 <dtoa_prf+0x86>
    161c:	31 93       	st	Z+, r19
    161e:	81 50       	subi	r24, 0x01	; 1
    1620:	fb cf       	rjmp	.-10     	; 0x1618 <dtoa_prf+0x7c>
    1622:	c2 0e       	add	r12, r18
    1624:	d1 1c       	adc	r13, r1
    1626:	20 e0       	ldi	r18, 0x00	; 0
    1628:	99 23       	and	r25, r25
    162a:	29 f0       	breq	.+10     	; 0x1636 <dtoa_prf+0x9a>
    162c:	d6 01       	movw	r26, r12
    162e:	9c 93       	st	X, r25
    1630:	f6 01       	movw	r30, r12
    1632:	31 96       	adiw	r30, 0x01	; 1
    1634:	6f 01       	movw	r12, r30
    1636:	c6 01       	movw	r24, r12
    1638:	03 96       	adiw	r24, 0x03	; 3
    163a:	e2 fe       	sbrs	r14, 2
    163c:	0a c0       	rjmp	.+20     	; 0x1652 <dtoa_prf+0xb6>
    163e:	3e e4       	ldi	r19, 0x4E	; 78
    1640:	d6 01       	movw	r26, r12
    1642:	3c 93       	st	X, r19
    1644:	41 e4       	ldi	r20, 0x41	; 65
    1646:	11 96       	adiw	r26, 0x01	; 1
    1648:	4c 93       	st	X, r20
    164a:	11 97       	sbiw	r26, 0x01	; 1
    164c:	12 96       	adiw	r26, 0x02	; 2
    164e:	3c 93       	st	X, r19
    1650:	06 c0       	rjmp	.+12     	; 0x165e <dtoa_prf+0xc2>
    1652:	3e e6       	ldi	r19, 0x6E	; 110
    1654:	f6 01       	movw	r30, r12
    1656:	30 83       	st	Z, r19
    1658:	41 e6       	ldi	r20, 0x61	; 97
    165a:	41 83       	std	Z+1, r20	; 0x01
    165c:	32 83       	std	Z+2, r19	; 0x02
    165e:	fc 01       	movw	r30, r24
    1660:	32 2f       	mov	r19, r18
    1662:	40 e2       	ldi	r20, 0x20	; 32
    1664:	33 23       	and	r19, r19
    1666:	09 f4       	brne	.+2      	; 0x166a <dtoa_prf+0xce>
    1668:	42 c0       	rjmp	.+132    	; 0x16ee <dtoa_prf+0x152>
    166a:	41 93       	st	Z+, r20
    166c:	31 50       	subi	r19, 0x01	; 1
    166e:	fa cf       	rjmp	.-12     	; 0x1664 <dtoa_prf+0xc8>
    1670:	42 ff       	sbrs	r20, 2
    1672:	44 c0       	rjmp	.+136    	; 0x16fc <dtoa_prf+0x160>
    1674:	91 11       	cpse	r25, r1
    1676:	02 c0       	rjmp	.+4      	; 0x167c <dtoa_prf+0xe0>
    1678:	83 e0       	ldi	r24, 0x03	; 3
    167a:	01 c0       	rjmp	.+2      	; 0x167e <dtoa_prf+0xe2>
    167c:	84 e0       	ldi	r24, 0x04	; 4
    167e:	81 17       	cp	r24, r17
    1680:	18 f4       	brcc	.+6      	; 0x1688 <dtoa_prf+0xec>
    1682:	21 2f       	mov	r18, r17
    1684:	28 1b       	sub	r18, r24
    1686:	01 c0       	rjmp	.+2      	; 0x168a <dtoa_prf+0xee>
    1688:	20 e0       	ldi	r18, 0x00	; 0
    168a:	51 11       	cpse	r21, r1
    168c:	0b c0       	rjmp	.+22     	; 0x16a4 <dtoa_prf+0x108>
    168e:	f6 01       	movw	r30, r12
    1690:	82 2f       	mov	r24, r18
    1692:	30 e2       	ldi	r19, 0x20	; 32
    1694:	88 23       	and	r24, r24
    1696:	19 f0       	breq	.+6      	; 0x169e <dtoa_prf+0x102>
    1698:	31 93       	st	Z+, r19
    169a:	81 50       	subi	r24, 0x01	; 1
    169c:	fb cf       	rjmp	.-10     	; 0x1694 <dtoa_prf+0xf8>
    169e:	c2 0e       	add	r12, r18
    16a0:	d1 1c       	adc	r13, r1
    16a2:	20 e0       	ldi	r18, 0x00	; 0
    16a4:	99 23       	and	r25, r25
    16a6:	29 f0       	breq	.+10     	; 0x16b2 <dtoa_prf+0x116>
    16a8:	d6 01       	movw	r26, r12
    16aa:	9c 93       	st	X, r25
    16ac:	f6 01       	movw	r30, r12
    16ae:	31 96       	adiw	r30, 0x01	; 1
    16b0:	6f 01       	movw	r12, r30
    16b2:	c6 01       	movw	r24, r12
    16b4:	03 96       	adiw	r24, 0x03	; 3
    16b6:	e2 fe       	sbrs	r14, 2
    16b8:	0b c0       	rjmp	.+22     	; 0x16d0 <dtoa_prf+0x134>
    16ba:	39 e4       	ldi	r19, 0x49	; 73
    16bc:	d6 01       	movw	r26, r12
    16be:	3c 93       	st	X, r19
    16c0:	3e e4       	ldi	r19, 0x4E	; 78
    16c2:	11 96       	adiw	r26, 0x01	; 1
    16c4:	3c 93       	st	X, r19
    16c6:	11 97       	sbiw	r26, 0x01	; 1
    16c8:	36 e4       	ldi	r19, 0x46	; 70
    16ca:	12 96       	adiw	r26, 0x02	; 2
    16cc:	3c 93       	st	X, r19
    16ce:	07 c0       	rjmp	.+14     	; 0x16de <dtoa_prf+0x142>
    16d0:	39 e6       	ldi	r19, 0x69	; 105
    16d2:	f6 01       	movw	r30, r12
    16d4:	30 83       	st	Z, r19
    16d6:	3e e6       	ldi	r19, 0x6E	; 110
    16d8:	31 83       	std	Z+1, r19	; 0x01
    16da:	36 e6       	ldi	r19, 0x66	; 102
    16dc:	32 83       	std	Z+2, r19	; 0x02
    16de:	fc 01       	movw	r30, r24
    16e0:	32 2f       	mov	r19, r18
    16e2:	40 e2       	ldi	r20, 0x20	; 32
    16e4:	33 23       	and	r19, r19
    16e6:	19 f0       	breq	.+6      	; 0x16ee <dtoa_prf+0x152>
    16e8:	41 93       	st	Z+, r20
    16ea:	31 50       	subi	r19, 0x01	; 1
    16ec:	fb cf       	rjmp	.-10     	; 0x16e4 <dtoa_prf+0x148>
    16ee:	fc 01       	movw	r30, r24
    16f0:	e2 0f       	add	r30, r18
    16f2:	f1 1d       	adc	r31, r1
    16f4:	10 82       	st	Z, r1
    16f6:	8e ef       	ldi	r24, 0xFE	; 254
    16f8:	9f ef       	ldi	r25, 0xFF	; 255
    16fa:	a6 c0       	rjmp	.+332    	; 0x1848 <dtoa_prf+0x2ac>
    16fc:	21 e0       	ldi	r18, 0x01	; 1
    16fe:	30 e0       	ldi	r19, 0x00	; 0
    1700:	91 11       	cpse	r25, r1
    1702:	02 c0       	rjmp	.+4      	; 0x1708 <dtoa_prf+0x16c>
    1704:	20 e0       	ldi	r18, 0x00	; 0
    1706:	30 e0       	ldi	r19, 0x00	; 0
    1708:	16 16       	cp	r1, r22
    170a:	17 06       	cpc	r1, r23
    170c:	1c f4       	brge	.+6      	; 0x1714 <dtoa_prf+0x178>
    170e:	fb 01       	movw	r30, r22
    1710:	31 96       	adiw	r30, 0x01	; 1
    1712:	02 c0       	rjmp	.+4      	; 0x1718 <dtoa_prf+0x17c>
    1714:	e1 e0       	ldi	r30, 0x01	; 1
    1716:	f0 e0       	ldi	r31, 0x00	; 0
    1718:	2e 0f       	add	r18, r30
    171a:	3f 1f       	adc	r19, r31
    171c:	bb 20       	and	r11, r11
    171e:	21 f0       	breq	.+8      	; 0x1728 <dtoa_prf+0x18c>
    1720:	eb 2d       	mov	r30, r11
    1722:	f0 e0       	ldi	r31, 0x00	; 0
    1724:	31 96       	adiw	r30, 0x01	; 1
    1726:	02 c0       	rjmp	.+4      	; 0x172c <dtoa_prf+0x190>
    1728:	e0 e0       	ldi	r30, 0x00	; 0
    172a:	f0 e0       	ldi	r31, 0x00	; 0
    172c:	2e 0f       	add	r18, r30
    172e:	3f 1f       	adc	r19, r31
    1730:	e1 2f       	mov	r30, r17
    1732:	f0 e0       	ldi	r31, 0x00	; 0
    1734:	2e 17       	cp	r18, r30
    1736:	3f 07       	cpc	r19, r31
    1738:	1c f4       	brge	.+6      	; 0x1740 <dtoa_prf+0x1a4>
    173a:	12 1b       	sub	r17, r18
    173c:	21 2f       	mov	r18, r17
    173e:	01 c0       	rjmp	.+2      	; 0x1742 <dtoa_prf+0x1a6>
    1740:	20 e0       	ldi	r18, 0x00	; 0
    1742:	8e 2d       	mov	r24, r14
    1744:	88 71       	andi	r24, 0x18	; 24
    1746:	59 f4       	brne	.+22     	; 0x175e <dtoa_prf+0x1c2>
    1748:	f6 01       	movw	r30, r12
    174a:	82 2f       	mov	r24, r18
    174c:	30 e2       	ldi	r19, 0x20	; 32
    174e:	88 23       	and	r24, r24
    1750:	19 f0       	breq	.+6      	; 0x1758 <dtoa_prf+0x1bc>
    1752:	31 93       	st	Z+, r19
    1754:	81 50       	subi	r24, 0x01	; 1
    1756:	fb cf       	rjmp	.-10     	; 0x174e <dtoa_prf+0x1b2>
    1758:	c2 0e       	add	r12, r18
    175a:	d1 1c       	adc	r13, r1
    175c:	20 e0       	ldi	r18, 0x00	; 0
    175e:	99 23       	and	r25, r25
    1760:	29 f0       	breq	.+10     	; 0x176c <dtoa_prf+0x1d0>
    1762:	d6 01       	movw	r26, r12
    1764:	9c 93       	st	X, r25
    1766:	f6 01       	movw	r30, r12
    1768:	31 96       	adiw	r30, 0x01	; 1
    176a:	6f 01       	movw	r12, r30
    176c:	51 11       	cpse	r21, r1
    176e:	0b c0       	rjmp	.+22     	; 0x1786 <dtoa_prf+0x1ea>
    1770:	f6 01       	movw	r30, r12
    1772:	82 2f       	mov	r24, r18
    1774:	90 e3       	ldi	r25, 0x30	; 48
    1776:	88 23       	and	r24, r24
    1778:	19 f0       	breq	.+6      	; 0x1780 <dtoa_prf+0x1e4>
    177a:	91 93       	st	Z+, r25
    177c:	81 50       	subi	r24, 0x01	; 1
    177e:	fb cf       	rjmp	.-10     	; 0x1776 <dtoa_prf+0x1da>
    1780:	c2 0e       	add	r12, r18
    1782:	d1 1c       	adc	r13, r1
    1784:	20 e0       	ldi	r18, 0x00	; 0
    1786:	0f 2d       	mov	r16, r15
    1788:	06 0f       	add	r16, r22
    178a:	9a 81       	ldd	r25, Y+2	; 0x02
    178c:	34 2f       	mov	r19, r20
    178e:	30 71       	andi	r19, 0x10	; 16
    1790:	44 ff       	sbrs	r20, 4
    1792:	03 c0       	rjmp	.+6      	; 0x179a <dtoa_prf+0x1fe>
    1794:	91 33       	cpi	r25, 0x31	; 49
    1796:	09 f4       	brne	.+2      	; 0x179a <dtoa_prf+0x1fe>
    1798:	01 50       	subi	r16, 0x01	; 1
    179a:	10 16       	cp	r1, r16
    179c:	24 f4       	brge	.+8      	; 0x17a6 <dtoa_prf+0x20a>
    179e:	09 30       	cpi	r16, 0x09	; 9
    17a0:	18 f0       	brcs	.+6      	; 0x17a8 <dtoa_prf+0x20c>
    17a2:	08 e0       	ldi	r16, 0x08	; 8
    17a4:	01 c0       	rjmp	.+2      	; 0x17a8 <dtoa_prf+0x20c>
    17a6:	01 e0       	ldi	r16, 0x01	; 1
    17a8:	ab 01       	movw	r20, r22
    17aa:	77 ff       	sbrs	r23, 7
    17ac:	02 c0       	rjmp	.+4      	; 0x17b2 <dtoa_prf+0x216>
    17ae:	40 e0       	ldi	r20, 0x00	; 0
    17b0:	50 e0       	ldi	r21, 0x00	; 0
    17b2:	fb 01       	movw	r30, r22
    17b4:	e4 1b       	sub	r30, r20
    17b6:	f5 0b       	sbc	r31, r21
    17b8:	a1 e0       	ldi	r26, 0x01	; 1
    17ba:	b0 e0       	ldi	r27, 0x00	; 0
    17bc:	ac 0f       	add	r26, r28
    17be:	bd 1f       	adc	r27, r29
    17c0:	ea 0f       	add	r30, r26
    17c2:	fb 1f       	adc	r31, r27
    17c4:	8e e2       	ldi	r24, 0x2E	; 46
    17c6:	a8 2e       	mov	r10, r24
    17c8:	4b 01       	movw	r8, r22
    17ca:	80 1a       	sub	r8, r16
    17cc:	91 08       	sbc	r9, r1
    17ce:	0b 2d       	mov	r16, r11
    17d0:	10 e0       	ldi	r17, 0x00	; 0
    17d2:	11 95       	neg	r17
    17d4:	01 95       	neg	r16
    17d6:	11 09       	sbc	r17, r1
    17d8:	4f 3f       	cpi	r20, 0xFF	; 255
    17da:	bf ef       	ldi	r27, 0xFF	; 255
    17dc:	5b 07       	cpc	r21, r27
    17de:	21 f4       	brne	.+8      	; 0x17e8 <dtoa_prf+0x24c>
    17e0:	d6 01       	movw	r26, r12
    17e2:	ac 92       	st	X, r10
    17e4:	11 96       	adiw	r26, 0x01	; 1
    17e6:	6d 01       	movw	r12, r26
    17e8:	64 17       	cp	r22, r20
    17ea:	75 07       	cpc	r23, r21
    17ec:	2c f0       	brlt	.+10     	; 0x17f8 <dtoa_prf+0x25c>
    17ee:	84 16       	cp	r8, r20
    17f0:	95 06       	cpc	r9, r21
    17f2:	14 f4       	brge	.+4      	; 0x17f8 <dtoa_prf+0x25c>
    17f4:	81 81       	ldd	r24, Z+1	; 0x01
    17f6:	01 c0       	rjmp	.+2      	; 0x17fa <dtoa_prf+0x25e>
    17f8:	80 e3       	ldi	r24, 0x30	; 48
    17fa:	41 50       	subi	r20, 0x01	; 1
    17fc:	51 09       	sbc	r21, r1
    17fe:	31 96       	adiw	r30, 0x01	; 1
    1800:	d6 01       	movw	r26, r12
    1802:	11 96       	adiw	r26, 0x01	; 1
    1804:	7d 01       	movw	r14, r26
    1806:	40 17       	cp	r20, r16
    1808:	51 07       	cpc	r21, r17
    180a:	24 f0       	brlt	.+8      	; 0x1814 <dtoa_prf+0x278>
    180c:	d6 01       	movw	r26, r12
    180e:	8c 93       	st	X, r24
    1810:	67 01       	movw	r12, r14
    1812:	e2 cf       	rjmp	.-60     	; 0x17d8 <dtoa_prf+0x23c>
    1814:	64 17       	cp	r22, r20
    1816:	75 07       	cpc	r23, r21
    1818:	39 f4       	brne	.+14     	; 0x1828 <dtoa_prf+0x28c>
    181a:	96 33       	cpi	r25, 0x36	; 54
    181c:	20 f4       	brcc	.+8      	; 0x1826 <dtoa_prf+0x28a>
    181e:	95 33       	cpi	r25, 0x35	; 53
    1820:	19 f4       	brne	.+6      	; 0x1828 <dtoa_prf+0x28c>
    1822:	31 11       	cpse	r19, r1
    1824:	01 c0       	rjmp	.+2      	; 0x1828 <dtoa_prf+0x28c>
    1826:	81 e3       	ldi	r24, 0x31	; 49
    1828:	f6 01       	movw	r30, r12
    182a:	80 83       	st	Z, r24
    182c:	f7 01       	movw	r30, r14
    182e:	82 2f       	mov	r24, r18
    1830:	90 e2       	ldi	r25, 0x20	; 32
    1832:	88 23       	and	r24, r24
    1834:	19 f0       	breq	.+6      	; 0x183c <dtoa_prf+0x2a0>
    1836:	91 93       	st	Z+, r25
    1838:	81 50       	subi	r24, 0x01	; 1
    183a:	fb cf       	rjmp	.-10     	; 0x1832 <dtoa_prf+0x296>
    183c:	f7 01       	movw	r30, r14
    183e:	e2 0f       	add	r30, r18
    1840:	f1 1d       	adc	r31, r1
    1842:	10 82       	st	Z, r1
    1844:	80 e0       	ldi	r24, 0x00	; 0
    1846:	90 e0       	ldi	r25, 0x00	; 0
    1848:	29 96       	adiw	r28, 0x09	; 9
    184a:	ec e0       	ldi	r30, 0x0C	; 12
    184c:	0c 94 9f 0e 	jmp	0x1d3e	; 0x1d3e <__epilogue_restores__+0xc>

00001850 <strtod>:
    1850:	a0 e0       	ldi	r26, 0x00	; 0
    1852:	b0 e0       	ldi	r27, 0x00	; 0
    1854:	ee e2       	ldi	r30, 0x2E	; 46
    1856:	fc e0       	ldi	r31, 0x0C	; 12
    1858:	0c 94 83 0e 	jmp	0x1d06	; 0x1d06 <__prologue_saves__+0xc>
    185c:	ec 01       	movw	r28, r24
    185e:	6b 01       	movw	r12, r22
    1860:	61 15       	cp	r22, r1
    1862:	71 05       	cpc	r23, r1
    1864:	19 f0       	breq	.+6      	; 0x186c <strtod+0x1c>
    1866:	fb 01       	movw	r30, r22
    1868:	91 83       	std	Z+1, r25	; 0x01
    186a:	80 83       	st	Z, r24
    186c:	7e 01       	movw	r14, r28
    186e:	ff ef       	ldi	r31, 0xFF	; 255
    1870:	ef 1a       	sub	r14, r31
    1872:	ff 0a       	sbc	r15, r31
    1874:	08 81       	ld	r16, Y
    1876:	80 2f       	mov	r24, r16
    1878:	90 e0       	ldi	r25, 0x00	; 0
    187a:	0e 94 4e 0e 	call	0x1c9c	; 0x1c9c <isspace>
    187e:	89 2b       	or	r24, r25
    1880:	11 f0       	breq	.+4      	; 0x1886 <strtod+0x36>
    1882:	e7 01       	movw	r28, r14
    1884:	f3 cf       	rjmp	.-26     	; 0x186c <strtod+0x1c>
    1886:	0d 32       	cpi	r16, 0x2D	; 45
    1888:	39 f4       	brne	.+14     	; 0x1898 <strtod+0x48>
    188a:	7e 01       	movw	r14, r28
    188c:	82 e0       	ldi	r24, 0x02	; 2
    188e:	e8 0e       	add	r14, r24
    1890:	f1 1c       	adc	r15, r1
    1892:	09 81       	ldd	r16, Y+1	; 0x01
    1894:	11 e0       	ldi	r17, 0x01	; 1
    1896:	08 c0       	rjmp	.+16     	; 0x18a8 <strtod+0x58>
    1898:	0b 32       	cpi	r16, 0x2B	; 43
    189a:	29 f4       	brne	.+10     	; 0x18a6 <strtod+0x56>
    189c:	7e 01       	movw	r14, r28
    189e:	92 e0       	ldi	r25, 0x02	; 2
    18a0:	e9 0e       	add	r14, r25
    18a2:	f1 1c       	adc	r15, r1
    18a4:	09 81       	ldd	r16, Y+1	; 0x01
    18a6:	10 e0       	ldi	r17, 0x00	; 0
    18a8:	e7 01       	movw	r28, r14
    18aa:	21 97       	sbiw	r28, 0x01	; 1
    18ac:	43 e0       	ldi	r20, 0x03	; 3
    18ae:	50 e0       	ldi	r21, 0x00	; 0
    18b0:	6c e5       	ldi	r22, 0x5C	; 92
    18b2:	70 e0       	ldi	r23, 0x00	; 0
    18b4:	ce 01       	movw	r24, r28
    18b6:	0e 94 57 0e 	call	0x1cae	; 0x1cae <strncasecmp_P>
    18ba:	89 2b       	or	r24, r25
    18bc:	c1 f4       	brne	.+48     	; 0x18ee <strtod+0x9e>
    18be:	23 96       	adiw	r28, 0x03	; 3
    18c0:	45 e0       	ldi	r20, 0x05	; 5
    18c2:	50 e0       	ldi	r21, 0x00	; 0
    18c4:	67 e5       	ldi	r22, 0x57	; 87
    18c6:	70 e0       	ldi	r23, 0x00	; 0
    18c8:	ce 01       	movw	r24, r28
    18ca:	0e 94 57 0e 	call	0x1cae	; 0x1cae <strncasecmp_P>
    18ce:	89 2b       	or	r24, r25
    18d0:	09 f4       	brne	.+2      	; 0x18d4 <strtod+0x84>
    18d2:	25 96       	adiw	r28, 0x05	; 5
    18d4:	c1 14       	cp	r12, r1
    18d6:	d1 04       	cpc	r13, r1
    18d8:	19 f0       	breq	.+6      	; 0x18e0 <strtod+0x90>
    18da:	f6 01       	movw	r30, r12
    18dc:	d1 83       	std	Z+1, r29	; 0x01
    18de:	c0 83       	st	Z, r28
    18e0:	11 11       	cpse	r17, r1
    18e2:	f6 c0       	rjmp	.+492    	; 0x1ad0 <strtod+0x280>
    18e4:	60 e0       	ldi	r22, 0x00	; 0
    18e6:	70 e0       	ldi	r23, 0x00	; 0
    18e8:	80 e8       	ldi	r24, 0x80	; 128
    18ea:	9f e7       	ldi	r25, 0x7F	; 127
    18ec:	fa c0       	rjmp	.+500    	; 0x1ae2 <strtod+0x292>
    18ee:	43 e0       	ldi	r20, 0x03	; 3
    18f0:	50 e0       	ldi	r21, 0x00	; 0
    18f2:	64 e5       	ldi	r22, 0x54	; 84
    18f4:	70 e0       	ldi	r23, 0x00	; 0
    18f6:	ce 01       	movw	r24, r28
    18f8:	0e 94 57 0e 	call	0x1cae	; 0x1cae <strncasecmp_P>
    18fc:	89 2b       	or	r24, r25
    18fe:	59 f4       	brne	.+22     	; 0x1916 <strtod+0xc6>
    1900:	c1 14       	cp	r12, r1
    1902:	d1 04       	cpc	r13, r1
    1904:	09 f4       	brne	.+2      	; 0x1908 <strtod+0xb8>
    1906:	e9 c0       	rjmp	.+466    	; 0x1ada <strtod+0x28a>
    1908:	f2 e0       	ldi	r31, 0x02	; 2
    190a:	ef 0e       	add	r14, r31
    190c:	f1 1c       	adc	r15, r1
    190e:	f6 01       	movw	r30, r12
    1910:	f1 82       	std	Z+1, r15	; 0x01
    1912:	e0 82       	st	Z, r14
    1914:	e2 c0       	rjmp	.+452    	; 0x1ada <strtod+0x28a>
    1916:	20 e0       	ldi	r18, 0x00	; 0
    1918:	30 e0       	ldi	r19, 0x00	; 0
    191a:	a9 01       	movw	r20, r18
    191c:	c0 e0       	ldi	r28, 0x00	; 0
    191e:	d0 e0       	ldi	r29, 0x00	; 0
    1920:	f7 01       	movw	r30, r14
    1922:	80 ed       	ldi	r24, 0xD0	; 208
    1924:	a8 2e       	mov	r10, r24
    1926:	a0 0e       	add	r10, r16
    1928:	89 e0       	ldi	r24, 0x09	; 9
    192a:	8a 15       	cp	r24, r10
    192c:	30 f1       	brcs	.+76     	; 0x197a <strtod+0x12a>
    192e:	91 2f       	mov	r25, r17
    1930:	92 60       	ori	r25, 0x02	; 2
    1932:	b9 2e       	mov	r11, r25
    1934:	81 2f       	mov	r24, r17
    1936:	88 70       	andi	r24, 0x08	; 8
    1938:	12 ff       	sbrs	r17, 2
    193a:	04 c0       	rjmp	.+8      	; 0x1944 <strtod+0xf4>
    193c:	81 11       	cpse	r24, r1
    193e:	24 c0       	rjmp	.+72     	; 0x1988 <strtod+0x138>
    1940:	21 96       	adiw	r28, 0x01	; 1
    1942:	22 c0       	rjmp	.+68     	; 0x1988 <strtod+0x138>
    1944:	81 11       	cpse	r24, r1
    1946:	21 97       	sbiw	r28, 0x01	; 1
    1948:	a5 e0       	ldi	r26, 0x05	; 5
    194a:	b0 e0       	ldi	r27, 0x00	; 0
    194c:	0e 94 72 0e 	call	0x1ce4	; 0x1ce4 <__muluhisi3>
    1950:	dc 01       	movw	r26, r24
    1952:	cb 01       	movw	r24, r22
    1954:	88 0f       	add	r24, r24
    1956:	99 1f       	adc	r25, r25
    1958:	aa 1f       	adc	r26, r26
    195a:	bb 1f       	adc	r27, r27
    195c:	9c 01       	movw	r18, r24
    195e:	ad 01       	movw	r20, r26
    1960:	2a 0d       	add	r18, r10
    1962:	31 1d       	adc	r19, r1
    1964:	41 1d       	adc	r20, r1
    1966:	51 1d       	adc	r21, r1
    1968:	28 39       	cpi	r18, 0x98	; 152
    196a:	89 e9       	ldi	r24, 0x99	; 153
    196c:	38 07       	cpc	r19, r24
    196e:	48 07       	cpc	r20, r24
    1970:	89 e1       	ldi	r24, 0x19	; 25
    1972:	58 07       	cpc	r21, r24
    1974:	48 f0       	brcs	.+18     	; 0x1988 <strtod+0x138>
    1976:	16 60       	ori	r17, 0x06	; 6
    1978:	06 c0       	rjmp	.+12     	; 0x1986 <strtod+0x136>
    197a:	9e ef       	ldi	r25, 0xFE	; 254
    197c:	a9 12       	cpse	r10, r25
    197e:	0a c0       	rjmp	.+20     	; 0x1994 <strtod+0x144>
    1980:	13 fd       	sbrc	r17, 3
    1982:	40 c0       	rjmp	.+128    	; 0x1a04 <strtod+0x1b4>
    1984:	18 60       	ori	r17, 0x08	; 8
    1986:	b1 2e       	mov	r11, r17
    1988:	8f ef       	ldi	r24, 0xFF	; 255
    198a:	e8 1a       	sub	r14, r24
    198c:	f8 0a       	sbc	r15, r24
    198e:	00 81       	ld	r16, Z
    1990:	1b 2d       	mov	r17, r11
    1992:	c6 cf       	rjmp	.-116    	; 0x1920 <strtod+0xd0>
    1994:	80 2f       	mov	r24, r16
    1996:	8f 7d       	andi	r24, 0xDF	; 223
    1998:	85 34       	cpi	r24, 0x45	; 69
    199a:	a1 f5       	brne	.+104    	; 0x1a04 <strtod+0x1b4>
    199c:	80 81       	ld	r24, Z
    199e:	8d 32       	cpi	r24, 0x2D	; 45
    19a0:	11 f4       	brne	.+4      	; 0x19a6 <strtod+0x156>
    19a2:	10 61       	ori	r17, 0x10	; 16
    19a4:	06 c0       	rjmp	.+12     	; 0x19b2 <strtod+0x162>
    19a6:	8b 32       	cpi	r24, 0x2B	; 43
    19a8:	21 f0       	breq	.+8      	; 0x19b2 <strtod+0x162>
    19aa:	31 96       	adiw	r30, 0x01	; 1
    19ac:	61 e0       	ldi	r22, 0x01	; 1
    19ae:	70 e0       	ldi	r23, 0x00	; 0
    19b0:	04 c0       	rjmp	.+8      	; 0x19ba <strtod+0x16a>
    19b2:	81 81       	ldd	r24, Z+1	; 0x01
    19b4:	32 96       	adiw	r30, 0x02	; 2
    19b6:	62 e0       	ldi	r22, 0x02	; 2
    19b8:	70 e0       	ldi	r23, 0x00	; 0
    19ba:	80 53       	subi	r24, 0x30	; 48
    19bc:	8a 30       	cpi	r24, 0x0A	; 10
    19be:	18 f0       	brcs	.+6      	; 0x19c6 <strtod+0x176>
    19c0:	e6 1b       	sub	r30, r22
    19c2:	f7 0b       	sbc	r31, r23
    19c4:	1f c0       	rjmp	.+62     	; 0x1a04 <strtod+0x1b4>
    19c6:	60 e0       	ldi	r22, 0x00	; 0
    19c8:	70 e0       	ldi	r23, 0x00	; 0
    19ca:	60 38       	cpi	r22, 0x80	; 128
    19cc:	9c e0       	ldi	r25, 0x0C	; 12
    19ce:	79 07       	cpc	r23, r25
    19d0:	5c f4       	brge	.+22     	; 0x19e8 <strtod+0x198>
    19d2:	db 01       	movw	r26, r22
    19d4:	aa 0f       	add	r26, r26
    19d6:	bb 1f       	adc	r27, r27
    19d8:	aa 0f       	add	r26, r26
    19da:	bb 1f       	adc	r27, r27
    19dc:	6a 0f       	add	r22, r26
    19de:	7b 1f       	adc	r23, r27
    19e0:	66 0f       	add	r22, r22
    19e2:	77 1f       	adc	r23, r23
    19e4:	68 0f       	add	r22, r24
    19e6:	71 1d       	adc	r23, r1
    19e8:	31 96       	adiw	r30, 0x01	; 1
    19ea:	df 01       	movw	r26, r30
    19ec:	11 97       	sbiw	r26, 0x01	; 1
    19ee:	8c 91       	ld	r24, X
    19f0:	80 53       	subi	r24, 0x30	; 48
    19f2:	8a 30       	cpi	r24, 0x0A	; 10
    19f4:	50 f3       	brcs	.-44     	; 0x19ca <strtod+0x17a>
    19f6:	14 ff       	sbrs	r17, 4
    19f8:	03 c0       	rjmp	.+6      	; 0x1a00 <strtod+0x1b0>
    19fa:	71 95       	neg	r23
    19fc:	61 95       	neg	r22
    19fe:	71 09       	sbc	r23, r1
    1a00:	c6 0f       	add	r28, r22
    1a02:	d7 1f       	adc	r29, r23
    1a04:	11 ff       	sbrs	r17, 1
    1a06:	08 c0       	rjmp	.+16     	; 0x1a18 <strtod+0x1c8>
    1a08:	c1 14       	cp	r12, r1
    1a0a:	d1 04       	cpc	r13, r1
    1a0c:	29 f0       	breq	.+10     	; 0x1a18 <strtod+0x1c8>
    1a0e:	cf 01       	movw	r24, r30
    1a10:	01 97       	sbiw	r24, 0x01	; 1
    1a12:	f6 01       	movw	r30, r12
    1a14:	91 83       	std	Z+1, r25	; 0x01
    1a16:	80 83       	st	Z, r24
    1a18:	ca 01       	movw	r24, r20
    1a1a:	b9 01       	movw	r22, r18
    1a1c:	0e 94 59 09 	call	0x12b2	; 0x12b2 <__floatunsisf>
    1a20:	21 2f       	mov	r18, r17
    1a22:	23 70       	andi	r18, 0x03	; 3
    1a24:	23 30       	cpi	r18, 0x03	; 3
    1a26:	19 f0       	breq	.+6      	; 0x1a2e <strtod+0x1de>
    1a28:	4b 01       	movw	r8, r22
    1a2a:	5c 01       	movw	r10, r24
    1a2c:	06 c0       	rjmp	.+12     	; 0x1a3a <strtod+0x1ea>
    1a2e:	4b 01       	movw	r8, r22
    1a30:	5c 01       	movw	r10, r24
    1a32:	b7 fa       	bst	r11, 7
    1a34:	b0 94       	com	r11
    1a36:	b7 f8       	bld	r11, 7
    1a38:	b0 94       	com	r11
    1a3a:	20 e0       	ldi	r18, 0x00	; 0
    1a3c:	30 e0       	ldi	r19, 0x00	; 0
    1a3e:	a9 01       	movw	r20, r18
    1a40:	c5 01       	movw	r24, r10
    1a42:	b4 01       	movw	r22, r8
    1a44:	0e 94 ac 08 	call	0x1158	; 0x1158 <__cmpsf2>
    1a48:	88 23       	and	r24, r24
    1a4a:	09 f4       	brne	.+2      	; 0x1a4e <strtod+0x1fe>
    1a4c:	3e c0       	rjmp	.+124    	; 0x1aca <strtod+0x27a>
    1a4e:	d7 ff       	sbrs	r29, 7
    1a50:	06 c0       	rjmp	.+12     	; 0x1a5e <strtod+0x20e>
    1a52:	d1 95       	neg	r29
    1a54:	c1 95       	neg	r28
    1a56:	d1 09       	sbc	r29, r1
    1a58:	03 e7       	ldi	r16, 0x73	; 115
    1a5a:	10 e0       	ldi	r17, 0x00	; 0
    1a5c:	02 c0       	rjmp	.+4      	; 0x1a62 <strtod+0x212>
    1a5e:	0b e8       	ldi	r16, 0x8B	; 139
    1a60:	10 e0       	ldi	r17, 0x00	; 0
    1a62:	68 01       	movw	r12, r16
    1a64:	f8 e1       	ldi	r31, 0x18	; 24
    1a66:	cf 1a       	sub	r12, r31
    1a68:	d1 08       	sbc	r13, r1
    1a6a:	90 e2       	ldi	r25, 0x20	; 32
    1a6c:	e9 2e       	mov	r14, r25
    1a6e:	f1 2c       	mov	r15, r1
    1a70:	ce 15       	cp	r28, r14
    1a72:	df 05       	cpc	r29, r15
    1a74:	74 f0       	brlt	.+28     	; 0x1a92 <strtod+0x242>
    1a76:	f8 01       	movw	r30, r16
    1a78:	25 91       	lpm	r18, Z+
    1a7a:	35 91       	lpm	r19, Z+
    1a7c:	45 91       	lpm	r20, Z+
    1a7e:	54 91       	lpm	r21, Z
    1a80:	c5 01       	movw	r24, r10
    1a82:	b4 01       	movw	r22, r8
    1a84:	0e 94 10 0a 	call	0x1420	; 0x1420 <__mulsf3>
    1a88:	4b 01       	movw	r8, r22
    1a8a:	5c 01       	movw	r10, r24
    1a8c:	ce 19       	sub	r28, r14
    1a8e:	df 09       	sbc	r29, r15
    1a90:	ef cf       	rjmp	.-34     	; 0x1a70 <strtod+0x220>
    1a92:	04 50       	subi	r16, 0x04	; 4
    1a94:	11 09       	sbc	r17, r1
    1a96:	f5 94       	asr	r15
    1a98:	e7 94       	ror	r14
    1a9a:	0c 15       	cp	r16, r12
    1a9c:	1d 05       	cpc	r17, r13
    1a9e:	41 f7       	brne	.-48     	; 0x1a70 <strtod+0x220>
    1aa0:	8a 2d       	mov	r24, r10
    1aa2:	88 0f       	add	r24, r24
    1aa4:	8b 2d       	mov	r24, r11
    1aa6:	88 1f       	adc	r24, r24
    1aa8:	8f 3f       	cpi	r24, 0xFF	; 255
    1aaa:	49 f0       	breq	.+18     	; 0x1abe <strtod+0x26e>
    1aac:	20 e0       	ldi	r18, 0x00	; 0
    1aae:	30 e0       	ldi	r19, 0x00	; 0
    1ab0:	a9 01       	movw	r20, r18
    1ab2:	c5 01       	movw	r24, r10
    1ab4:	b4 01       	movw	r22, r8
    1ab6:	0e 94 ac 08 	call	0x1158	; 0x1158 <__cmpsf2>
    1aba:	81 11       	cpse	r24, r1
    1abc:	06 c0       	rjmp	.+12     	; 0x1aca <strtod+0x27a>
    1abe:	82 e2       	ldi	r24, 0x22	; 34
    1ac0:	90 e0       	ldi	r25, 0x00	; 0
    1ac2:	90 93 c3 02 	sts	0x02C3, r25	; 0x8002c3 <errno+0x1>
    1ac6:	80 93 c2 02 	sts	0x02C2, r24	; 0x8002c2 <errno>
    1aca:	c5 01       	movw	r24, r10
    1acc:	b4 01       	movw	r22, r8
    1ace:	09 c0       	rjmp	.+18     	; 0x1ae2 <strtod+0x292>
    1ad0:	60 e0       	ldi	r22, 0x00	; 0
    1ad2:	70 e0       	ldi	r23, 0x00	; 0
    1ad4:	80 e8       	ldi	r24, 0x80	; 128
    1ad6:	9f ef       	ldi	r25, 0xFF	; 255
    1ad8:	04 c0       	rjmp	.+8      	; 0x1ae2 <strtod+0x292>
    1ada:	60 e0       	ldi	r22, 0x00	; 0
    1adc:	70 e0       	ldi	r23, 0x00	; 0
    1ade:	80 ec       	ldi	r24, 0xC0	; 192
    1ae0:	9f e7       	ldi	r25, 0x7F	; 127
    1ae2:	cd b7       	in	r28, 0x3d	; 61
    1ae4:	de b7       	in	r29, 0x3e	; 62
    1ae6:	ec e0       	ldi	r30, 0x0C	; 12
    1ae8:	0c 94 9f 0e 	jmp	0x1d3e	; 0x1d3e <__epilogue_restores__+0xc>

00001aec <__ftoa_engine>:
    1aec:	28 30       	cpi	r18, 0x08	; 8
    1aee:	08 f0       	brcs	.+2      	; 0x1af2 <__ftoa_engine+0x6>
    1af0:	27 e0       	ldi	r18, 0x07	; 7
    1af2:	33 27       	eor	r19, r19
    1af4:	da 01       	movw	r26, r20
    1af6:	99 0f       	add	r25, r25
    1af8:	31 1d       	adc	r19, r1
    1afa:	87 fd       	sbrc	r24, 7
    1afc:	91 60       	ori	r25, 0x01	; 1
    1afe:	00 96       	adiw	r24, 0x00	; 0
    1b00:	61 05       	cpc	r22, r1
    1b02:	71 05       	cpc	r23, r1
    1b04:	39 f4       	brne	.+14     	; 0x1b14 <__ftoa_engine+0x28>
    1b06:	32 60       	ori	r19, 0x02	; 2
    1b08:	2e 5f       	subi	r18, 0xFE	; 254
    1b0a:	3d 93       	st	X+, r19
    1b0c:	30 e3       	ldi	r19, 0x30	; 48
    1b0e:	2a 95       	dec	r18
    1b10:	e1 f7       	brne	.-8      	; 0x1b0a <__ftoa_engine+0x1e>
    1b12:	08 95       	ret
    1b14:	9f 3f       	cpi	r25, 0xFF	; 255
    1b16:	30 f0       	brcs	.+12     	; 0x1b24 <__ftoa_engine+0x38>
    1b18:	80 38       	cpi	r24, 0x80	; 128
    1b1a:	71 05       	cpc	r23, r1
    1b1c:	61 05       	cpc	r22, r1
    1b1e:	09 f0       	breq	.+2      	; 0x1b22 <__ftoa_engine+0x36>
    1b20:	3c 5f       	subi	r19, 0xFC	; 252
    1b22:	3c 5f       	subi	r19, 0xFC	; 252
    1b24:	3d 93       	st	X+, r19
    1b26:	91 30       	cpi	r25, 0x01	; 1
    1b28:	08 f0       	brcs	.+2      	; 0x1b2c <__ftoa_engine+0x40>
    1b2a:	80 68       	ori	r24, 0x80	; 128
    1b2c:	91 1d       	adc	r25, r1
    1b2e:	df 93       	push	r29
    1b30:	cf 93       	push	r28
    1b32:	1f 93       	push	r17
    1b34:	0f 93       	push	r16
    1b36:	ff 92       	push	r15
    1b38:	ef 92       	push	r14
    1b3a:	19 2f       	mov	r17, r25
    1b3c:	98 7f       	andi	r25, 0xF8	; 248
    1b3e:	96 95       	lsr	r25
    1b40:	e9 2f       	mov	r30, r25
    1b42:	96 95       	lsr	r25
    1b44:	96 95       	lsr	r25
    1b46:	e9 0f       	add	r30, r25
    1b48:	ff 27       	eor	r31, r31
    1b4a:	e7 51       	subi	r30, 0x17	; 23
    1b4c:	ff 4f       	sbci	r31, 0xFF	; 255
    1b4e:	99 27       	eor	r25, r25
    1b50:	33 27       	eor	r19, r19
    1b52:	ee 24       	eor	r14, r14
    1b54:	ff 24       	eor	r15, r15
    1b56:	a7 01       	movw	r20, r14
    1b58:	e7 01       	movw	r28, r14
    1b5a:	05 90       	lpm	r0, Z+
    1b5c:	08 94       	sec
    1b5e:	07 94       	ror	r0
    1b60:	28 f4       	brcc	.+10     	; 0x1b6c <__ftoa_engine+0x80>
    1b62:	36 0f       	add	r19, r22
    1b64:	e7 1e       	adc	r14, r23
    1b66:	f8 1e       	adc	r15, r24
    1b68:	49 1f       	adc	r20, r25
    1b6a:	51 1d       	adc	r21, r1
    1b6c:	66 0f       	add	r22, r22
    1b6e:	77 1f       	adc	r23, r23
    1b70:	88 1f       	adc	r24, r24
    1b72:	99 1f       	adc	r25, r25
    1b74:	06 94       	lsr	r0
    1b76:	a1 f7       	brne	.-24     	; 0x1b60 <__ftoa_engine+0x74>
    1b78:	05 90       	lpm	r0, Z+
    1b7a:	07 94       	ror	r0
    1b7c:	28 f4       	brcc	.+10     	; 0x1b88 <__ftoa_engine+0x9c>
    1b7e:	e7 0e       	add	r14, r23
    1b80:	f8 1e       	adc	r15, r24
    1b82:	49 1f       	adc	r20, r25
    1b84:	56 1f       	adc	r21, r22
    1b86:	c1 1d       	adc	r28, r1
    1b88:	77 0f       	add	r23, r23
    1b8a:	88 1f       	adc	r24, r24
    1b8c:	99 1f       	adc	r25, r25
    1b8e:	66 1f       	adc	r22, r22
    1b90:	06 94       	lsr	r0
    1b92:	a1 f7       	brne	.-24     	; 0x1b7c <__ftoa_engine+0x90>
    1b94:	05 90       	lpm	r0, Z+
    1b96:	07 94       	ror	r0
    1b98:	28 f4       	brcc	.+10     	; 0x1ba4 <__ftoa_engine+0xb8>
    1b9a:	f8 0e       	add	r15, r24
    1b9c:	49 1f       	adc	r20, r25
    1b9e:	56 1f       	adc	r21, r22
    1ba0:	c7 1f       	adc	r28, r23
    1ba2:	d1 1d       	adc	r29, r1
    1ba4:	88 0f       	add	r24, r24
    1ba6:	99 1f       	adc	r25, r25
    1ba8:	66 1f       	adc	r22, r22
    1baa:	77 1f       	adc	r23, r23
    1bac:	06 94       	lsr	r0
    1bae:	a1 f7       	brne	.-24     	; 0x1b98 <__ftoa_engine+0xac>
    1bb0:	05 90       	lpm	r0, Z+
    1bb2:	07 94       	ror	r0
    1bb4:	20 f4       	brcc	.+8      	; 0x1bbe <__ftoa_engine+0xd2>
    1bb6:	49 0f       	add	r20, r25
    1bb8:	56 1f       	adc	r21, r22
    1bba:	c7 1f       	adc	r28, r23
    1bbc:	d8 1f       	adc	r29, r24
    1bbe:	99 0f       	add	r25, r25
    1bc0:	66 1f       	adc	r22, r22
    1bc2:	77 1f       	adc	r23, r23
    1bc4:	88 1f       	adc	r24, r24
    1bc6:	06 94       	lsr	r0
    1bc8:	a9 f7       	brne	.-22     	; 0x1bb4 <__ftoa_engine+0xc8>
    1bca:	84 91       	lpm	r24, Z
    1bcc:	10 95       	com	r17
    1bce:	17 70       	andi	r17, 0x07	; 7
    1bd0:	41 f0       	breq	.+16     	; 0x1be2 <__ftoa_engine+0xf6>
    1bd2:	d6 95       	lsr	r29
    1bd4:	c7 95       	ror	r28
    1bd6:	57 95       	ror	r21
    1bd8:	47 95       	ror	r20
    1bda:	f7 94       	ror	r15
    1bdc:	e7 94       	ror	r14
    1bde:	1a 95       	dec	r17
    1be0:	c1 f7       	brne	.-16     	; 0x1bd2 <__ftoa_engine+0xe6>
    1be2:	ef e8       	ldi	r30, 0x8F	; 143
    1be4:	f0 e0       	ldi	r31, 0x00	; 0
    1be6:	68 94       	set
    1be8:	15 90       	lpm	r1, Z+
    1bea:	15 91       	lpm	r17, Z+
    1bec:	35 91       	lpm	r19, Z+
    1bee:	65 91       	lpm	r22, Z+
    1bf0:	95 91       	lpm	r25, Z+
    1bf2:	05 90       	lpm	r0, Z+
    1bf4:	7f e2       	ldi	r23, 0x2F	; 47
    1bf6:	73 95       	inc	r23
    1bf8:	e1 18       	sub	r14, r1
    1bfa:	f1 0a       	sbc	r15, r17
    1bfc:	43 0b       	sbc	r20, r19
    1bfe:	56 0b       	sbc	r21, r22
    1c00:	c9 0b       	sbc	r28, r25
    1c02:	d0 09       	sbc	r29, r0
    1c04:	c0 f7       	brcc	.-16     	; 0x1bf6 <__ftoa_engine+0x10a>
    1c06:	e1 0c       	add	r14, r1
    1c08:	f1 1e       	adc	r15, r17
    1c0a:	43 1f       	adc	r20, r19
    1c0c:	56 1f       	adc	r21, r22
    1c0e:	c9 1f       	adc	r28, r25
    1c10:	d0 1d       	adc	r29, r0
    1c12:	7e f4       	brtc	.+30     	; 0x1c32 <__ftoa_engine+0x146>
    1c14:	70 33       	cpi	r23, 0x30	; 48
    1c16:	11 f4       	brne	.+4      	; 0x1c1c <__ftoa_engine+0x130>
    1c18:	8a 95       	dec	r24
    1c1a:	e6 cf       	rjmp	.-52     	; 0x1be8 <__ftoa_engine+0xfc>
    1c1c:	e8 94       	clt
    1c1e:	01 50       	subi	r16, 0x01	; 1
    1c20:	30 f0       	brcs	.+12     	; 0x1c2e <__ftoa_engine+0x142>
    1c22:	08 0f       	add	r16, r24
    1c24:	0a f4       	brpl	.+2      	; 0x1c28 <__ftoa_engine+0x13c>
    1c26:	00 27       	eor	r16, r16
    1c28:	02 17       	cp	r16, r18
    1c2a:	08 f4       	brcc	.+2      	; 0x1c2e <__ftoa_engine+0x142>
    1c2c:	20 2f       	mov	r18, r16
    1c2e:	23 95       	inc	r18
    1c30:	02 2f       	mov	r16, r18
    1c32:	7a 33       	cpi	r23, 0x3A	; 58
    1c34:	28 f0       	brcs	.+10     	; 0x1c40 <__ftoa_engine+0x154>
    1c36:	79 e3       	ldi	r23, 0x39	; 57
    1c38:	7d 93       	st	X+, r23
    1c3a:	2a 95       	dec	r18
    1c3c:	e9 f7       	brne	.-6      	; 0x1c38 <__ftoa_engine+0x14c>
    1c3e:	10 c0       	rjmp	.+32     	; 0x1c60 <__ftoa_engine+0x174>
    1c40:	7d 93       	st	X+, r23
    1c42:	2a 95       	dec	r18
    1c44:	89 f6       	brne	.-94     	; 0x1be8 <__ftoa_engine+0xfc>
    1c46:	06 94       	lsr	r0
    1c48:	97 95       	ror	r25
    1c4a:	67 95       	ror	r22
    1c4c:	37 95       	ror	r19
    1c4e:	17 95       	ror	r17
    1c50:	17 94       	ror	r1
    1c52:	e1 18       	sub	r14, r1
    1c54:	f1 0a       	sbc	r15, r17
    1c56:	43 0b       	sbc	r20, r19
    1c58:	56 0b       	sbc	r21, r22
    1c5a:	c9 0b       	sbc	r28, r25
    1c5c:	d0 09       	sbc	r29, r0
    1c5e:	98 f0       	brcs	.+38     	; 0x1c86 <__ftoa_engine+0x19a>
    1c60:	23 95       	inc	r18
    1c62:	7e 91       	ld	r23, -X
    1c64:	73 95       	inc	r23
    1c66:	7a 33       	cpi	r23, 0x3A	; 58
    1c68:	08 f0       	brcs	.+2      	; 0x1c6c <__ftoa_engine+0x180>
    1c6a:	70 e3       	ldi	r23, 0x30	; 48
    1c6c:	7c 93       	st	X, r23
    1c6e:	20 13       	cpse	r18, r16
    1c70:	b8 f7       	brcc	.-18     	; 0x1c60 <__ftoa_engine+0x174>
    1c72:	7e 91       	ld	r23, -X
    1c74:	70 61       	ori	r23, 0x10	; 16
    1c76:	7d 93       	st	X+, r23
    1c78:	30 f0       	brcs	.+12     	; 0x1c86 <__ftoa_engine+0x19a>
    1c7a:	83 95       	inc	r24
    1c7c:	71 e3       	ldi	r23, 0x31	; 49
    1c7e:	7d 93       	st	X+, r23
    1c80:	70 e3       	ldi	r23, 0x30	; 48
    1c82:	2a 95       	dec	r18
    1c84:	e1 f7       	brne	.-8      	; 0x1c7e <__ftoa_engine+0x192>
    1c86:	11 24       	eor	r1, r1
    1c88:	ef 90       	pop	r14
    1c8a:	ff 90       	pop	r15
    1c8c:	0f 91       	pop	r16
    1c8e:	1f 91       	pop	r17
    1c90:	cf 91       	pop	r28
    1c92:	df 91       	pop	r29
    1c94:	99 27       	eor	r25, r25
    1c96:	87 fd       	sbrc	r24, 7
    1c98:	90 95       	com	r25
    1c9a:	08 95       	ret

00001c9c <isspace>:
    1c9c:	91 11       	cpse	r25, r1
    1c9e:	0c 94 6f 0e 	jmp	0x1cde	; 0x1cde <__ctype_isfalse>
    1ca2:	80 32       	cpi	r24, 0x20	; 32
    1ca4:	19 f0       	breq	.+6      	; 0x1cac <isspace+0x10>
    1ca6:	89 50       	subi	r24, 0x09	; 9
    1ca8:	85 50       	subi	r24, 0x05	; 5
    1caa:	c8 f7       	brcc	.-14     	; 0x1c9e <isspace+0x2>
    1cac:	08 95       	ret

00001cae <strncasecmp_P>:
    1cae:	fb 01       	movw	r30, r22
    1cb0:	dc 01       	movw	r26, r24
    1cb2:	41 50       	subi	r20, 0x01	; 1
    1cb4:	50 40       	sbci	r21, 0x00	; 0
    1cb6:	88 f0       	brcs	.+34     	; 0x1cda <strncasecmp_P+0x2c>
    1cb8:	8d 91       	ld	r24, X+
    1cba:	81 34       	cpi	r24, 0x41	; 65
    1cbc:	1c f0       	brlt	.+6      	; 0x1cc4 <strncasecmp_P+0x16>
    1cbe:	8b 35       	cpi	r24, 0x5B	; 91
    1cc0:	0c f4       	brge	.+2      	; 0x1cc4 <strncasecmp_P+0x16>
    1cc2:	80 5e       	subi	r24, 0xE0	; 224
    1cc4:	65 91       	lpm	r22, Z+
    1cc6:	61 34       	cpi	r22, 0x41	; 65
    1cc8:	1c f0       	brlt	.+6      	; 0x1cd0 <strncasecmp_P+0x22>
    1cca:	6b 35       	cpi	r22, 0x5B	; 91
    1ccc:	0c f4       	brge	.+2      	; 0x1cd0 <strncasecmp_P+0x22>
    1cce:	60 5e       	subi	r22, 0xE0	; 224
    1cd0:	86 1b       	sub	r24, r22
    1cd2:	61 11       	cpse	r22, r1
    1cd4:	71 f3       	breq	.-36     	; 0x1cb2 <strncasecmp_P+0x4>
    1cd6:	99 0b       	sbc	r25, r25
    1cd8:	08 95       	ret
    1cda:	88 1b       	sub	r24, r24
    1cdc:	fc cf       	rjmp	.-8      	; 0x1cd6 <strncasecmp_P+0x28>

00001cde <__ctype_isfalse>:
    1cde:	99 27       	eor	r25, r25
    1ce0:	88 27       	eor	r24, r24

00001ce2 <__ctype_istrue>:
    1ce2:	08 95       	ret

00001ce4 <__muluhisi3>:
    1ce4:	0e 94 b4 0e 	call	0x1d68	; 0x1d68 <__umulhisi3>
    1ce8:	a5 9f       	mul	r26, r21
    1cea:	90 0d       	add	r25, r0
    1cec:	b4 9f       	mul	r27, r20
    1cee:	90 0d       	add	r25, r0
    1cf0:	a4 9f       	mul	r26, r20
    1cf2:	80 0d       	add	r24, r0
    1cf4:	91 1d       	adc	r25, r1
    1cf6:	11 24       	eor	r1, r1
    1cf8:	08 95       	ret

00001cfa <__prologue_saves__>:
    1cfa:	2f 92       	push	r2
    1cfc:	3f 92       	push	r3
    1cfe:	4f 92       	push	r4
    1d00:	5f 92       	push	r5
    1d02:	6f 92       	push	r6
    1d04:	7f 92       	push	r7
    1d06:	8f 92       	push	r8
    1d08:	9f 92       	push	r9
    1d0a:	af 92       	push	r10
    1d0c:	bf 92       	push	r11
    1d0e:	cf 92       	push	r12
    1d10:	df 92       	push	r13
    1d12:	ef 92       	push	r14
    1d14:	ff 92       	push	r15
    1d16:	0f 93       	push	r16
    1d18:	1f 93       	push	r17
    1d1a:	cf 93       	push	r28
    1d1c:	df 93       	push	r29
    1d1e:	cd b7       	in	r28, 0x3d	; 61
    1d20:	de b7       	in	r29, 0x3e	; 62
    1d22:	ca 1b       	sub	r28, r26
    1d24:	db 0b       	sbc	r29, r27
    1d26:	0f b6       	in	r0, 0x3f	; 63
    1d28:	f8 94       	cli
    1d2a:	de bf       	out	0x3e, r29	; 62
    1d2c:	0f be       	out	0x3f, r0	; 63
    1d2e:	cd bf       	out	0x3d, r28	; 61
    1d30:	09 94       	ijmp

00001d32 <__epilogue_restores__>:
    1d32:	2a 88       	ldd	r2, Y+18	; 0x12
    1d34:	39 88       	ldd	r3, Y+17	; 0x11
    1d36:	48 88       	ldd	r4, Y+16	; 0x10
    1d38:	5f 84       	ldd	r5, Y+15	; 0x0f
    1d3a:	6e 84       	ldd	r6, Y+14	; 0x0e
    1d3c:	7d 84       	ldd	r7, Y+13	; 0x0d
    1d3e:	8c 84       	ldd	r8, Y+12	; 0x0c
    1d40:	9b 84       	ldd	r9, Y+11	; 0x0b
    1d42:	aa 84       	ldd	r10, Y+10	; 0x0a
    1d44:	b9 84       	ldd	r11, Y+9	; 0x09
    1d46:	c8 84       	ldd	r12, Y+8	; 0x08
    1d48:	df 80       	ldd	r13, Y+7	; 0x07
    1d4a:	ee 80       	ldd	r14, Y+6	; 0x06
    1d4c:	fd 80       	ldd	r15, Y+5	; 0x05
    1d4e:	0c 81       	ldd	r16, Y+4	; 0x04
    1d50:	1b 81       	ldd	r17, Y+3	; 0x03
    1d52:	aa 81       	ldd	r26, Y+2	; 0x02
    1d54:	b9 81       	ldd	r27, Y+1	; 0x01
    1d56:	ce 0f       	add	r28, r30
    1d58:	d1 1d       	adc	r29, r1
    1d5a:	0f b6       	in	r0, 0x3f	; 63
    1d5c:	f8 94       	cli
    1d5e:	de bf       	out	0x3e, r29	; 62
    1d60:	0f be       	out	0x3f, r0	; 63
    1d62:	cd bf       	out	0x3d, r28	; 61
    1d64:	ed 01       	movw	r28, r26
    1d66:	08 95       	ret

00001d68 <__umulhisi3>:
    1d68:	a2 9f       	mul	r26, r18
    1d6a:	b0 01       	movw	r22, r0
    1d6c:	b3 9f       	mul	r27, r19
    1d6e:	c0 01       	movw	r24, r0
    1d70:	a3 9f       	mul	r26, r19
    1d72:	70 0d       	add	r23, r0
    1d74:	81 1d       	adc	r24, r1
    1d76:	11 24       	eor	r1, r1
    1d78:	91 1d       	adc	r25, r1
    1d7a:	b2 9f       	mul	r27, r18
    1d7c:	70 0d       	add	r23, r0
    1d7e:	81 1d       	adc	r24, r1
    1d80:	11 24       	eor	r1, r1
    1d82:	91 1d       	adc	r25, r1
    1d84:	08 95       	ret

00001d86 <_exit>:
    1d86:	f8 94       	cli

00001d88 <__stop_program>:
    1d88:	ff cf       	rjmp	.-2      	; 0x1d88 <__stop_program>
