
FullCode.elf:     file format elf32-avr

Sections:
Idx Name          Size      VMA       LMA       File off  Algn
  0 .text         00001d8a  00000000  00000000  00000094  2**1
                  CONTENTS, ALLOC, LOAD, READONLY, CODE
  1 .data         00000146  00800060  00001d8a  00001e1e  2**0
                  CONTENTS, ALLOC, LOAD, DATA
  2 .bss          0000011e  008001a6  008001a6  00001f64  2**0
                  ALLOC
  3 .comment      0000005c  00000000  00000000  00001f64  2**0
                  CONTENTS, READONLY
  4 .note.gnu.avr.deviceinfo 0000003c  00000000  00000000  00001fc0  2**2
                  CONTENTS, READONLY
  5 .debug_aranges 00000160  00000000  00000000  00001ffc  2**0
                  CONTENTS, READONLY, DEBUGGING
  6 .debug_info   000022b6  00000000  00000000  0000215c  2**0
                  CONTENTS, READONLY, DEBUGGING
  7 .debug_abbrev 000007ec  00000000  00000000  00004412  2**0
                  CONTENTS, READONLY, DEBUGGING
  8 .debug_line   00001062  00000000  00000000  00004bfe  2**0
                  CONTENTS, READONLY, DEBUGGING
  9 .debug_frame  00000428  00000000  00000000  00005c60  2**2
                  CONTENTS, READONLY, DEBUGGING
 10 .debug_str    00000769  00000000  00000000  00006088  2**0
                  CONTENTS, READONLY, DEBUGGING
 11 .debug_loc    000018bc  00000000  00000000  000067f1  2**0
                  CONTENTS, READONLY, DEBUGGING
 12 .debug_ranges 00000168  00000000  00000000  000080ad  2**0
                  CONTENTS, READONLY, DEBUGGING

Disassembly of section .text:

00000000 <__vectors>:
       0:	0c 94 c5 00 	jmp	0x18a	; 0x18a <__ctors_end>
       4:	0c 94 b7 07 	jmp	0xf6e	; 0xf6e <__vector_1>
       8:	0c 94 e2 00 	jmp	0x1c4	; 0x1c4 <__bad_interrupt>
       c:	0c 94 e2 00 	jmp	0x1c4	; 0x1c4 <__bad_interrupt>
      10:	0c 94 e2 00 	jmp	0x1c4	; 0x1c4 <__bad_interrupt>
      14:	0c 94 e2 00 	jmp	0x1c4	; 0x1c4 <__bad_interrupt>
      18:	0c 94 e2 00 	jmp	0x1c4	; 0x1c4 <__bad_interrupt>
      1c:	0c 94 e2 00 	jmp	0x1c4	; 0x1c4 <__bad_interrupt>
      20:	0c 94 e2 00 	jmp	0x1c4	; 0x1c4 <__bad_interrupt>
      24:	0c 94 e2 00 	jmp	0x1c4	; 0x1c4 <__bad_interrupt>
      28:	0c 94 e2 00 	jmp	0x1c4	; 0x1c4 <__bad_interrupt>
      2c:	0c 94 e2 00 	jmp	0x1c4	; 0x1c4 <__bad_interrupt>
      30:	0c 94 e2 00 	jmp	0x1c4	; 0x1c4 <__bad_interrupt>
      34:	0c 94 cf 07 	jmp	0xf9e	; 0xf9e <__vector_13>
      38:	0c 94 e2 00 	jmp	0x1c4	; 0x1c4 <__bad_interrupt>
      3c:	0c 94 e2 00 	jmp	0x1c4	; 0x1c4 <__bad_interrupt>
      40:	0c 94 e2 00 	jmp	0x1c4	; 0x1c4 <__bad_interrupt>
      44:	0c 94 e2 00 	jmp	0x1c4	; 0x1c4 <__bad_interrupt>
      48:	0c 94 e2 00 	jmp	0x1c4	; 0x1c4 <__bad_interrupt>
      4c:	0c 94 e2 00 	jmp	0x1c4	; 0x1c4 <__bad_interrupt>
      50:	0c 94 e2 00 	jmp	0x1c4	; 0x1c4 <__bad_interrupt>

00000054 <__trampolines_end>:
      54:	4e 41       	sbci	r20, 0x1E	; 30
      56:	4e 49       	Address 0x00000056 is out of bounds.
.word	0xffff	; ????

00000057 <pstr_inity>:
      57:	49 4e 49 54 59                                      INITY

0000005c <pstr_inf>:
      5c:	49 4e 46                                            INF

0000005f <pwr_m10>:
      5f:	cd cc cc 3d 0a d7 23 3c 17 b7 d1 38 77 cc 2b 32     ...=..#<...8w.+2
      6f:	95 95 e6 24 1f b1 4f 0a                             ...$..O.

00000077 <pwr_p10>:
      77:	00 00 20 41 00 00 c8 42 00 40 1c 46 20 bc be 4c     .. A...B.@.F ..L
      87:	ca 1b 0e 5a ae c5 9d 74 00 40 7a 10 f3 5a 00 a0     ...Z...t.@z..Z..
      97:	72 4e 18 09 00 10 a5 d4 e8 00 00 e8 76 48 17 00     rN..........vH..
      a7:	00 e4 0b 54 02 00 00 ca 9a 3b 00 00 00 e1 f5 05     ...T.....;......
      b7:	00 00 80 96 98 00 00 00 40 42 0f 00 00 00 a0 86     ........@B......
      c7:	01 00 00 00 10 27 00 00 00 00 e8 03 00 00 00 00     .....'..........
      d7:	64 00 00 00 00 00 0a 00 00 00 00 00 01 00 00 00     d...............
      e7:	00 00 2c 76 d8 88 dc 67 4f 08 23 df c1 df ae 59     ..,v...gO.#....Y
      f7:	e1 b1 b7 96 e5 e3 e4 53 c6 3a e6 51 99 76 96 e8     .......S.:.Q.v..
     107:	e6 c2 84 26 eb 89 8c 9b 62 ed 40 7c 6f fc ef bc     ...&....b.@|o...
     117:	9c 9f 40 f2 ba a5 6f a5 f4 90 05 5a 2a f7 5c 93     ..@...o....Z*.\.
     127:	6b 6c f9 67 6d c1 1b fc e0 e4 0d 47 fe f5 20 e6     kl.gm......G.. .
     137:	b5 00 d0 ed 90 2e 03 00 94 35 77 05 00 80 84 1e     .........5w.....
     147:	08 00 00 20 4e 0a 00 00 00 c8 0c 33 33 33 33 0f     ... N......3333.
     157:	98 6e 12 83 11 41 ef 8d 21 14 89 3b e6 55 16 cf     .n...A..!..;.U..
     167:	fe e6 db 18 d1 84 4b 38 1b f7 7c 1d 90 1d a4 bb     ......K8..|.....
     177:	e4 24 20 32 84 72 5e 22 81 00 c9 f1 24 ec a1 e5     .$ 2.r^"....$...
     187:	3d 27 00                                            ='.

0000018a <__ctors_end>:
     18a:	11 24       	eor	r1, r1
     18c:	1f be       	out	0x3f, r1	; 63
     18e:	cf e5       	ldi	r28, 0x5F	; 95
     190:	d8 e0       	ldi	r29, 0x08	; 8
     192:	de bf       	out	0x3e, r29	; 62
     194:	cd bf       	out	0x3d, r28	; 61

00000196 <__do_copy_data>:
     196:	11 e0       	ldi	r17, 0x01	; 1
     198:	a0 e6       	ldi	r26, 0x60	; 96
     19a:	b0 e0       	ldi	r27, 0x00	; 0
     19c:	ea e8       	ldi	r30, 0x8A	; 138
     19e:	fd e1       	ldi	r31, 0x1D	; 29
     1a0:	02 c0       	rjmp	.+4      	; 0x1a6 <__do_copy_data+0x10>
     1a2:	05 90       	lpm	r0, Z+
     1a4:	0d 92       	st	X+, r0
     1a6:	a6 3a       	cpi	r26, 0xA6	; 166
     1a8:	b1 07       	cpc	r27, r17
     1aa:	d9 f7       	brne	.-10     	; 0x1a2 <__do_copy_data+0xc>

000001ac <__do_clear_bss>:
     1ac:	22 e0       	ldi	r18, 0x02	; 2
     1ae:	a6 ea       	ldi	r26, 0xA6	; 166
     1b0:	b1 e0       	ldi	r27, 0x01	; 1
     1b2:	01 c0       	rjmp	.+2      	; 0x1b6 <.do_clear_bss_start>

000001b4 <.do_clear_bss_loop>:
     1b4:	1d 92       	st	X+, r1

000001b6 <.do_clear_bss_start>:
     1b6:	a4 3c       	cpi	r26, 0xC4	; 196
     1b8:	b2 07       	cpc	r27, r18
     1ba:	e1 f7       	brne	.-8      	; 0x1b4 <.do_clear_bss_loop>
     1bc:	0e 94 6f 06 	call	0xcde	; 0xcde <main>
     1c0:	0c 94 c3 0e 	jmp	0x1d86	; 0x1d86 <_exit>

000001c4 <__bad_interrupt>:
     1c4:	0c 94 00 00 	jmp	0	; 0x0 <__vectors>

000001c8 <ringAlarm>:
	while (str[i]!='\0')		/* Send string till null */
	{
		USART_TxChar(str[i]);
		i++;
	}
}
     1c8:	82 b3       	in	r24, 0x12	; 18
     1ca:	80 68       	ori	r24, 0x80	; 128
     1cc:	82 bb       	out	0x12, r24	; 18
     1ce:	08 95       	ret

000001d0 <stopAlarm>:
     1d0:	82 b3       	in	r24, 0x12	; 18
     1d2:	8f 77       	andi	r24, 0x7F	; 127
     1d4:	82 bb       	out	0x12, r24	; 18
     1d6:	08 95       	ret

000001d8 <onHazardLight>:
     1d8:	82 b3       	in	r24, 0x12	; 18
     1da:	80 64       	ori	r24, 0x40	; 64
     1dc:	82 bb       	out	0x12, r24	; 18
     1de:	08 95       	ret

000001e0 <offHazardLight>:
     1e0:	82 b3       	in	r24, 0x12	; 18
     1e2:	8f 7b       	andi	r24, 0xBF	; 191
     1e4:	82 bb       	out	0x12, r24	; 18
     1e6:	08 95       	ret

000001e8 <playRadio>:
     1e8:	82 b3       	in	r24, 0x12	; 18
     1ea:	80 62       	ori	r24, 0x20	; 32
     1ec:	82 bb       	out	0x12, r24	; 18
     1ee:	08 95       	ret

000001f0 <ADC_Init>:
     1f0:	1a ba       	out	0x1a, r1	; 26
     1f2:	87 e8       	ldi	r24, 0x87	; 135
     1f4:	86 b9       	out	0x06, r24	; 6
     1f6:	80 e4       	ldi	r24, 0x40	; 64
     1f8:	87 b9       	out	0x07, r24	; 7
     1fa:	08 95       	ret

000001fc <ADC_Read>:
     1fc:	97 b1       	in	r25, 0x07	; 7
     1fe:	8f 70       	andi	r24, 0x0F	; 15
     200:	98 2b       	or	r25, r24
     202:	97 b9       	out	0x07, r25	; 7
     204:	86 b1       	in	r24, 0x06	; 6
     206:	80 64       	ori	r24, 0x40	; 64
     208:	86 b9       	out	0x06, r24	; 6
     20a:	34 9b       	sbis	0x06, 4	; 6
     20c:	fe cf       	rjmp	.-4      	; 0x20a <ADC_Read+0xe>
     20e:	8a e1       	ldi	r24, 0x1A	; 26
     210:	8a 95       	dec	r24
     212:	f1 f7       	brne	.-4      	; 0x210 <ADC_Read+0x14>
     214:	00 c0       	rjmp	.+0      	; 0x216 <ADC_Read+0x1a>
     216:	24 b1       	in	r18, 0x04	; 4
     218:	85 b1       	in	r24, 0x05	; 5
     21a:	90 e0       	ldi	r25, 0x00	; 0
     21c:	98 2f       	mov	r25, r24
     21e:	88 27       	eor	r24, r24
     220:	82 0f       	add	r24, r18
     222:	91 1d       	adc	r25, r1
     224:	08 95       	ret

00000226 <PWM_init>:
     226:	89 e6       	ldi	r24, 0x69	; 105
     228:	83 bf       	out	0x33, r24	; 51
     22a:	87 b3       	in	r24, 0x17	; 23
     22c:	88 60       	ori	r24, 0x08	; 8
     22e:	87 bb       	out	0x17, r24	; 23
     230:	08 95       	ret

00000232 <I2C_Init>:
     232:	11 b8       	out	0x01, r1	; 1
     234:	80 e2       	ldi	r24, 0x20	; 32
     236:	80 b9       	out	0x00, r24	; 0
     238:	08 95       	ret

0000023a <I2C_Repeated_Start>:
     23a:	94 ea       	ldi	r25, 0xA4	; 164
     23c:	96 bf       	out	0x36, r25	; 54
     23e:	06 b6       	in	r0, 0x36	; 54
     240:	07 fe       	sbrs	r0, 7
     242:	fd cf       	rjmp	.-6      	; 0x23e <I2C_Repeated_Start+0x4>
     244:	91 b1       	in	r25, 0x01	; 1
     246:	98 7f       	andi	r25, 0xF8	; 248
     248:	90 31       	cpi	r25, 0x10	; 16
     24a:	71 f4       	brne	.+28     	; 0x268 <I2C_Repeated_Start+0x2e>
     24c:	83 b9       	out	0x03, r24	; 3
     24e:	84 e8       	ldi	r24, 0x84	; 132
     250:	86 bf       	out	0x36, r24	; 54
     252:	06 b6       	in	r0, 0x36	; 54
     254:	07 fe       	sbrs	r0, 7
     256:	fd cf       	rjmp	.-6      	; 0x252 <I2C_Repeated_Start+0x18>
     258:	81 b1       	in	r24, 0x01	; 1
     25a:	88 7f       	andi	r24, 0xF8	; 248
     25c:	80 34       	cpi	r24, 0x40	; 64
     25e:	31 f0       	breq	.+12     	; 0x26c <I2C_Repeated_Start+0x32>
     260:	80 32       	cpi	r24, 0x20	; 32
     262:	31 f4       	brne	.+12     	; 0x270 <I2C_Repeated_Start+0x36>
     264:	82 e0       	ldi	r24, 0x02	; 2
     266:	08 95       	ret
     268:	80 e0       	ldi	r24, 0x00	; 0
     26a:	08 95       	ret
     26c:	81 e0       	ldi	r24, 0x01	; 1
     26e:	08 95       	ret
     270:	83 e0       	ldi	r24, 0x03	; 3
     272:	08 95       	ret

00000274 <I2C_Stop>:
     274:	84 e9       	ldi	r24, 0x94	; 148
     276:	86 bf       	out	0x36, r24	; 54
     278:	06 b6       	in	r0, 0x36	; 54
     27a:	04 fc       	sbrc	r0, 4
     27c:	fd cf       	rjmp	.-6      	; 0x278 <I2C_Stop+0x4>
     27e:	08 95       	ret

00000280 <I2C_Start_Wait>:
     280:	cf 93       	push	r28
     282:	c8 2f       	mov	r28, r24
     284:	84 ea       	ldi	r24, 0xA4	; 164
     286:	86 bf       	out	0x36, r24	; 54
     288:	06 b6       	in	r0, 0x36	; 54
     28a:	07 fe       	sbrs	r0, 7
     28c:	fd cf       	rjmp	.-6      	; 0x288 <I2C_Start_Wait+0x8>
     28e:	81 b1       	in	r24, 0x01	; 1
     290:	88 7f       	andi	r24, 0xF8	; 248
     292:	88 30       	cpi	r24, 0x08	; 8
     294:	b9 f7       	brne	.-18     	; 0x284 <I2C_Start_Wait+0x4>
     296:	c3 b9       	out	0x03, r28	; 3
     298:	84 e8       	ldi	r24, 0x84	; 132
     29a:	86 bf       	out	0x36, r24	; 54
     29c:	06 b6       	in	r0, 0x36	; 54
     29e:	07 fe       	sbrs	r0, 7
     2a0:	fd cf       	rjmp	.-6      	; 0x29c <I2C_Start_Wait+0x1c>
     2a2:	81 b1       	in	r24, 0x01	; 1
     2a4:	88 7f       	andi	r24, 0xF8	; 248
     2a6:	88 31       	cpi	r24, 0x18	; 24
     2a8:	19 f0       	breq	.+6      	; 0x2b0 <I2C_Start_Wait+0x30>
     2aa:	0e 94 3a 01 	call	0x274	; 0x274 <I2C_Stop>
     2ae:	ea cf       	rjmp	.-44     	; 0x284 <I2C_Start_Wait+0x4>
     2b0:	cf 91       	pop	r28
     2b2:	08 95       	ret

000002b4 <I2C_Write>:
     2b4:	83 b9       	out	0x03, r24	; 3
     2b6:	84 e8       	ldi	r24, 0x84	; 132
     2b8:	86 bf       	out	0x36, r24	; 54
     2ba:	06 b6       	in	r0, 0x36	; 54
     2bc:	07 fe       	sbrs	r0, 7
     2be:	fd cf       	rjmp	.-6      	; 0x2ba <I2C_Write+0x6>
     2c0:	81 b1       	in	r24, 0x01	; 1
     2c2:	88 7f       	andi	r24, 0xF8	; 248
     2c4:	88 32       	cpi	r24, 0x28	; 40
     2c6:	21 f0       	breq	.+8      	; 0x2d0 <I2C_Write+0x1c>
     2c8:	80 33       	cpi	r24, 0x30	; 48
     2ca:	21 f4       	brne	.+8      	; 0x2d4 <I2C_Write+0x20>
     2cc:	81 e0       	ldi	r24, 0x01	; 1
     2ce:	08 95       	ret
     2d0:	80 e0       	ldi	r24, 0x00	; 0
     2d2:	08 95       	ret
     2d4:	82 e0       	ldi	r24, 0x02	; 2
     2d6:	08 95       	ret

000002d8 <I2C_Read_Ack>:
     2d8:	84 ec       	ldi	r24, 0xC4	; 196
     2da:	86 bf       	out	0x36, r24	; 54
     2dc:	06 b6       	in	r0, 0x36	; 54
     2de:	07 fe       	sbrs	r0, 7
     2e0:	fd cf       	rjmp	.-6      	; 0x2dc <I2C_Read_Ack+0x4>
     2e2:	83 b1       	in	r24, 0x03	; 3
     2e4:	08 95       	ret

000002e6 <I2C_Read_Nack>:
     2e6:	84 e8       	ldi	r24, 0x84	; 132
     2e8:	86 bf       	out	0x36, r24	; 54
     2ea:	06 b6       	in	r0, 0x36	; 54
     2ec:	07 fe       	sbrs	r0, 7
     2ee:	fd cf       	rjmp	.-6      	; 0x2ea <I2C_Read_Nack+0x4>
     2f0:	83 b1       	in	r24, 0x03	; 3
     2f2:	08 95       	ret

000002f4 <MPU6050_Init>:
     2f4:	2f e7       	ldi	r18, 0x7F	; 127
     2f6:	89 ea       	ldi	r24, 0xA9	; 169
     2f8:	93 e0       	ldi	r25, 0x03	; 3
     2fa:	21 50       	subi	r18, 0x01	; 1
     2fc:	80 40       	sbci	r24, 0x00	; 0
     2fe:	90 40       	sbci	r25, 0x00	; 0
     300:	e1 f7       	brne	.-8      	; 0x2fa <MPU6050_Init+0x6>
     302:	00 c0       	rjmp	.+0      	; 0x304 <MPU6050_Init+0x10>
     304:	00 00       	nop
     306:	80 ed       	ldi	r24, 0xD0	; 208
     308:	0e 94 40 01 	call	0x280	; 0x280 <I2C_Start_Wait>
     30c:	89 e1       	ldi	r24, 0x19	; 25
     30e:	0e 94 5a 01 	call	0x2b4	; 0x2b4 <I2C_Write>
     312:	87 e0       	ldi	r24, 0x07	; 7
     314:	0e 94 5a 01 	call	0x2b4	; 0x2b4 <I2C_Write>
     318:	0e 94 3a 01 	call	0x274	; 0x274 <I2C_Stop>
     31c:	80 ed       	ldi	r24, 0xD0	; 208
     31e:	0e 94 40 01 	call	0x280	; 0x280 <I2C_Start_Wait>
     322:	8b e6       	ldi	r24, 0x6B	; 107
     324:	0e 94 5a 01 	call	0x2b4	; 0x2b4 <I2C_Write>
     328:	81 e0       	ldi	r24, 0x01	; 1
     32a:	0e 94 5a 01 	call	0x2b4	; 0x2b4 <I2C_Write>
     32e:	0e 94 3a 01 	call	0x274	; 0x274 <I2C_Stop>
     332:	80 ed       	ldi	r24, 0xD0	; 208
     334:	0e 94 40 01 	call	0x280	; 0x280 <I2C_Start_Wait>
     338:	8a e1       	ldi	r24, 0x1A	; 26
     33a:	0e 94 5a 01 	call	0x2b4	; 0x2b4 <I2C_Write>
     33e:	80 e0       	ldi	r24, 0x00	; 0
     340:	0e 94 5a 01 	call	0x2b4	; 0x2b4 <I2C_Write>
     344:	0e 94 3a 01 	call	0x274	; 0x274 <I2C_Stop>
     348:	80 ed       	ldi	r24, 0xD0	; 208
     34a:	0e 94 40 01 	call	0x280	; 0x280 <I2C_Start_Wait>
     34e:	8b e1       	ldi	r24, 0x1B	; 27
     350:	0e 94 5a 01 	call	0x2b4	; 0x2b4 <I2C_Write>
     354:	88 e1       	ldi	r24, 0x18	; 24
     356:	0e 94 5a 01 	call	0x2b4	; 0x2b4 <I2C_Write>
     35a:	0e 94 3a 01 	call	0x274	; 0x274 <I2C_Stop>
     35e:	80 ed       	ldi	r24, 0xD0	; 208
     360:	0e 94 40 01 	call	0x280	; 0x280 <I2C_Start_Wait>
     364:	88 e3       	ldi	r24, 0x38	; 56
     366:	0e 94 5a 01 	call	0x2b4	; 0x2b4 <I2C_Write>
     36a:	81 e0       	ldi	r24, 0x01	; 1
     36c:	0e 94 5a 01 	call	0x2b4	; 0x2b4 <I2C_Write>
     370:	0e 94 3a 01 	call	0x274	; 0x274 <I2C_Stop>
     374:	08 95       	ret

00000376 <MPU_Start_Loc>:
     376:	80 ed       	ldi	r24, 0xD0	; 208
     378:	0e 94 40 01 	call	0x280	; 0x280 <I2C_Start_Wait>
     37c:	8b e3       	ldi	r24, 0x3B	; 59
     37e:	0e 94 5a 01 	call	0x2b4	; 0x2b4 <I2C_Write>
     382:	81 ed       	ldi	r24, 0xD1	; 209
     384:	0e 94 1d 01 	call	0x23a	; 0x23a <I2C_Repeated_Start>
     388:	08 95       	ret

0000038a <Read_RawValue>:
     38a:	cf 93       	push	r28
     38c:	df 93       	push	r29
     38e:	0e 94 bb 01 	call	0x376	; 0x376 <MPU_Start_Loc>
     392:	0e 94 6c 01 	call	0x2d8	; 0x2d8 <I2C_Read_Ack>
     396:	c8 2f       	mov	r28, r24
     398:	d0 e0       	ldi	r29, 0x00	; 0
     39a:	dc 2f       	mov	r29, r28
     39c:	cc 27       	eor	r28, r28
     39e:	0e 94 6c 01 	call	0x2d8	; 0x2d8 <I2C_Read_Ack>
     3a2:	be 01       	movw	r22, r28
     3a4:	68 2b       	or	r22, r24
     3a6:	07 2e       	mov	r0, r23
     3a8:	00 0c       	add	r0, r0
     3aa:	88 0b       	sbc	r24, r24
     3ac:	99 0b       	sbc	r25, r25
     3ae:	0e 94 5b 09 	call	0x12b6	; 0x12b6 <__floatsisf>
     3b2:	60 93 74 02 	sts	0x0274, r22	; 0x800274 <Acc_x>
     3b6:	70 93 75 02 	sts	0x0275, r23	; 0x800275 <Acc_x+0x1>
     3ba:	80 93 76 02 	sts	0x0276, r24	; 0x800276 <Acc_x+0x2>
     3be:	90 93 77 02 	sts	0x0277, r25	; 0x800277 <Acc_x+0x3>
     3c2:	0e 94 6c 01 	call	0x2d8	; 0x2d8 <I2C_Read_Ack>
     3c6:	c8 2f       	mov	r28, r24
     3c8:	d0 e0       	ldi	r29, 0x00	; 0
     3ca:	dc 2f       	mov	r29, r28
     3cc:	cc 27       	eor	r28, r28
     3ce:	0e 94 6c 01 	call	0x2d8	; 0x2d8 <I2C_Read_Ack>
     3d2:	be 01       	movw	r22, r28
     3d4:	68 2b       	or	r22, r24
     3d6:	07 2e       	mov	r0, r23
     3d8:	00 0c       	add	r0, r0
     3da:	88 0b       	sbc	r24, r24
     3dc:	99 0b       	sbc	r25, r25
     3de:	0e 94 5b 09 	call	0x12b6	; 0x12b6 <__floatsisf>
     3e2:	60 93 49 02 	sts	0x0249, r22	; 0x800249 <Acc_y>
     3e6:	70 93 4a 02 	sts	0x024A, r23	; 0x80024a <Acc_y+0x1>
     3ea:	80 93 4b 02 	sts	0x024B, r24	; 0x80024b <Acc_y+0x2>
     3ee:	90 93 4c 02 	sts	0x024C, r25	; 0x80024c <Acc_y+0x3>
     3f2:	0e 94 6c 01 	call	0x2d8	; 0x2d8 <I2C_Read_Ack>
     3f6:	c8 2f       	mov	r28, r24
     3f8:	d0 e0       	ldi	r29, 0x00	; 0
     3fa:	dc 2f       	mov	r29, r28
     3fc:	cc 27       	eor	r28, r28
     3fe:	0e 94 6c 01 	call	0x2d8	; 0x2d8 <I2C_Read_Ack>
     402:	be 01       	movw	r22, r28
     404:	68 2b       	or	r22, r24
     406:	07 2e       	mov	r0, r23
     408:	00 0c       	add	r0, r0
     40a:	88 0b       	sbc	r24, r24
     40c:	99 0b       	sbc	r25, r25
     40e:	0e 94 5b 09 	call	0x12b6	; 0x12b6 <__floatsisf>
     412:	60 93 a7 01 	sts	0x01A7, r22	; 0x8001a7 <Acc_z>
     416:	70 93 a8 01 	sts	0x01A8, r23	; 0x8001a8 <Acc_z+0x1>
     41a:	80 93 a9 01 	sts	0x01A9, r24	; 0x8001a9 <Acc_z+0x2>
     41e:	90 93 aa 01 	sts	0x01AA, r25	; 0x8001aa <Acc_z+0x3>
     422:	0e 94 6c 01 	call	0x2d8	; 0x2d8 <I2C_Read_Ack>
     426:	c8 2f       	mov	r28, r24
     428:	d0 e0       	ldi	r29, 0x00	; 0
     42a:	dc 2f       	mov	r29, r28
     42c:	cc 27       	eor	r28, r28
     42e:	0e 94 6c 01 	call	0x2d8	; 0x2d8 <I2C_Read_Ack>
     432:	be 01       	movw	r22, r28
     434:	68 2b       	or	r22, r24
     436:	07 2e       	mov	r0, r23
     438:	00 0c       	add	r0, r0
     43a:	88 0b       	sbc	r24, r24
     43c:	99 0b       	sbc	r25, r25
     43e:	0e 94 5b 09 	call	0x12b6	; 0x12b6 <__floatsisf>
     442:	60 93 45 02 	sts	0x0245, r22	; 0x800245 <Temperature>
     446:	70 93 46 02 	sts	0x0246, r23	; 0x800246 <Temperature+0x1>
     44a:	80 93 47 02 	sts	0x0247, r24	; 0x800247 <Temperature+0x2>
     44e:	90 93 48 02 	sts	0x0248, r25	; 0x800248 <Temperature+0x3>
     452:	0e 94 6c 01 	call	0x2d8	; 0x2d8 <I2C_Read_Ack>
     456:	c8 2f       	mov	r28, r24
     458:	d0 e0       	ldi	r29, 0x00	; 0
     45a:	dc 2f       	mov	r29, r28
     45c:	cc 27       	eor	r28, r28
     45e:	0e 94 6c 01 	call	0x2d8	; 0x2d8 <I2C_Read_Ack>
     462:	be 01       	movw	r22, r28
     464:	68 2b       	or	r22, r24
     466:	07 2e       	mov	r0, r23
     468:	00 0c       	add	r0, r0
     46a:	88 0b       	sbc	r24, r24
     46c:	99 0b       	sbc	r25, r25
     46e:	0e 94 5b 09 	call	0x12b6	; 0x12b6 <__floatsisf>
     472:	60 93 41 02 	sts	0x0241, r22	; 0x800241 <Gyro_x>
     476:	70 93 42 02 	sts	0x0242, r23	; 0x800242 <Gyro_x+0x1>
     47a:	80 93 43 02 	sts	0x0243, r24	; 0x800243 <Gyro_x+0x2>
     47e:	90 93 44 02 	sts	0x0244, r25	; 0x800244 <Gyro_x+0x3>
     482:	0e 94 6c 01 	call	0x2d8	; 0x2d8 <I2C_Read_Ack>
     486:	c8 2f       	mov	r28, r24
     488:	d0 e0       	ldi	r29, 0x00	; 0
     48a:	dc 2f       	mov	r29, r28
     48c:	cc 27       	eor	r28, r28
     48e:	0e 94 6c 01 	call	0x2d8	; 0x2d8 <I2C_Read_Ack>
     492:	be 01       	movw	r22, r28
     494:	68 2b       	or	r22, r24
     496:	07 2e       	mov	r0, r23
     498:	00 0c       	add	r0, r0
     49a:	88 0b       	sbc	r24, r24
     49c:	99 0b       	sbc	r25, r25
     49e:	0e 94 5b 09 	call	0x12b6	; 0x12b6 <__floatsisf>
     4a2:	60 93 8e 02 	sts	0x028E, r22	; 0x80028e <Gyro_y>
     4a6:	70 93 8f 02 	sts	0x028F, r23	; 0x80028f <Gyro_y+0x1>
     4aa:	80 93 90 02 	sts	0x0290, r24	; 0x800290 <Gyro_y+0x2>
     4ae:	90 93 91 02 	sts	0x0291, r25	; 0x800291 <Gyro_y+0x3>
     4b2:	0e 94 6c 01 	call	0x2d8	; 0x2d8 <I2C_Read_Ack>
     4b6:	c8 2f       	mov	r28, r24
     4b8:	d0 e0       	ldi	r29, 0x00	; 0
     4ba:	dc 2f       	mov	r29, r28
     4bc:	cc 27       	eor	r28, r28
     4be:	0e 94 73 01 	call	0x2e6	; 0x2e6 <I2C_Read_Nack>
     4c2:	be 01       	movw	r22, r28
     4c4:	68 2b       	or	r22, r24
     4c6:	07 2e       	mov	r0, r23
     4c8:	00 0c       	add	r0, r0
     4ca:	88 0b       	sbc	r24, r24
     4cc:	99 0b       	sbc	r25, r25
     4ce:	0e 94 5b 09 	call	0x12b6	; 0x12b6 <__floatsisf>
     4d2:	60 93 70 02 	sts	0x0270, r22	; 0x800270 <Gyro_z>
     4d6:	70 93 71 02 	sts	0x0271, r23	; 0x800271 <Gyro_z+0x1>
     4da:	80 93 72 02 	sts	0x0272, r24	; 0x800272 <Gyro_z+0x2>
     4de:	90 93 73 02 	sts	0x0273, r25	; 0x800273 <Gyro_z+0x3>
     4e2:	0e 94 3a 01 	call	0x274	; 0x274 <I2C_Stop>
     4e6:	df 91       	pop	r29
     4e8:	cf 91       	pop	r28
     4ea:	08 95       	ret

000004ec <isDriverSleepingGyro>:
     4ec:	4f 92       	push	r4
     4ee:	5f 92       	push	r5
     4f0:	6f 92       	push	r6
     4f2:	7f 92       	push	r7
     4f4:	8f 92       	push	r8
     4f6:	9f 92       	push	r9
     4f8:	af 92       	push	r10
     4fa:	bf 92       	push	r11
     4fc:	cf 92       	push	r12
     4fe:	df 92       	push	r13
     500:	ef 92       	push	r14
     502:	ff 92       	push	r15
     504:	0f 93       	push	r16
     506:	1f 93       	push	r17
     508:	4b 01       	movw	r8, r22
     50a:	5c 01       	movw	r10, r24
     50c:	29 01       	movw	r4, r18
     50e:	3a 01       	movw	r6, r20
     510:	67 01       	movw	r12, r14
     512:	78 01       	movw	r14, r16
     514:	20 e0       	ldi	r18, 0x00	; 0
     516:	30 e0       	ldi	r19, 0x00	; 0
     518:	40 e0       	ldi	r20, 0x00	; 0
     51a:	50 ec       	ldi	r21, 0xC0	; 192
     51c:	c7 01       	movw	r24, r14
     51e:	b6 01       	movw	r22, r12
     520:	0e 94 0b 0a 	call	0x1416	; 0x1416 <__gesf2>
     524:	18 16       	cp	r1, r24
     526:	ac f5       	brge	.+106    	; 0x592 <isDriverSleepingGyro+0xa6>
     528:	20 e0       	ldi	r18, 0x00	; 0
     52a:	30 e0       	ldi	r19, 0x00	; 0
     52c:	40 e0       	ldi	r20, 0x00	; 0
     52e:	50 e4       	ldi	r21, 0x40	; 64
     530:	c7 01       	movw	r24, r14
     532:	b6 01       	movw	r22, r12
     534:	0e 94 ac 08 	call	0x1158	; 0x1158 <__cmpsf2>
     538:	88 23       	and	r24, r24
     53a:	74 f5       	brge	.+92     	; 0x598 <isDriverSleepingGyro+0xac>
     53c:	20 e0       	ldi	r18, 0x00	; 0
     53e:	30 e0       	ldi	r19, 0x00	; 0
     540:	40 e4       	ldi	r20, 0x40	; 64
     542:	50 ec       	ldi	r21, 0xC0	; 192
     544:	c5 01       	movw	r24, r10
     546:	b4 01       	movw	r22, r8
     548:	0e 94 0b 0a 	call	0x1416	; 0x1416 <__gesf2>
     54c:	18 16       	cp	r1, r24
     54e:	3c f5       	brge	.+78     	; 0x59e <isDriverSleepingGyro+0xb2>
     550:	20 e0       	ldi	r18, 0x00	; 0
     552:	30 e0       	ldi	r19, 0x00	; 0
     554:	40 e4       	ldi	r20, 0x40	; 64
     556:	50 e4       	ldi	r21, 0x40	; 64
     558:	c5 01       	movw	r24, r10
     55a:	b4 01       	movw	r22, r8
     55c:	0e 94 ac 08 	call	0x1158	; 0x1158 <__cmpsf2>
     560:	88 23       	and	r24, r24
     562:	04 f5       	brge	.+64     	; 0x5a4 <isDriverSleepingGyro+0xb8>
     564:	20 e0       	ldi	r18, 0x00	; 0
     566:	30 e0       	ldi	r19, 0x00	; 0
     568:	40 e0       	ldi	r20, 0x00	; 0
     56a:	51 e4       	ldi	r21, 0x41	; 65
     56c:	c3 01       	movw	r24, r6
     56e:	b2 01       	movw	r22, r4
     570:	0e 94 0b 0a 	call	0x1416	; 0x1416 <__gesf2>
     574:	88 23       	and	r24, r24
     576:	cc f0       	brlt	.+50     	; 0x5aa <isDriverSleepingGyro+0xbe>
     578:	20 e0       	ldi	r18, 0x00	; 0
     57a:	30 e0       	ldi	r19, 0x00	; 0
     57c:	40 e1       	ldi	r20, 0x10	; 16
     57e:	51 e4       	ldi	r21, 0x41	; 65
     580:	c3 01       	movw	r24, r6
     582:	b2 01       	movw	r22, r4
     584:	0e 94 ac 08 	call	0x1158	; 0x1158 <__cmpsf2>
     588:	18 16       	cp	r1, r24
     58a:	94 f4       	brge	.+36     	; 0x5b0 <isDriverSleepingGyro+0xc4>
     58c:	81 e0       	ldi	r24, 0x01	; 1
     58e:	90 e0       	ldi	r25, 0x00	; 0
     590:	11 c0       	rjmp	.+34     	; 0x5b4 <isDriverSleepingGyro+0xc8>
     592:	81 e0       	ldi	r24, 0x01	; 1
     594:	90 e0       	ldi	r25, 0x00	; 0
     596:	0e c0       	rjmp	.+28     	; 0x5b4 <isDriverSleepingGyro+0xc8>
     598:	81 e0       	ldi	r24, 0x01	; 1
     59a:	90 e0       	ldi	r25, 0x00	; 0
     59c:	0b c0       	rjmp	.+22     	; 0x5b4 <isDriverSleepingGyro+0xc8>
     59e:	81 e0       	ldi	r24, 0x01	; 1
     5a0:	90 e0       	ldi	r25, 0x00	; 0
     5a2:	08 c0       	rjmp	.+16     	; 0x5b4 <isDriverSleepingGyro+0xc8>
     5a4:	81 e0       	ldi	r24, 0x01	; 1
     5a6:	90 e0       	ldi	r25, 0x00	; 0
     5a8:	05 c0       	rjmp	.+10     	; 0x5b4 <isDriverSleepingGyro+0xc8>
     5aa:	81 e0       	ldi	r24, 0x01	; 1
     5ac:	90 e0       	ldi	r25, 0x00	; 0
     5ae:	02 c0       	rjmp	.+4      	; 0x5b4 <isDriverSleepingGyro+0xc8>
     5b0:	80 e0       	ldi	r24, 0x00	; 0
     5b2:	90 e0       	ldi	r25, 0x00	; 0
     5b4:	1f 91       	pop	r17
     5b6:	0f 91       	pop	r16
     5b8:	ff 90       	pop	r15
     5ba:	ef 90       	pop	r14
     5bc:	df 90       	pop	r13
     5be:	cf 90       	pop	r12
     5c0:	bf 90       	pop	r11
     5c2:	af 90       	pop	r10
     5c4:	9f 90       	pop	r9
     5c6:	8f 90       	pop	r8
     5c8:	7f 90       	pop	r7
     5ca:	6f 90       	pop	r6
     5cc:	5f 90       	pop	r5
     5ce:	4f 90       	pop	r4
     5d0:	08 95       	ret

000005d2 <LCD_Command>:
     5d2:	98 b3       	in	r25, 0x18	; 24
     5d4:	9f 70       	andi	r25, 0x0F	; 15
     5d6:	28 2f       	mov	r18, r24
     5d8:	20 7f       	andi	r18, 0xF0	; 240
     5da:	92 2b       	or	r25, r18
     5dc:	98 bb       	out	0x18, r25	; 24
     5de:	98 b3       	in	r25, 0x18	; 24
     5e0:	9e 7f       	andi	r25, 0xFE	; 254
     5e2:	98 bb       	out	0x18, r25	; 24
     5e4:	98 b3       	in	r25, 0x18	; 24
     5e6:	92 60       	ori	r25, 0x02	; 2
     5e8:	98 bb       	out	0x18, r25	; 24
     5ea:	32 e0       	ldi	r19, 0x02	; 2
     5ec:	3a 95       	dec	r19
     5ee:	f1 f7       	brne	.-4      	; 0x5ec <LCD_Command+0x1a>
     5f0:	00 c0       	rjmp	.+0      	; 0x5f2 <LCD_Command+0x20>
     5f2:	98 b3       	in	r25, 0x18	; 24
     5f4:	9d 7f       	andi	r25, 0xFD	; 253
     5f6:	98 bb       	out	0x18, r25	; 24
     5f8:	ef e8       	ldi	r30, 0x8F	; 143
     5fa:	f1 e0       	ldi	r31, 0x01	; 1
     5fc:	31 97       	sbiw	r30, 0x01	; 1
     5fe:	f1 f7       	brne	.-4      	; 0x5fc <LCD_Command+0x2a>
     600:	00 c0       	rjmp	.+0      	; 0x602 <LCD_Command+0x30>
     602:	00 00       	nop
     604:	28 b3       	in	r18, 0x18	; 24
     606:	f0 e1       	ldi	r31, 0x10	; 16
     608:	8f 9f       	mul	r24, r31
     60a:	c0 01       	movw	r24, r0
     60c:	11 24       	eor	r1, r1
     60e:	92 2f       	mov	r25, r18
     610:	9f 70       	andi	r25, 0x0F	; 15
     612:	89 2b       	or	r24, r25
     614:	88 bb       	out	0x18, r24	; 24
     616:	88 b3       	in	r24, 0x18	; 24
     618:	82 60       	ori	r24, 0x02	; 2
     61a:	88 bb       	out	0x18, r24	; 24
     61c:	32 e0       	ldi	r19, 0x02	; 2
     61e:	3a 95       	dec	r19
     620:	f1 f7       	brne	.-4      	; 0x61e <LCD_Command+0x4c>
     622:	00 c0       	rjmp	.+0      	; 0x624 <LCD_Command+0x52>
     624:	88 b3       	in	r24, 0x18	; 24
     626:	8d 7f       	andi	r24, 0xFD	; 253
     628:	88 bb       	out	0x18, r24	; 24
     62a:	8f e9       	ldi	r24, 0x9F	; 159
     62c:	9f e0       	ldi	r25, 0x0F	; 15
     62e:	01 97       	sbiw	r24, 0x01	; 1
     630:	f1 f7       	brne	.-4      	; 0x62e <LCD_Command+0x5c>
     632:	00 c0       	rjmp	.+0      	; 0x634 <LCD_Command+0x62>
     634:	00 00       	nop
     636:	08 95       	ret

00000638 <LCD_Char>:
     638:	98 b3       	in	r25, 0x18	; 24
     63a:	9f 70       	andi	r25, 0x0F	; 15
     63c:	28 2f       	mov	r18, r24
     63e:	20 7f       	andi	r18, 0xF0	; 240
     640:	92 2b       	or	r25, r18
     642:	98 bb       	out	0x18, r25	; 24
     644:	98 b3       	in	r25, 0x18	; 24
     646:	91 60       	ori	r25, 0x01	; 1
     648:	98 bb       	out	0x18, r25	; 24
     64a:	98 b3       	in	r25, 0x18	; 24
     64c:	92 60       	ori	r25, 0x02	; 2
     64e:	98 bb       	out	0x18, r25	; 24
     650:	32 e0       	ldi	r19, 0x02	; 2
     652:	3a 95       	dec	r19
     654:	f1 f7       	brne	.-4      	; 0x652 <LCD_Char+0x1a>
     656:	00 c0       	rjmp	.+0      	; 0x658 <LCD_Char+0x20>
     658:	98 b3       	in	r25, 0x18	; 24
     65a:	9d 7f       	andi	r25, 0xFD	; 253
     65c:	98 bb       	out	0x18, r25	; 24
     65e:	ef e8       	ldi	r30, 0x8F	; 143
     660:	f1 e0       	ldi	r31, 0x01	; 1
     662:	31 97       	sbiw	r30, 0x01	; 1
     664:	f1 f7       	brne	.-4      	; 0x662 <LCD_Char+0x2a>
     666:	00 c0       	rjmp	.+0      	; 0x668 <LCD_Char+0x30>
     668:	00 00       	nop
     66a:	28 b3       	in	r18, 0x18	; 24
     66c:	f0 e1       	ldi	r31, 0x10	; 16
     66e:	8f 9f       	mul	r24, r31
     670:	c0 01       	movw	r24, r0
     672:	11 24       	eor	r1, r1
     674:	92 2f       	mov	r25, r18
     676:	9f 70       	andi	r25, 0x0F	; 15
     678:	89 2b       	or	r24, r25
     67a:	88 bb       	out	0x18, r24	; 24
     67c:	88 b3       	in	r24, 0x18	; 24
     67e:	82 60       	ori	r24, 0x02	; 2
     680:	88 bb       	out	0x18, r24	; 24
     682:	32 e0       	ldi	r19, 0x02	; 2
     684:	3a 95       	dec	r19
     686:	f1 f7       	brne	.-4      	; 0x684 <LCD_Char+0x4c>
     688:	00 c0       	rjmp	.+0      	; 0x68a <LCD_Char+0x52>
     68a:	88 b3       	in	r24, 0x18	; 24
     68c:	8d 7f       	andi	r24, 0xFD	; 253
     68e:	88 bb       	out	0x18, r24	; 24
     690:	8f e9       	ldi	r24, 0x9F	; 159
     692:	9f e0       	ldi	r25, 0x0F	; 15
     694:	01 97       	sbiw	r24, 0x01	; 1
     696:	f1 f7       	brne	.-4      	; 0x694 <LCD_Char+0x5c>
     698:	00 c0       	rjmp	.+0      	; 0x69a <LCD_Char+0x62>
     69a:	00 00       	nop
     69c:	08 95       	ret

0000069e <LCD_Init>:
     69e:	8f ef       	ldi	r24, 0xFF	; 255
     6a0:	87 bb       	out	0x17, r24	; 23
     6a2:	8f e3       	ldi	r24, 0x3F	; 63
     6a4:	9c e9       	ldi	r25, 0x9C	; 156
     6a6:	01 97       	sbiw	r24, 0x01	; 1
     6a8:	f1 f7       	brne	.-4      	; 0x6a6 <LCD_Init+0x8>
     6aa:	00 c0       	rjmp	.+0      	; 0x6ac <LCD_Init+0xe>
     6ac:	00 00       	nop
     6ae:	83 e3       	ldi	r24, 0x33	; 51
     6b0:	0e 94 e9 02 	call	0x5d2	; 0x5d2 <LCD_Command>
     6b4:	82 e3       	ldi	r24, 0x32	; 50
     6b6:	0e 94 e9 02 	call	0x5d2	; 0x5d2 <LCD_Command>
     6ba:	88 e2       	ldi	r24, 0x28	; 40
     6bc:	0e 94 e9 02 	call	0x5d2	; 0x5d2 <LCD_Command>
     6c0:	8c e0       	ldi	r24, 0x0C	; 12
     6c2:	0e 94 e9 02 	call	0x5d2	; 0x5d2 <LCD_Command>
     6c6:	86 e0       	ldi	r24, 0x06	; 6
     6c8:	0e 94 e9 02 	call	0x5d2	; 0x5d2 <LCD_Command>
     6cc:	81 e0       	ldi	r24, 0x01	; 1
     6ce:	0e 94 e9 02 	call	0x5d2	; 0x5d2 <LCD_Command>
     6d2:	8f e9       	ldi	r24, 0x9F	; 159
     6d4:	9f e0       	ldi	r25, 0x0F	; 15
     6d6:	01 97       	sbiw	r24, 0x01	; 1
     6d8:	f1 f7       	brne	.-4      	; 0x6d6 <LCD_Init+0x38>
     6da:	00 c0       	rjmp	.+0      	; 0x6dc <LCD_Init+0x3e>
     6dc:	00 00       	nop
     6de:	80 e8       	ldi	r24, 0x80	; 128
     6e0:	0e 94 e9 02 	call	0x5d2	; 0x5d2 <LCD_Command>
     6e4:	08 95       	ret

000006e6 <LCD_String>:
     6e6:	0f 93       	push	r16
     6e8:	1f 93       	push	r17
     6ea:	cf 93       	push	r28
     6ec:	df 93       	push	r29
     6ee:	8c 01       	movw	r16, r24
     6f0:	c0 e0       	ldi	r28, 0x00	; 0
     6f2:	d0 e0       	ldi	r29, 0x00	; 0
     6f4:	03 c0       	rjmp	.+6      	; 0x6fc <LCD_String+0x16>
     6f6:	0e 94 1c 03 	call	0x638	; 0x638 <LCD_Char>
     6fa:	21 96       	adiw	r28, 0x01	; 1
     6fc:	f8 01       	movw	r30, r16
     6fe:	ec 0f       	add	r30, r28
     700:	fd 1f       	adc	r31, r29
     702:	80 81       	ld	r24, Z
     704:	81 11       	cpse	r24, r1
     706:	f7 cf       	rjmp	.-18     	; 0x6f6 <LCD_String+0x10>
     708:	df 91       	pop	r29
     70a:	cf 91       	pop	r28
     70c:	1f 91       	pop	r17
     70e:	0f 91       	pop	r16
     710:	08 95       	ret

00000712 <LCD_String_xy>:
     712:	cf 93       	push	r28
     714:	df 93       	push	r29
     716:	ea 01       	movw	r28, r20
     718:	81 11       	cpse	r24, r1
     71a:	08 c0       	rjmp	.+16     	; 0x72c <LCD_String_xy+0x1a>
     71c:	60 31       	cpi	r22, 0x10	; 16
     71e:	30 f4       	brcc	.+12     	; 0x72c <LCD_String_xy+0x1a>
     720:	86 2f       	mov	r24, r22
     722:	8f 70       	andi	r24, 0x0F	; 15
     724:	80 68       	ori	r24, 0x80	; 128
     726:	0e 94 e9 02 	call	0x5d2	; 0x5d2 <LCD_Command>
     72a:	09 c0       	rjmp	.+18     	; 0x73e <LCD_String_xy+0x2c>
     72c:	81 30       	cpi	r24, 0x01	; 1
     72e:	39 f4       	brne	.+14     	; 0x73e <LCD_String_xy+0x2c>
     730:	60 31       	cpi	r22, 0x10	; 16
     732:	28 f4       	brcc	.+10     	; 0x73e <LCD_String_xy+0x2c>
     734:	86 2f       	mov	r24, r22
     736:	8f 70       	andi	r24, 0x0F	; 15
     738:	80 6c       	ori	r24, 0xC0	; 192
     73a:	0e 94 e9 02 	call	0x5d2	; 0x5d2 <LCD_Command>
     73e:	ce 01       	movw	r24, r28
     740:	0e 94 73 03 	call	0x6e6	; 0x6e6 <LCD_String>
     744:	df 91       	pop	r29
     746:	cf 91       	pop	r28
     748:	08 95       	ret

0000074a <LCD_Clear>:
     74a:	81 e0       	ldi	r24, 0x01	; 1
     74c:	0e 94 e9 02 	call	0x5d2	; 0x5d2 <LCD_Command>
     750:	8f e9       	ldi	r24, 0x9F	; 159
     752:	9f e0       	ldi	r25, 0x0F	; 15
     754:	01 97       	sbiw	r24, 0x01	; 1
     756:	f1 f7       	brne	.-4      	; 0x754 <LCD_Clear+0xa>
     758:	00 c0       	rjmp	.+0      	; 0x75a <LCD_Clear+0x10>
     75a:	00 00       	nop
     75c:	80 e8       	ldi	r24, 0x80	; 128
     75e:	0e 94 e9 02 	call	0x5d2	; 0x5d2 <LCD_Command>
     762:	08 95       	ret

00000764 <isDriverSleepingIR>:
     764:	cf 93       	push	r28
     766:	df 93       	push	r29
     768:	0e 94 a5 03 	call	0x74a	; 0x74a <LCD_Clear>
     76c:	8a e6       	ldi	r24, 0x6A	; 106
     76e:	90 e0       	ldi	r25, 0x00	; 0
     770:	0e 94 73 03 	call	0x6e6	; 0x6e6 <LCD_String>
     774:	81 e0       	ldi	r24, 0x01	; 1
     776:	90 e0       	ldi	r25, 0x00	; 0
     778:	c0 e0       	ldi	r28, 0x00	; 0
     77a:	d0 e0       	ldi	r29, 0x00	; 0
     77c:	0f c0       	rjmp	.+30     	; 0x79c <isDriverSleepingIR+0x38>
     77e:	9e 9b       	sbis	0x13, 6	; 19
     780:	02 c0       	rjmp	.+4      	; 0x786 <isDriverSleepingIR+0x22>
     782:	21 96       	adiw	r28, 0x01	; 1
     784:	01 c0       	rjmp	.+2      	; 0x788 <isDriverSleepingIR+0x24>
     786:	21 97       	sbiw	r28, 0x01	; 1
     788:	2f e7       	ldi	r18, 0x7F	; 127
     78a:	38 e3       	ldi	r19, 0x38	; 56
     78c:	41 e0       	ldi	r20, 0x01	; 1
     78e:	21 50       	subi	r18, 0x01	; 1
     790:	30 40       	sbci	r19, 0x00	; 0
     792:	40 40       	sbci	r20, 0x00	; 0
     794:	e1 f7       	brne	.-8      	; 0x78e <isDriverSleepingIR+0x2a>
     796:	00 c0       	rjmp	.+0      	; 0x798 <isDriverSleepingIR+0x34>
     798:	00 00       	nop
     79a:	01 96       	adiw	r24, 0x01	; 1
     79c:	89 32       	cpi	r24, 0x29	; 41
     79e:	91 05       	cpc	r25, r1
     7a0:	74 f3       	brlt	.-36     	; 0x77e <isDriverSleepingIR+0x1a>
     7a2:	80 ec       	ldi	r24, 0xC0	; 192
     7a4:	0e 94 e9 02 	call	0x5d2	; 0x5d2 <LCD_Command>
     7a8:	88 e7       	ldi	r24, 0x78	; 120
     7aa:	90 e0       	ldi	r25, 0x00	; 0
     7ac:	0e 94 73 03 	call	0x6e6	; 0x6e6 <LCD_String>
     7b0:	a8 97       	sbiw	r28, 0x28	; 40
     7b2:	19 f4       	brne	.+6      	; 0x7ba <isDriverSleepingIR+0x56>
     7b4:	81 e0       	ldi	r24, 0x01	; 1
     7b6:	90 e0       	ldi	r25, 0x00	; 0
     7b8:	02 c0       	rjmp	.+4      	; 0x7be <isDriverSleepingIR+0x5a>
     7ba:	80 e0       	ldi	r24, 0x00	; 0
     7bc:	90 e0       	ldi	r25, 0x00	; 0
     7be:	df 91       	pop	r29
     7c0:	cf 91       	pop	r28
     7c2:	08 95       	ret

000007c4 <USART_Init>:
     7c4:	2a b1       	in	r18, 0x0a	; 10
     7c6:	28 69       	ori	r18, 0x98	; 152
     7c8:	2a b9       	out	0x0a, r18	; 10
     7ca:	20 b5       	in	r18, 0x20	; 32
     7cc:	26 68       	ori	r18, 0x86	; 134
     7ce:	20 bd       	out	0x20, r18	; 32
     7d0:	dc 01       	movw	r26, r24
     7d2:	cb 01       	movw	r24, r22
     7d4:	88 0f       	add	r24, r24
     7d6:	99 1f       	adc	r25, r25
     7d8:	aa 1f       	adc	r26, r26
     7da:	bb 1f       	adc	r27, r27
     7dc:	88 0f       	add	r24, r24
     7de:	99 1f       	adc	r25, r25
     7e0:	aa 1f       	adc	r26, r26
     7e2:	bb 1f       	adc	r27, r27
     7e4:	9c 01       	movw	r18, r24
     7e6:	ad 01       	movw	r20, r26
     7e8:	22 0f       	add	r18, r18
     7ea:	33 1f       	adc	r19, r19
     7ec:	44 1f       	adc	r20, r20
     7ee:	55 1f       	adc	r21, r21
     7f0:	22 0f       	add	r18, r18
     7f2:	33 1f       	adc	r19, r19
     7f4:	44 1f       	adc	r20, r20
     7f6:	55 1f       	adc	r21, r21
     7f8:	60 e0       	ldi	r22, 0x00	; 0
     7fa:	72 e1       	ldi	r23, 0x12	; 18
     7fc:	8a e7       	ldi	r24, 0x7A	; 122
     7fe:	90 e0       	ldi	r25, 0x00	; 0
     800:	0e 94 7d 0a 	call	0x14fa	; 0x14fa <__udivmodsi4>
     804:	8f ef       	ldi	r24, 0xFF	; 255
     806:	82 0f       	add	r24, r18
     808:	89 b9       	out	0x09, r24	; 9
     80a:	da 01       	movw	r26, r20
     80c:	c9 01       	movw	r24, r18
     80e:	01 97       	sbiw	r24, 0x01	; 1
     810:	a1 09       	sbc	r26, r1
     812:	b1 09       	sbc	r27, r1
     814:	89 2f       	mov	r24, r25
     816:	9a 2f       	mov	r25, r26
     818:	ab 2f       	mov	r26, r27
     81a:	bb 27       	eor	r27, r27
     81c:	80 bd       	out	0x20, r24	; 32
     81e:	08 95       	ret

00000820 <USART_TxChar>:
     820:	5d 9b       	sbis	0x0b, 5	; 11
     822:	fe cf       	rjmp	.-4      	; 0x820 <USART_TxChar>
     824:	8c b9       	out	0x0c, r24	; 12
     826:	08 95       	ret

00000828 <sendMessage>:
     828:	cf 92       	push	r12
     82a:	df 92       	push	r13
     82c:	ef 92       	push	r14
     82e:	ff 92       	push	r15
     830:	0f 93       	push	r16
     832:	1f 93       	push	r17
     834:	cf 93       	push	r28
     836:	df 93       	push	r29
     838:	cd b7       	in	r28, 0x3d	; 61
     83a:	de b7       	in	r29, 0x3e	; 62
     83c:	a3 97       	sbiw	r28, 0x23	; 35
     83e:	0f b6       	in	r0, 0x3f	; 63
     840:	f8 94       	cli
     842:	de bf       	out	0x3e, r29	; 62
     844:	0f be       	out	0x3f, r0	; 63
     846:	cd bf       	out	0x3d, r28	; 61
     848:	7c 01       	movw	r14, r24
     84a:	6a 01       	movw	r12, r20
     84c:	89 01       	movw	r16, r18
     84e:	81 e4       	ldi	r24, 0x41	; 65
     850:	94 e5       	ldi	r25, 0x54	; 84
     852:	9a 83       	std	Y+2, r25	; 0x02
     854:	89 83       	std	Y+1, r24	; 0x01
     856:	1c 82       	std	Y+4, r1	; 0x04
     858:	1b 82       	std	Y+3, r1	; 0x03
     85a:	8a e0       	ldi	r24, 0x0A	; 10
     85c:	e1 ee       	ldi	r30, 0xE1	; 225
     85e:	f0 e0       	ldi	r31, 0x00	; 0
     860:	de 01       	movw	r26, r28
     862:	15 96       	adiw	r26, 0x05	; 5
     864:	01 90       	ld	r0, Z+
     866:	0d 92       	st	X+, r0
     868:	8a 95       	dec	r24
     86a:	e1 f7       	brne	.-8      	; 0x864 <__stack+0x5>
     86c:	89 e0       	ldi	r24, 0x09	; 9
     86e:	e0 e6       	ldi	r30, 0x60	; 96
     870:	f0 e0       	ldi	r31, 0x00	; 0
     872:	de 01       	movw	r26, r28
     874:	1f 96       	adiw	r26, 0x0f	; 15
     876:	01 90       	ld	r0, Z+
     878:	0d 92       	st	X+, r0
     87a:	8a 95       	dec	r24
     87c:	e1 f7       	brne	.-8      	; 0x876 <__stack+0x17>
     87e:	18 8e       	std	Y+24, r1	; 0x18
     880:	d7 01       	movw	r26, r14
     882:	0d 90       	ld	r0, X+
     884:	00 20       	and	r0, r0
     886:	e9 f7       	brne	.-6      	; 0x882 <__stack+0x23>
     888:	11 97       	sbiw	r26, 0x01	; 1
     88a:	8c e1       	ldi	r24, 0x1C	; 28
     88c:	e4 e8       	ldi	r30, 0x84	; 132
     88e:	f0 e0       	ldi	r31, 0x00	; 0
     890:	01 90       	ld	r0, Z+
     892:	0d 92       	st	X+, r0
     894:	8a 95       	dec	r24
     896:	e1 f7       	brne	.-8      	; 0x890 <__stack+0x31>
     898:	c7 01       	movw	r24, r14
     89a:	0e 94 c3 0a 	call	0x1586	; 0x1586 <strcat>
     89e:	d7 01       	movw	r26, r14
     8a0:	0d 90       	ld	r0, X+
     8a2:	00 20       	and	r0, r0
     8a4:	e9 f7       	brne	.-6      	; 0x8a0 <__stack+0x41>
     8a6:	11 97       	sbiw	r26, 0x01	; 1
     8a8:	81 e1       	ldi	r24, 0x11	; 17
     8aa:	e0 ea       	ldi	r30, 0xA0	; 160
     8ac:	f0 e0       	ldi	r31, 0x00	; 0
     8ae:	01 90       	ld	r0, Z+
     8b0:	0d 92       	st	X+, r0
     8b2:	8a 95       	dec	r24
     8b4:	e1 f7       	brne	.-8      	; 0x8ae <__stack+0x4f>
     8b6:	b6 01       	movw	r22, r12
     8b8:	c7 01       	movw	r24, r14
     8ba:	0e 94 c3 0a 	call	0x1586	; 0x1586 <strcat>
     8be:	d7 01       	movw	r26, r14
     8c0:	0d 90       	ld	r0, X+
     8c2:	00 20       	and	r0, r0
     8c4:	e9 f7       	brne	.-6      	; 0x8c0 <__stack+0x61>
     8c6:	11 97       	sbiw	r26, 0x01	; 1
     8c8:	80 e1       	ldi	r24, 0x10	; 16
     8ca:	e1 eb       	ldi	r30, 0xB1	; 177
     8cc:	f0 e0       	ldi	r31, 0x00	; 0
     8ce:	01 90       	ld	r0, Z+
     8d0:	0d 92       	st	X+, r0
     8d2:	8a 95       	dec	r24
     8d4:	e1 f7       	brne	.-8      	; 0x8ce <__stack+0x6f>
     8d6:	b8 01       	movw	r22, r16
     8d8:	c7 01       	movw	r24, r14
     8da:	0e 94 c3 0a 	call	0x1586	; 0x1586 <strcat>
     8de:	8b e0       	ldi	r24, 0x0B	; 11
     8e0:	eb ee       	ldi	r30, 0xEB	; 235
     8e2:	f0 e0       	ldi	r31, 0x00	; 0
     8e4:	de 01       	movw	r26, r28
     8e6:	59 96       	adiw	r26, 0x19	; 25
     8e8:	01 90       	ld	r0, Z+
     8ea:	0d 92       	st	X+, r0
     8ec:	8a 95       	dec	r24
     8ee:	e1 f7       	brne	.-8      	; 0x8e8 <__stack+0x89>
     8f0:	0e 94 a5 03 	call	0x74a	; 0x74a <LCD_Clear>
     8f4:	41 ec       	ldi	r20, 0xC1	; 193
     8f6:	50 e0       	ldi	r21, 0x00	; 0
     8f8:	60 e0       	ldi	r22, 0x00	; 0
     8fa:	81 e0       	ldi	r24, 0x01	; 1
     8fc:	0e 94 89 03 	call	0x712	; 0x712 <LCD_String_xy>
     900:	80 ec       	ldi	r24, 0xC0	; 192
     902:	0e 94 e9 02 	call	0x5d2	; 0x5d2 <LCD_Command>
     906:	49 ec       	ldi	r20, 0xC9	; 201
     908:	50 e0       	ldi	r21, 0x00	; 0
     90a:	63 e0       	ldi	r22, 0x03	; 3
     90c:	82 e0       	ldi	r24, 0x02	; 2
     90e:	0e 94 89 03 	call	0x712	; 0x712 <LCD_String_xy>
     912:	2f ef       	ldi	r18, 0xFF	; 255
     914:	84 e3       	ldi	r24, 0x34	; 52
     916:	9c e0       	ldi	r25, 0x0C	; 12
     918:	21 50       	subi	r18, 0x01	; 1
     91a:	80 40       	sbci	r24, 0x00	; 0
     91c:	90 40       	sbci	r25, 0x00	; 0
     91e:	e1 f7       	brne	.-8      	; 0x918 <__stack+0xb9>
     920:	00 c0       	rjmp	.+0      	; 0x922 <__stack+0xc3>
     922:	00 00       	nop
     924:	00 e0       	ldi	r16, 0x00	; 0
     926:	10 e0       	ldi	r17, 0x00	; 0
     928:	0a c0       	rjmp	.+20     	; 0x93e <__stack+0xdf>
     92a:	0e 94 10 04 	call	0x820	; 0x820 <USART_TxChar>
     92e:	8f e0       	ldi	r24, 0x0F	; 15
     930:	97 e2       	ldi	r25, 0x27	; 39
     932:	01 97       	sbiw	r24, 0x01	; 1
     934:	f1 f7       	brne	.-4      	; 0x932 <__stack+0xd3>
     936:	00 c0       	rjmp	.+0      	; 0x938 <__stack+0xd9>
     938:	00 00       	nop
     93a:	0f 5f       	subi	r16, 0xFF	; 255
     93c:	1f 4f       	sbci	r17, 0xFF	; 255
     93e:	e1 e0       	ldi	r30, 0x01	; 1
     940:	f0 e0       	ldi	r31, 0x00	; 0
     942:	ec 0f       	add	r30, r28
     944:	fd 1f       	adc	r31, r29
     946:	e0 0f       	add	r30, r16
     948:	f1 1f       	adc	r31, r17
     94a:	80 81       	ld	r24, Z
     94c:	81 11       	cpse	r24, r1
     94e:	ed cf       	rjmp	.-38     	; 0x92a <__stack+0xcb>
     950:	8d e0       	ldi	r24, 0x0D	; 13
     952:	0e 94 10 04 	call	0x820	; 0x820 <USART_TxChar>
     956:	8f e0       	ldi	r24, 0x0F	; 15
     958:	97 e2       	ldi	r25, 0x27	; 39
     95a:	01 97       	sbiw	r24, 0x01	; 1
     95c:	f1 f7       	brne	.-4      	; 0x95a <__stack+0xfb>
     95e:	00 c0       	rjmp	.+0      	; 0x960 <__stack+0x101>
     960:	00 00       	nop
     962:	00 e0       	ldi	r16, 0x00	; 0
     964:	10 e0       	ldi	r17, 0x00	; 0
     966:	0a c0       	rjmp	.+20     	; 0x97c <__stack+0x11d>
     968:	0e 94 10 04 	call	0x820	; 0x820 <USART_TxChar>
     96c:	8f e0       	ldi	r24, 0x0F	; 15
     96e:	97 e2       	ldi	r25, 0x27	; 39
     970:	01 97       	sbiw	r24, 0x01	; 1
     972:	f1 f7       	brne	.-4      	; 0x970 <__stack+0x111>
     974:	00 c0       	rjmp	.+0      	; 0x976 <__stack+0x117>
     976:	00 00       	nop
     978:	0f 5f       	subi	r16, 0xFF	; 255
     97a:	1f 4f       	sbci	r17, 0xFF	; 255
     97c:	e5 e0       	ldi	r30, 0x05	; 5
     97e:	f0 e0       	ldi	r31, 0x00	; 0
     980:	ec 0f       	add	r30, r28
     982:	fd 1f       	adc	r31, r29
     984:	e0 0f       	add	r30, r16
     986:	f1 1f       	adc	r31, r17
     988:	80 81       	ld	r24, Z
     98a:	81 11       	cpse	r24, r1
     98c:	ed cf       	rjmp	.-38     	; 0x968 <__stack+0x109>
     98e:	8d e0       	ldi	r24, 0x0D	; 13
     990:	0e 94 10 04 	call	0x820	; 0x820 <USART_TxChar>
     994:	8f e0       	ldi	r24, 0x0F	; 15
     996:	97 e2       	ldi	r25, 0x27	; 39
     998:	01 97       	sbiw	r24, 0x01	; 1
     99a:	f1 f7       	brne	.-4      	; 0x998 <__stack+0x139>
     99c:	00 c0       	rjmp	.+0      	; 0x99e <__stack+0x13f>
     99e:	00 00       	nop
     9a0:	00 e0       	ldi	r16, 0x00	; 0
     9a2:	10 e0       	ldi	r17, 0x00	; 0
     9a4:	0a c0       	rjmp	.+20     	; 0x9ba <__stack+0x15b>
     9a6:	0e 94 10 04 	call	0x820	; 0x820 <USART_TxChar>
     9aa:	8f e0       	ldi	r24, 0x0F	; 15
     9ac:	97 e2       	ldi	r25, 0x27	; 39
     9ae:	01 97       	sbiw	r24, 0x01	; 1
     9b0:	f1 f7       	brne	.-4      	; 0x9ae <__stack+0x14f>
     9b2:	00 c0       	rjmp	.+0      	; 0x9b4 <__stack+0x155>
     9b4:	00 00       	nop
     9b6:	0f 5f       	subi	r16, 0xFF	; 255
     9b8:	1f 4f       	sbci	r17, 0xFF	; 255
     9ba:	ef e0       	ldi	r30, 0x0F	; 15
     9bc:	f0 e0       	ldi	r31, 0x00	; 0
     9be:	ec 0f       	add	r30, r28
     9c0:	fd 1f       	adc	r31, r29
     9c2:	e0 0f       	add	r30, r16
     9c4:	f1 1f       	adc	r31, r17
     9c6:	80 81       	ld	r24, Z
     9c8:	81 11       	cpse	r24, r1
     9ca:	ed cf       	rjmp	.-38     	; 0x9a6 <__stack+0x147>
     9cc:	82 e2       	ldi	r24, 0x22	; 34
     9ce:	8c b9       	out	0x0c, r24	; 12
     9d0:	9f ef       	ldi	r25, 0xFF	; 255
     9d2:	20 e7       	ldi	r18, 0x70	; 112
     9d4:	82 e0       	ldi	r24, 0x02	; 2
     9d6:	91 50       	subi	r25, 0x01	; 1
     9d8:	20 40       	sbci	r18, 0x00	; 0
     9da:	80 40       	sbci	r24, 0x00	; 0
     9dc:	e1 f7       	brne	.-8      	; 0x9d6 <__stack+0x177>
     9de:	00 c0       	rjmp	.+0      	; 0x9e0 <__stack+0x181>
     9e0:	00 00       	nop
     9e2:	00 e0       	ldi	r16, 0x00	; 0
     9e4:	10 e0       	ldi	r17, 0x00	; 0
     9e6:	0a c0       	rjmp	.+20     	; 0x9fc <__stack+0x19d>
     9e8:	0e 94 10 04 	call	0x820	; 0x820 <USART_TxChar>
     9ec:	8f e0       	ldi	r24, 0x0F	; 15
     9ee:	97 e2       	ldi	r25, 0x27	; 39
     9f0:	01 97       	sbiw	r24, 0x01	; 1
     9f2:	f1 f7       	brne	.-4      	; 0x9f0 <__stack+0x191>
     9f4:	00 c0       	rjmp	.+0      	; 0x9f6 <__stack+0x197>
     9f6:	00 00       	nop
     9f8:	0f 5f       	subi	r16, 0xFF	; 255
     9fa:	1f 4f       	sbci	r17, 0xFF	; 255
     9fc:	e9 e1       	ldi	r30, 0x19	; 25
     9fe:	f0 e0       	ldi	r31, 0x00	; 0
     a00:	ec 0f       	add	r30, r28
     a02:	fd 1f       	adc	r31, r29
     a04:	e0 0f       	add	r30, r16
     a06:	f1 1f       	adc	r31, r17
     a08:	80 81       	ld	r24, Z
     a0a:	81 11       	cpse	r24, r1
     a0c:	ed cf       	rjmp	.-38     	; 0x9e8 <__stack+0x189>
     a0e:	82 e2       	ldi	r24, 0x22	; 34
     a10:	8c b9       	out	0x0c, r24	; 12
     a12:	8f e0       	ldi	r24, 0x0F	; 15
     a14:	97 e2       	ldi	r25, 0x27	; 39
     a16:	01 97       	sbiw	r24, 0x01	; 1
     a18:	f1 f7       	brne	.-4      	; 0xa16 <__stack+0x1b7>
     a1a:	00 c0       	rjmp	.+0      	; 0xa1c <__stack+0x1bd>
     a1c:	00 00       	nop
     a1e:	8d e0       	ldi	r24, 0x0D	; 13
     a20:	8c b9       	out	0x0c, r24	; 12
     a22:	8f e0       	ldi	r24, 0x0F	; 15
     a24:	97 e2       	ldi	r25, 0x27	; 39
     a26:	01 97       	sbiw	r24, 0x01	; 1
     a28:	f1 f7       	brne	.-4      	; 0xa26 <__stack+0x1c7>
     a2a:	00 c0       	rjmp	.+0      	; 0xa2c <__stack+0x1cd>
     a2c:	00 00       	nop
     a2e:	00 e0       	ldi	r16, 0x00	; 0
     a30:	10 e0       	ldi	r17, 0x00	; 0
     a32:	0a c0       	rjmp	.+20     	; 0xa48 <__stack+0x1e9>
     a34:	0e 94 10 04 	call	0x820	; 0x820 <USART_TxChar>
     a38:	8f e0       	ldi	r24, 0x0F	; 15
     a3a:	97 e2       	ldi	r25, 0x27	; 39
     a3c:	01 97       	sbiw	r24, 0x01	; 1
     a3e:	f1 f7       	brne	.-4      	; 0xa3c <__stack+0x1dd>
     a40:	00 c0       	rjmp	.+0      	; 0xa42 <__stack+0x1e3>
     a42:	00 00       	nop
     a44:	0f 5f       	subi	r16, 0xFF	; 255
     a46:	1f 4f       	sbci	r17, 0xFF	; 255
     a48:	f7 01       	movw	r30, r14
     a4a:	e0 0f       	add	r30, r16
     a4c:	f1 1f       	adc	r31, r17
     a4e:	80 81       	ld	r24, Z
     a50:	81 11       	cpse	r24, r1
     a52:	f0 cf       	rjmp	.-32     	; 0xa34 <__stack+0x1d5>
     a54:	9f ef       	ldi	r25, 0xFF	; 255
     a56:	21 ee       	ldi	r18, 0xE1	; 225
     a58:	84 e0       	ldi	r24, 0x04	; 4
     a5a:	91 50       	subi	r25, 0x01	; 1
     a5c:	20 40       	sbci	r18, 0x00	; 0
     a5e:	80 40       	sbci	r24, 0x00	; 0
     a60:	e1 f7       	brne	.-8      	; 0xa5a <__stack+0x1fb>
     a62:	00 c0       	rjmp	.+0      	; 0xa64 <__stack+0x205>
     a64:	00 00       	nop
     a66:	0e 94 a5 03 	call	0x74a	; 0x74a <LCD_Clear>
     a6a:	44 ed       	ldi	r20, 0xD4	; 212
     a6c:	50 e0       	ldi	r21, 0x00	; 0
     a6e:	60 e0       	ldi	r22, 0x00	; 0
     a70:	81 e0       	ldi	r24, 0x01	; 1
     a72:	0e 94 89 03 	call	0x712	; 0x712 <LCD_String_xy>
     a76:	9f ef       	ldi	r25, 0xFF	; 255
     a78:	22 e5       	ldi	r18, 0x52	; 82
     a7a:	87 e0       	ldi	r24, 0x07	; 7
     a7c:	91 50       	subi	r25, 0x01	; 1
     a7e:	20 40       	sbci	r18, 0x00	; 0
     a80:	80 40       	sbci	r24, 0x00	; 0
     a82:	e1 f7       	brne	.-8      	; 0xa7c <__stack+0x21d>
     a84:	00 c0       	rjmp	.+0      	; 0xa86 <__stack+0x227>
     a86:	00 00       	nop
     a88:	0e 94 a5 03 	call	0x74a	; 0x74a <LCD_Clear>
     a8c:	a3 96       	adiw	r28, 0x23	; 35
     a8e:	0f b6       	in	r0, 0x3f	; 63
     a90:	f8 94       	cli
     a92:	de bf       	out	0x3e, r29	; 62
     a94:	0f be       	out	0x3f, r0	; 63
     a96:	cd bf       	out	0x3d, r28	; 61
     a98:	df 91       	pop	r29
     a9a:	cf 91       	pop	r28
     a9c:	1f 91       	pop	r17
     a9e:	0f 91       	pop	r16
     aa0:	ff 90       	pop	r15
     aa2:	ef 90       	pop	r14
     aa4:	df 90       	pop	r13
     aa6:	cf 90       	pop	r12
     aa8:	08 95       	ret

00000aaa <get_altitude>:
	sei(); //It is a macro that executes an assembler instruction to enable interrupts.

}

void get_altitude(uint16_t alt_pointer){  //unsigned 16-bit integer - integers between 0 and 65,535
	cli(); //Command Line Interface - CLIs accept as input commands that are entered by keyboard
     aaa:	f8 94       	cli
	uint8_t alt_index;  //unsigned 8-bit integer- integer has a range of 0 to 255
	uint8_t index = alt_pointer+1;
     aac:	8f 5f       	subi	r24, 0xFF	; 255
	alt_index=0;
     aae:	90 e0       	ldi	r25, 0x00	; 0
	/* parse Altitude in GGA string stored in buffer */
	for( ; GGA_Buffer[index]!=','; index++){
     ab0:	07 c0       	rjmp	.+14     	; 0xac0 <get_altitude+0x16>
		Altitude_Buffer[alt_index]= GGA_Buffer[index];
     ab2:	e9 2f       	mov	r30, r25
     ab4:	f0 e0       	ldi	r31, 0x00	; 0
     ab6:	e6 54       	subi	r30, 0x46	; 70
     ab8:	fd 4f       	sbci	r31, 0xFD	; 253
     aba:	20 83       	st	Z, r18
		alt_index++;
     abc:	9f 5f       	subi	r25, 0xFF	; 255
	cli(); //Command Line Interface - CLIs accept as input commands that are entered by keyboard
	uint8_t alt_index;  //unsigned 8-bit integer- integer has a range of 0 to 255
	uint8_t index = alt_pointer+1;
	alt_index=0;
	/* parse Altitude in GGA string stored in buffer */
	for( ; GGA_Buffer[index]!=','; index++){
     abe:	8f 5f       	subi	r24, 0xFF	; 255
     ac0:	48 2f       	mov	r20, r24
     ac2:	50 e0       	ldi	r21, 0x00	; 0
     ac4:	fa 01       	movw	r30, r20
     ac6:	e5 55       	subi	r30, 0x55	; 85
     ac8:	fe 4f       	sbci	r31, 0xFE	; 254
     aca:	20 81       	ld	r18, Z
     acc:	2c 32       	cpi	r18, 0x2C	; 44
     ace:	89 f7       	brne	.-30     	; 0xab2 <get_altitude+0x8>
		Altitude_Buffer[alt_index]= GGA_Buffer[index];
		alt_index++;
	}
	
	Altitude_Buffer[alt_index]   = GGA_Buffer[index+1];
     ad0:	e9 2f       	mov	r30, r25
     ad2:	f0 e0       	ldi	r31, 0x00	; 0
     ad4:	da 01       	movw	r26, r20
     ad6:	a4 55       	subi	r26, 0x54	; 84
     ad8:	be 4f       	sbci	r27, 0xFE	; 254
     ada:	8c 91       	ld	r24, X
     adc:	e6 54       	subi	r30, 0x46	; 70
     ade:	fd 4f       	sbci	r31, 0xFD	; 253
     ae0:	80 83       	st	Z, r24
	sei();//It is a macro that executes an assembler instruction to enable interrupts.
     ae2:	78 94       	sei
     ae4:	08 95       	ret

00000ae6 <convert_to_degrees_lat>:
}


void convert_to_degrees_lat(char *raw){
     ae6:	8f 92       	push	r8
     ae8:	9f 92       	push	r9
     aea:	af 92       	push	r10
     aec:	bf 92       	push	r11
     aee:	cf 92       	push	r12
     af0:	df 92       	push	r13
     af2:	ef 92       	push	r14
     af4:	ff 92       	push	r15
     af6:	0f 93       	push	r16
     af8:	1f 93       	push	r17
	float decimal_value,temp;
	
	int32_t degrees;
	
	float position;
	value = atof(raw); /* convert string into float for conversion */
     afa:	0e 94 bf 0a 	call	0x157e	; 0x157e <atof>
	
	/* convert raw latitude/longitude into degree format */
	decimal_value = (value/100);
     afe:	20 e0       	ldi	r18, 0x00	; 0
     b00:	30 e0       	ldi	r19, 0x00	; 0
     b02:	48 ec       	ldi	r20, 0xC8	; 200
     b04:	52 e4       	ldi	r21, 0x42	; 66
     b06:	0e 94 b1 08 	call	0x1162	; 0x1162 <__divsf3>
     b0a:	6b 01       	movw	r12, r22
     b0c:	7c 01       	movw	r14, r24
	degrees = (int)(decimal_value);
     b0e:	0e 94 23 09 	call	0x1246	; 0x1246 <__fixsfsi>
	temp = (decimal_value - (int)decimal_value)/0.6;
     b12:	07 2e       	mov	r0, r23
     b14:	00 0c       	add	r0, r0
     b16:	88 0b       	sbc	r24, r24
     b18:	99 0b       	sbc	r25, r25
     b1a:	0e 94 5b 09 	call	0x12b6	; 0x12b6 <__floatsisf>
     b1e:	4b 01       	movw	r8, r22
     b20:	5c 01       	movw	r10, r24
     b22:	9b 01       	movw	r18, r22
     b24:	ac 01       	movw	r20, r24
     b26:	c7 01       	movw	r24, r14
     b28:	b6 01       	movw	r22, r12
     b2a:	0e 94 3f 08 	call	0x107e	; 0x107e <__subsf3>
     b2e:	2a e9       	ldi	r18, 0x9A	; 154
     b30:	39 e9       	ldi	r19, 0x99	; 153
     b32:	49 e1       	ldi	r20, 0x19	; 25
     b34:	5f e3       	ldi	r21, 0x3F	; 63
     b36:	0e 94 b1 08 	call	0x1162	; 0x1162 <__divsf3>
     b3a:	9b 01       	movw	r18, r22
     b3c:	ac 01       	movw	r20, r24
	position = (float)degrees + temp;
     b3e:	c5 01       	movw	r24, r10
     b40:	b4 01       	movw	r22, r8
     b42:	0e 94 40 08 	call	0x1080	; 0x1080 <__addsf3>
	
	dtostrf(position, 6, 4, lat_degrees_buffer); /* dtostrf is a function that convert float value into string.Here the position is a float value and it convert as a string degree buffer variable*/
     b46:	06 ea       	ldi	r16, 0xA6	; 166
     b48:	12 e0       	ldi	r17, 0x02	; 2
     b4a:	24 e0       	ldi	r18, 0x04	; 4
     b4c:	46 e0       	ldi	r20, 0x06	; 6
     b4e:	0e 94 9f 0a 	call	0x153e	; 0x153e <dtostrf>
}
     b52:	1f 91       	pop	r17
     b54:	0f 91       	pop	r16
     b56:	ff 90       	pop	r15
     b58:	ef 90       	pop	r14
     b5a:	df 90       	pop	r13
     b5c:	cf 90       	pop	r12
     b5e:	bf 90       	pop	r11
     b60:	af 90       	pop	r10
     b62:	9f 90       	pop	r9
     b64:	8f 90       	pop	r8
     b66:	08 95       	ret

00000b68 <get_latitude>:
		i++;
	}
}

void get_latitude(uint16_t lat_pointer){  //unsigned 16-bit integer - integers between 0 and 65,535
	cli(); //Command Line Interface - CLIs accept as input commands that are entered by keyboard
     b68:	f8 94       	cli
	uint8_t lat_index; //unsigned 8-bit integer- integer has a range of 0 to 255
	uint8_t index = lat_pointer+1;//unsigned 8-bit integer- integer has a range of 0 to 255
     b6a:	8f 5f       	subi	r24, 0xFF	; 255
	lat_index=0;
     b6c:	90 e0       	ldi	r25, 0x00	; 0
	
	/* parse Latitude in GGA string stored in buffer */
	for(;GGA_Buffer[index]!=',';index++){
     b6e:	07 c0       	rjmp	.+14     	; 0xb7e <get_latitude+0x16>
		Latitude_Buffer[lat_index]= GGA_Buffer[index];
     b70:	e9 2f       	mov	r30, r25
     b72:	f0 e0       	ldi	r31, 0x00	; 0
     b74:	e1 58       	subi	r30, 0x81	; 129
     b76:	fd 4f       	sbci	r31, 0xFD	; 253
     b78:	20 83       	st	Z, r18
		lat_index++;
     b7a:	9f 5f       	subi	r25, 0xFF	; 255
	uint8_t lat_index; //unsigned 8-bit integer- integer has a range of 0 to 255
	uint8_t index = lat_pointer+1;//unsigned 8-bit integer- integer has a range of 0 to 255
	lat_index=0;
	
	/* parse Latitude in GGA string stored in buffer */
	for(;GGA_Buffer[index]!=',';index++){
     b7c:	8f 5f       	subi	r24, 0xFF	; 255
     b7e:	e8 2f       	mov	r30, r24
     b80:	f0 e0       	ldi	r31, 0x00	; 0
     b82:	e5 55       	subi	r30, 0x55	; 85
     b84:	fe 4f       	sbci	r31, 0xFE	; 254
     b86:	20 81       	ld	r18, Z
     b88:	2c 32       	cpi	r18, 0x2C	; 44
     b8a:	91 f7       	brne	.-28     	; 0xb70 <get_latitude+0x8>
		Latitude_Buffer[lat_index]= GGA_Buffer[index];
		lat_index++;
	}
	
	Latitude_Buffer[lat_index++] = GGA_Buffer[index++];
     b8c:	31 e0       	ldi	r19, 0x01	; 1
     b8e:	39 0f       	add	r19, r25
     b90:	e9 2f       	mov	r30, r25
     b92:	f0 e0       	ldi	r31, 0x00	; 0
     b94:	8f 5f       	subi	r24, 0xFF	; 255
     b96:	e1 58       	subi	r30, 0x81	; 129
     b98:	fd 4f       	sbci	r31, 0xFD	; 253
     b9a:	20 83       	st	Z, r18
	Latitude_Buffer[lat_index]= GGA_Buffer[index];		/* get direction */
     b9c:	23 2f       	mov	r18, r19
     b9e:	30 e0       	ldi	r19, 0x00	; 0
     ba0:	e8 2f       	mov	r30, r24
     ba2:	f0 e0       	ldi	r31, 0x00	; 0
     ba4:	e5 55       	subi	r30, 0x55	; 85
     ba6:	fe 4f       	sbci	r31, 0xFE	; 254
     ba8:	80 81       	ld	r24, Z
     baa:	f9 01       	movw	r30, r18
     bac:	e1 58       	subi	r30, 0x81	; 129
     bae:	fd 4f       	sbci	r31, 0xFD	; 253
     bb0:	80 83       	st	Z, r24
	convert_to_degrees_lat(Latitude_Buffer);   // convert raw latitude into degree format and pass that value as string
     bb2:	8f e7       	ldi	r24, 0x7F	; 127
     bb4:	92 e0       	ldi	r25, 0x02	; 2
     bb6:	0e 94 73 05 	call	0xae6	; 0xae6 <convert_to_degrees_lat>
	sei(); //It is a macro that executes an assembler instruction to enable interrupts.
     bba:	78 94       	sei
     bbc:	08 95       	ret

00000bbe <convert_to_degrees_long>:
	position = (float)degrees + temp;
	
	dtostrf(position, 6, 4, lat_degrees_buffer); /* dtostrf is a function that convert float value into string.Here the position is a float value and it convert as a string degree buffer variable*/
}

void convert_to_degrees_long(char *raw){
     bbe:	8f 92       	push	r8
     bc0:	9f 92       	push	r9
     bc2:	af 92       	push	r10
     bc4:	bf 92       	push	r11
     bc6:	cf 92       	push	r12
     bc8:	df 92       	push	r13
     bca:	ef 92       	push	r14
     bcc:	ff 92       	push	r15
     bce:	0f 93       	push	r16
     bd0:	1f 93       	push	r17
	float decimal_value,temp;
	
	int32_t degrees;
	
	float position;
	value = atof(raw); /* convert string into float for conversion */
     bd2:	0e 94 bf 0a 	call	0x157e	; 0x157e <atof>
	
	/* convert raw latitude/longitude into degree format */
	decimal_value = (value/100);
     bd6:	20 e0       	ldi	r18, 0x00	; 0
     bd8:	30 e0       	ldi	r19, 0x00	; 0
     bda:	48 ec       	ldi	r20, 0xC8	; 200
     bdc:	52 e4       	ldi	r21, 0x42	; 66
     bde:	0e 94 b1 08 	call	0x1162	; 0x1162 <__divsf3>
     be2:	6b 01       	movw	r12, r22
     be4:	7c 01       	movw	r14, r24
	degrees = (int)(decimal_value);
     be6:	0e 94 23 09 	call	0x1246	; 0x1246 <__fixsfsi>
	temp = (decimal_value - (int)decimal_value)/0.6;
     bea:	07 2e       	mov	r0, r23
     bec:	00 0c       	add	r0, r0
     bee:	88 0b       	sbc	r24, r24
     bf0:	99 0b       	sbc	r25, r25
     bf2:	0e 94 5b 09 	call	0x12b6	; 0x12b6 <__floatsisf>
     bf6:	4b 01       	movw	r8, r22
     bf8:	5c 01       	movw	r10, r24
     bfa:	9b 01       	movw	r18, r22
     bfc:	ac 01       	movw	r20, r24
     bfe:	c7 01       	movw	r24, r14
     c00:	b6 01       	movw	r22, r12
     c02:	0e 94 3f 08 	call	0x107e	; 0x107e <__subsf3>
     c06:	2a e9       	ldi	r18, 0x9A	; 154
     c08:	39 e9       	ldi	r19, 0x99	; 153
     c0a:	49 e1       	ldi	r20, 0x19	; 25
     c0c:	5f e3       	ldi	r21, 0x3F	; 63
     c0e:	0e 94 b1 08 	call	0x1162	; 0x1162 <__divsf3>
     c12:	9b 01       	movw	r18, r22
     c14:	ac 01       	movw	r20, r24
	position = (float)degrees + temp;
     c16:	c5 01       	movw	r24, r10
     c18:	b4 01       	movw	r22, r8
     c1a:	0e 94 40 08 	call	0x1080	; 0x1080 <__addsf3>
	
	dtostrf(position, 6, 4, long_degrees_buffer); /* dtostrf is a function that convert float value into string.Here the position is a float value and it convert as a string degree buffer variable*/
     c1e:	0d e4       	ldi	r16, 0x4D	; 77
     c20:	12 e0       	ldi	r17, 0x02	; 2
     c22:	24 e0       	ldi	r18, 0x04	; 4
     c24:	46 e0       	ldi	r20, 0x06	; 6
     c26:	0e 94 9f 0a 	call	0x153e	; 0x153e <dtostrf>
}
     c2a:	1f 91       	pop	r17
     c2c:	0f 91       	pop	r16
     c2e:	ff 90       	pop	r15
     c30:	ef 90       	pop	r14
     c32:	df 90       	pop	r13
     c34:	cf 90       	pop	r12
     c36:	bf 90       	pop	r11
     c38:	af 90       	pop	r10
     c3a:	9f 90       	pop	r9
     c3c:	8f 90       	pop	r8
     c3e:	08 95       	ret

00000c40 <get_longitude>:
	convert_to_degrees_lat(Latitude_Buffer);   // convert raw latitude into degree format and pass that value as string
	sei(); //It is a macro that executes an assembler instruction to enable interrupts.
}

void get_longitude(uint16_t long_pointer){
	cli(); //Command Line Interface - CLIs accept as input commands that are entered by keyboard
     c40:	f8 94       	cli
	uint8_t long_index;  //unsigned 8-bit integer- integer has a range of 0 to 255
	uint8_t index = long_pointer+1;
     c42:	8f 5f       	subi	r24, 0xFF	; 255
	long_index=0;
     c44:	90 e0       	ldi	r25, 0x00	; 0
	
	/* parse Longitude in GGA string stored in buffer */
	for( ; GGA_Buffer[index]!=','; index++){
     c46:	07 c0       	rjmp	.+14     	; 0xc56 <get_longitude+0x16>
		Longitude_Buffer[long_index]= GGA_Buffer[index];
     c48:	e9 2f       	mov	r30, r25
     c4a:	f0 e0       	ldi	r31, 0x00	; 0
     c4c:	ef 59       	subi	r30, 0x9F	; 159
     c4e:	fd 4f       	sbci	r31, 0xFD	; 253
     c50:	20 83       	st	Z, r18
		long_index++;
     c52:	9f 5f       	subi	r25, 0xFF	; 255
	uint8_t long_index;  //unsigned 8-bit integer- integer has a range of 0 to 255
	uint8_t index = long_pointer+1;
	long_index=0;
	
	/* parse Longitude in GGA string stored in buffer */
	for( ; GGA_Buffer[index]!=','; index++){
     c54:	8f 5f       	subi	r24, 0xFF	; 255
     c56:	e8 2f       	mov	r30, r24
     c58:	f0 e0       	ldi	r31, 0x00	; 0
     c5a:	e5 55       	subi	r30, 0x55	; 85
     c5c:	fe 4f       	sbci	r31, 0xFE	; 254
     c5e:	20 81       	ld	r18, Z
     c60:	2c 32       	cpi	r18, 0x2C	; 44
     c62:	91 f7       	brne	.-28     	; 0xc48 <get_longitude+0x8>
		Longitude_Buffer[long_index]= GGA_Buffer[index];
		long_index++;
	}
	
	Longitude_Buffer[long_index++] = GGA_Buffer[index++];
     c64:	31 e0       	ldi	r19, 0x01	; 1
     c66:	39 0f       	add	r19, r25
     c68:	e9 2f       	mov	r30, r25
     c6a:	f0 e0       	ldi	r31, 0x00	; 0
     c6c:	8f 5f       	subi	r24, 0xFF	; 255
     c6e:	ef 59       	subi	r30, 0x9F	; 159
     c70:	fd 4f       	sbci	r31, 0xFD	; 253
     c72:	20 83       	st	Z, r18
	Longitude_Buffer[long_index]   = GGA_Buffer[index]; /* get direction */
     c74:	23 2f       	mov	r18, r19
     c76:	30 e0       	ldi	r19, 0x00	; 0
     c78:	e8 2f       	mov	r30, r24
     c7a:	f0 e0       	ldi	r31, 0x00	; 0
     c7c:	e5 55       	subi	r30, 0x55	; 85
     c7e:	fe 4f       	sbci	r31, 0xFE	; 254
     c80:	80 81       	ld	r24, Z
     c82:	f9 01       	movw	r30, r18
     c84:	ef 59       	subi	r30, 0x9F	; 159
     c86:	fd 4f       	sbci	r31, 0xFD	; 253
     c88:	80 83       	st	Z, r24
	convert_to_degrees_long(Longitude_Buffer); // convert raw longitude into degree format and pass that value as string
     c8a:	81 e6       	ldi	r24, 0x61	; 97
     c8c:	92 e0       	ldi	r25, 0x02	; 2
     c8e:	0e 94 df 05 	call	0xbbe	; 0xbbe <convert_to_degrees_long>
	sei(); //It is a macro that executes an assembler instruction to enable interrupts.
     c92:	78 94       	sei
     c94:	08 95       	ret

00000c96 <sendLocation>:
	}else{
		return 0; 
	}
}

void sendLocation(char* message){
     c96:	0f 93       	push	r16
     c98:	1f 93       	push	r17
     c9a:	cf 93       	push	r28
     c9c:	df 93       	push	r29
     c9e:	8c 01       	movw	r16, r24
	get_latitude(GGA_Pointers[0]);
     ca0:	c2 e9       	ldi	r28, 0x92	; 146
     ca2:	d2 e0       	ldi	r29, 0x02	; 2
     ca4:	88 81       	ld	r24, Y
     ca6:	90 e0       	ldi	r25, 0x00	; 0
     ca8:	0e 94 b4 05 	call	0xb68	; 0xb68 <get_latitude>
	char* lat=lat_degrees_buffer;
	get_longitude(GGA_Pointers[2]);
     cac:	8a 81       	ldd	r24, Y+2	; 0x02
     cae:	90 e0       	ldi	r25, 0x00	; 0
     cb0:	0e 94 20 06 	call	0xc40	; 0xc40 <get_longitude>
	char* lngtd=long_degrees_buffer;
	get_altitude(GGA_Pointers[7]);
     cb4:	8f 81       	ldd	r24, Y+7	; 0x07
     cb6:	90 e0       	ldi	r25, 0x00	; 0
     cb8:	0e 94 55 05 	call	0xaaa	; 0xaaa <get_altitude>
	char* altitude=Altitude_Buffer;
	PORTD=0x08;// change signal using mux
     cbc:	88 e0       	ldi	r24, 0x08	; 8
     cbe:	82 bb       	out	0x12, r24	; 18
	sendMessage(message,lat,lngtd,altitude);
     cc0:	2a eb       	ldi	r18, 0xBA	; 186
     cc2:	32 e0       	ldi	r19, 0x02	; 2
     cc4:	4d e4       	ldi	r20, 0x4D	; 77
     cc6:	52 e0       	ldi	r21, 0x02	; 2
     cc8:	66 ea       	ldi	r22, 0xA6	; 166
     cca:	72 e0       	ldi	r23, 0x02	; 2
     ccc:	c8 01       	movw	r24, r16
     cce:	0e 94 14 04 	call	0x828	; 0x828 <sendMessage>
	PORTD=0x00;// turn back to normal
     cd2:	12 ba       	out	0x12, r1	; 18
}
     cd4:	df 91       	pop	r29
     cd6:	cf 91       	pop	r28
     cd8:	1f 91       	pop	r17
     cda:	0f 91       	pop	r16
     cdc:	08 95       	ret

00000cde <main>:
char long_degrees_buffer[degrees_buffer_size];
char GGA_Buffer[Buffer_Size];
float Acc_x,Acc_y,Acc_z,Temperature,Gyro_x,Gyro_y,Gyro_z;

int main(void){
	DDRD=0xE8;
     cde:	88 ee       	ldi	r24, 0xE8	; 232
     ce0:	81 bb       	out	0x11, r24	; 17
	PORTD=0x04;
     ce2:	84 e0       	ldi	r24, 0x04	; 4
     ce4:	82 bb       	out	0x12, r24	; 18
	LCD_Init();
     ce6:	0e 94 4f 03 	call	0x69e	; 0x69e <LCD_Init>
	LCD_String("Initializing..");
     cea:	86 ef       	ldi	r24, 0xF6	; 246
     cec:	90 e0       	ldi	r25, 0x00	; 0
     cee:	0e 94 73 03 	call	0x6e6	; 0x6e6 <LCD_String>
	#else
		//round up by default
		__ticks_dc = (uint32_t)(ceil(fabs(__tmp)));
	#endif

	__builtin_avr_delay_cycles(__ticks_dc);
     cf2:	2f e7       	ldi	r18, 0x7F	; 127
     cf4:	88 e3       	ldi	r24, 0x38	; 56
     cf6:	91 e0       	ldi	r25, 0x01	; 1
     cf8:	21 50       	subi	r18, 0x01	; 1
     cfa:	80 40       	sbci	r24, 0x00	; 0
     cfc:	90 40       	sbci	r25, 0x00	; 0
     cfe:	e1 f7       	brne	.-8      	; 0xcf8 <main+0x1a>
     d00:	00 c0       	rjmp	.+0      	; 0xd02 <main+0x24>
     d02:	00 00       	nop
	_delay_ms(50);
	LCD_Clear();
     d04:	0e 94 a5 03 	call	0x74a	; 0x74a <LCD_Clear>
	I2C_Init();
     d08:	0e 94 19 01 	call	0x232	; 0x232 <I2C_Init>
	MPU6050_Init();
     d0c:	0e 94 7a 01 	call	0x2f4	; 0x2f4 <MPU6050_Init>
	PWM_init();
     d10:	0e 94 13 01 	call	0x226	; 0x226 <PWM_init>
	GGA_Index=0;
     d14:	10 92 7b 02 	sts	0x027B, r1	; 0x80027b <GGA_Index+0x1>
     d18:	10 92 7a 02 	sts	0x027A, r1	; 0x80027a <GGA_Index>
	USART_Init(9600);
     d1c:	60 e8       	ldi	r22, 0x80	; 128
     d1e:	75 e2       	ldi	r23, 0x25	; 37
     d20:	80 e0       	ldi	r24, 0x00	; 0
     d22:	90 e0       	ldi	r25, 0x00	; 0
     d24:	0e 94 e2 03 	call	0x7c4	; 0x7c4 <USART_Init>
	sei();
     d28:	78 94       	sei
	LCD_String("Welcome");
     d2a:	85 e0       	ldi	r24, 0x05	; 5
     d2c:	91 e0       	ldi	r25, 0x01	; 1
     d2e:	0e 94 73 03 	call	0x6e6	; 0x6e6 <LCD_String>
     d32:	2f ef       	ldi	r18, 0xFF	; 255
     d34:	8d e3       	ldi	r24, 0x3D	; 61
     d36:	99 e4       	ldi	r25, 0x49	; 73
     d38:	21 50       	subi	r18, 0x01	; 1
     d3a:	80 40       	sbci	r24, 0x00	; 0
     d3c:	90 40       	sbci	r25, 0x00	; 0
     d3e:	e1 f7       	brne	.-8      	; 0xd38 <main+0x5a>
     d40:	00 c0       	rjmp	.+0      	; 0xd42 <main+0x64>
     d42:	00 00       	nop
	_delay_ms(3000);
	LCD_Clear();
     d44:	0e 94 a5 03 	call	0x74a	; 0x74a <LCD_Clear>
	float Xa,Ya,Za; // for gyroscope
	while (1){
		//flame detection
		if(pinRead(PINC,flame)==0x10){
     d48:	9c 9b       	sbis	0x13, 4	; 19
     d4a:	1e c0       	rjmp	.+60     	; 0xd88 <main+0xaa>
			LCD_Clear();
     d4c:	0e 94 a5 03 	call	0x74a	; 0x74a <LCD_Clear>
			LCD_String("Flame Detected !");
     d50:	8d e0       	ldi	r24, 0x0D	; 13
     d52:	91 e0       	ldi	r25, 0x01	; 1
     d54:	0e 94 73 03 	call	0x6e6	; 0x6e6 <LCD_String>
			ringAlarm();
     d58:	0e 94 e4 00 	call	0x1c8	; 0x1c8 <ringAlarm>
			onHazardLight();
     d5c:	0e 94 ec 00 	call	0x1d8	; 0x1d8 <onHazardLight>
     d60:	2f ef       	ldi	r18, 0xFF	; 255
     d62:	84 e3       	ldi	r24, 0x34	; 52
     d64:	9c e0       	ldi	r25, 0x0C	; 12
     d66:	21 50       	subi	r18, 0x01	; 1
     d68:	80 40       	sbci	r24, 0x00	; 0
     d6a:	90 40       	sbci	r25, 0x00	; 0
     d6c:	e1 f7       	brne	.-8      	; 0xd66 <main+0x88>
     d6e:	00 c0       	rjmp	.+0      	; 0xd70 <main+0x92>
     d70:	00 00       	nop
			_delay_ms(500);
			stopAlarm();
     d72:	0e 94 e8 00 	call	0x1d0	; 0x1d0 <stopAlarm>
			offHazardLight();
     d76:	0e 94 f0 00 	call	0x1e0	; 0x1e0 <offHazardLight>
			LCD_Clear();
     d7a:	0e 94 a5 03 	call	0x74a	; 0x74a <LCD_Clear>
			sendLocation("Flame is Detected");
     d7e:	8e e1       	ldi	r24, 0x1E	; 30
     d80:	91 e0       	ldi	r25, 0x01	; 1
     d82:	0e 94 4b 06 	call	0xc96	; 0xc96 <sendLocation>
     d86:	e0 cf       	rjmp	.-64     	; 0xd48 <main+0x6a>
		}
		else{
			ADC_Init();
     d88:	0e 94 f8 00 	call	0x1f0	; 0x1f0 <ADC_Init>
			int value = ADC_Read(1);
     d8c:	81 e0       	ldi	r24, 0x01	; 1
     d8e:	0e 94 fe 00 	call	0x1fc	; 0x1fc <ADC_Read>
			if (value > 109){// if value gt 109 vehicle is moving
     d92:	8e 36       	cpi	r24, 0x6E	; 110
     d94:	91 05       	cpc	r25, r1
     d96:	0c f4       	brge	.+2      	; 0xd9a <main+0xbc>
     d98:	d3 c0       	rjmp	.+422    	; 0xf40 <main+0x262>
				int val=ADC_Read(0);
     d9a:	80 e0       	ldi	r24, 0x00	; 0
     d9c:	0e 94 fe 00 	call	0x1fc	; 0x1fc <ADC_Read>
				float speed=(val/1024.0)*255.0;
     da0:	bc 01       	movw	r22, r24
     da2:	99 0f       	add	r25, r25
     da4:	88 0b       	sbc	r24, r24
     da6:	99 0b       	sbc	r25, r25
     da8:	0e 94 5b 09 	call	0x12b6	; 0x12b6 <__floatsisf>
     dac:	20 e0       	ldi	r18, 0x00	; 0
     dae:	30 e0       	ldi	r19, 0x00	; 0
     db0:	40 e8       	ldi	r20, 0x80	; 128
     db2:	5a e3       	ldi	r21, 0x3A	; 58
     db4:	0e 94 10 0a 	call	0x1420	; 0x1420 <__mulsf3>
     db8:	20 e0       	ldi	r18, 0x00	; 0
     dba:	30 e0       	ldi	r19, 0x00	; 0
     dbc:	4f e7       	ldi	r20, 0x7F	; 127
     dbe:	53 e4       	ldi	r21, 0x43	; 67
     dc0:	0e 94 10 0a 	call	0x1420	; 0x1420 <__mulsf3>
				OCR0=(int)speed;
     dc4:	0e 94 23 09 	call	0x1246	; 0x1246 <__fixsfsi>
     dc8:	6c bf       	out	0x3c, r22	; 60
				LCD_Clear();
     dca:	0e 94 a5 03 	call	0x74a	; 0x74a <LCD_Clear>
				LCD_String("Driving mode");
     dce:	80 e3       	ldi	r24, 0x30	; 48
     dd0:	91 e0       	ldi	r25, 0x01	; 1
     dd2:	0e 94 73 03 	call	0x6e6	; 0x6e6 <LCD_String>
				if(pinRead(PINC,alcohol)==0x20){
     dd6:	9d 9b       	sbis	0x13, 5	; 19
     dd8:	1a c0       	rjmp	.+52     	; 0xe0e <main+0x130>
					LCD_Clear();
     dda:	0e 94 a5 03 	call	0x74a	; 0x74a <LCD_Clear>
					LCD_String("Alcohol Detected");
     dde:	8d e3       	ldi	r24, 0x3D	; 61
     de0:	91 e0       	ldi	r25, 0x01	; 1
     de2:	0e 94 73 03 	call	0x6e6	; 0x6e6 <LCD_String>
					ringAlarm();
     de6:	0e 94 e4 00 	call	0x1c8	; 0x1c8 <ringAlarm>
     dea:	2f ef       	ldi	r18, 0xFF	; 255
     dec:	80 e7       	ldi	r24, 0x70	; 112
     dee:	92 e0       	ldi	r25, 0x02	; 2
     df0:	21 50       	subi	r18, 0x01	; 1
     df2:	80 40       	sbci	r24, 0x00	; 0
     df4:	90 40       	sbci	r25, 0x00	; 0
     df6:	e1 f7       	brne	.-8      	; 0xdf0 <main+0x112>
     df8:	00 c0       	rjmp	.+0      	; 0xdfa <main+0x11c>
     dfa:	00 00       	nop
					_delay_ms(100);
					stopAlarm();
     dfc:	0e 94 e8 00 	call	0x1d0	; 0x1d0 <stopAlarm>
					LCD_Clear();
     e00:	0e 94 a5 03 	call	0x74a	; 0x74a <LCD_Clear>
					sendLocation("Alcohol Detected");
     e04:	8d e3       	ldi	r24, 0x3D	; 61
     e06:	91 e0       	ldi	r25, 0x01	; 1
     e08:	0e 94 4b 06 	call	0xc96	; 0xc96 <sendLocation>
     e0c:	9d cf       	rjmp	.-198    	; 0xd48 <main+0x6a>
				}
				else{
					Read_RawValue();
     e0e:	0e 94 c5 01 	call	0x38a	; 0x38a <Read_RawValue>
					Xa = (Acc_x/16384.0)*9.8066;
     e12:	20 e0       	ldi	r18, 0x00	; 0
     e14:	30 e0       	ldi	r19, 0x00	; 0
     e16:	40 e8       	ldi	r20, 0x80	; 128
     e18:	58 e3       	ldi	r21, 0x38	; 56
     e1a:	60 91 74 02 	lds	r22, 0x0274	; 0x800274 <Acc_x>
     e1e:	70 91 75 02 	lds	r23, 0x0275	; 0x800275 <Acc_x+0x1>
     e22:	80 91 76 02 	lds	r24, 0x0276	; 0x800276 <Acc_x+0x2>
     e26:	90 91 77 02 	lds	r25, 0x0277	; 0x800277 <Acc_x+0x3>
     e2a:	0e 94 10 0a 	call	0x1420	; 0x1420 <__mulsf3>
     e2e:	25 ed       	ldi	r18, 0xD5	; 213
     e30:	37 ee       	ldi	r19, 0xE7	; 231
     e32:	4c e1       	ldi	r20, 0x1C	; 28
     e34:	51 e4       	ldi	r21, 0x41	; 65
     e36:	0e 94 10 0a 	call	0x1420	; 0x1420 <__mulsf3>
     e3a:	4b 01       	movw	r8, r22
     e3c:	5c 01       	movw	r10, r24
					Ya = (Acc_y/16384.0)*9.8066;
     e3e:	20 e0       	ldi	r18, 0x00	; 0
     e40:	30 e0       	ldi	r19, 0x00	; 0
     e42:	40 e8       	ldi	r20, 0x80	; 128
     e44:	58 e3       	ldi	r21, 0x38	; 56
     e46:	60 91 49 02 	lds	r22, 0x0249	; 0x800249 <Acc_y>
     e4a:	70 91 4a 02 	lds	r23, 0x024A	; 0x80024a <Acc_y+0x1>
     e4e:	80 91 4b 02 	lds	r24, 0x024B	; 0x80024b <Acc_y+0x2>
     e52:	90 91 4c 02 	lds	r25, 0x024C	; 0x80024c <Acc_y+0x3>
     e56:	0e 94 10 0a 	call	0x1420	; 0x1420 <__mulsf3>
     e5a:	25 ed       	ldi	r18, 0xD5	; 213
     e5c:	37 ee       	ldi	r19, 0xE7	; 231
     e5e:	4c e1       	ldi	r20, 0x1C	; 28
     e60:	51 e4       	ldi	r21, 0x41	; 65
     e62:	0e 94 10 0a 	call	0x1420	; 0x1420 <__mulsf3>
     e66:	2b 01       	movw	r4, r22
     e68:	3c 01       	movw	r6, r24
					Za = (Acc_z/16384.0)*9.8066;
     e6a:	20 e0       	ldi	r18, 0x00	; 0
     e6c:	30 e0       	ldi	r19, 0x00	; 0
     e6e:	40 e8       	ldi	r20, 0x80	; 128
     e70:	58 e3       	ldi	r21, 0x38	; 56
     e72:	60 91 a7 01 	lds	r22, 0x01A7	; 0x8001a7 <Acc_z>
     e76:	70 91 a8 01 	lds	r23, 0x01A8	; 0x8001a8 <Acc_z+0x1>
     e7a:	80 91 a9 01 	lds	r24, 0x01A9	; 0x8001a9 <Acc_z+0x2>
     e7e:	90 91 aa 01 	lds	r25, 0x01AA	; 0x8001aa <Acc_z+0x3>
     e82:	0e 94 10 0a 	call	0x1420	; 0x1420 <__mulsf3>
     e86:	25 ed       	ldi	r18, 0xD5	; 213
     e88:	37 ee       	ldi	r19, 0xE7	; 231
     e8a:	4c e1       	ldi	r20, 0x1C	; 28
     e8c:	51 e4       	ldi	r21, 0x41	; 65
     e8e:	0e 94 10 0a 	call	0x1420	; 0x1420 <__mulsf3>
     e92:	6b 01       	movw	r12, r22
     e94:	7c 01       	movw	r14, r24
					if(isDriverSleepingIR() && isDriverSleepingGyro(Xa,Ya,Za)){
     e96:	0e 94 b2 03 	call	0x764	; 0x764 <isDriverSleepingIR>
     e9a:	89 2b       	or	r24, r25
     e9c:	09 f4       	brne	.+2      	; 0xea0 <main+0x1c2>
     e9e:	54 cf       	rjmp	.-344    	; 0xd48 <main+0x6a>
     ea0:	87 01       	movw	r16, r14
     ea2:	76 01       	movw	r14, r12
     ea4:	a3 01       	movw	r20, r6
     ea6:	92 01       	movw	r18, r4
     ea8:	c5 01       	movw	r24, r10
     eaa:	b4 01       	movw	r22, r8
     eac:	0e 94 76 02 	call	0x4ec	; 0x4ec <isDriverSleepingGyro>
     eb0:	89 2b       	or	r24, r25
     eb2:	09 f4       	brne	.+2      	; 0xeb6 <main+0x1d8>
     eb4:	49 cf       	rjmp	.-366    	; 0xd48 <main+0x6a>
						LCD_Clear();
     eb6:	0e 94 a5 03 	call	0x74a	; 0x74a <LCD_Clear>
						LCD_String("Sleeping");
     eba:	87 e8       	ldi	r24, 0x87	; 135
     ebc:	91 e0       	ldi	r25, 0x01	; 1
     ebe:	0e 94 73 03 	call	0x6e6	; 0x6e6 <LCD_String>
						ringAlarm();
     ec2:	0e 94 e4 00 	call	0x1c8	; 0x1c8 <ringAlarm>
						onHazardLight();
     ec6:	0e 94 ec 00 	call	0x1d8	; 0x1d8 <onHazardLight>
						LCD_Command(0xc0);
     eca:	80 ec       	ldi	r24, 0xC0	; 192
     ecc:	0e 94 e9 02 	call	0x5d2	; 0x5d2 <LCD_Command>
						LCD_String("Waiting..");
     ed0:	8e e4       	ldi	r24, 0x4E	; 78
     ed2:	91 e0       	ldi	r25, 0x01	; 1
     ed4:	0e 94 73 03 	call	0x6e6	; 0x6e6 <LCD_String>
						GICR = 1<<INT0;		/* Enable INT0*/
     ed8:	80 e4       	ldi	r24, 0x40	; 64
     eda:	8b bf       	out	0x3b, r24	; 59
						MCUCR = 1<<ISC01 | 1<<ISC00;  /* Trigger INT0 on rising edge */
     edc:	83 e0       	ldi	r24, 0x03	; 3
     ede:	85 bf       	out	0x35, r24	; 53
						sei();			/* Enable Global Interrupt */
     ee0:	78 94       	sei
     ee2:	2f ef       	ldi	r18, 0xFF	; 255
     ee4:	81 e1       	ldi	r24, 0x11	; 17
     ee6:	9a e7       	ldi	r25, 0x7A	; 122
     ee8:	21 50       	subi	r18, 0x01	; 1
     eea:	80 40       	sbci	r24, 0x00	; 0
     eec:	90 40       	sbci	r25, 0x00	; 0
     eee:	e1 f7       	brne	.-8      	; 0xee8 <main+0x20a>
     ef0:	00 c0       	rjmp	.+0      	; 0xef2 <main+0x214>
     ef2:	00 00       	nop
						_delay_ms(5000);
						LCD_Clear();
     ef4:	0e 94 a5 03 	call	0x74a	; 0x74a <LCD_Clear>
						LCD_String("Waiting");
     ef8:	88 e5       	ldi	r24, 0x58	; 88
     efa:	91 e0       	ldi	r25, 0x01	; 1
     efc:	0e 94 73 03 	call	0x6e6	; 0x6e6 <LCD_String>
						LCD_Command(0xc0);
     f00:	80 ec       	ldi	r24, 0xC0	; 192
     f02:	0e 94 e9 02 	call	0x5d2	; 0x5d2 <LCD_Command>
						LCD_String("Complete");
     f06:	80 e6       	ldi	r24, 0x60	; 96
     f08:	91 e0       	ldi	r25, 0x01	; 1
     f0a:	0e 94 73 03 	call	0x6e6	; 0x6e6 <LCD_String>
						offHazardLight();
     f0e:	0e 94 f0 00 	call	0x1e0	; 0x1e0 <offHazardLight>
						stopAlarm();
     f12:	0e 94 e8 00 	call	0x1d0	; 0x1d0 <stopAlarm>
						OCR0=0;
     f16:	1c be       	out	0x3c, r1	; 60
						LCD_Clear();
     f18:	0e 94 a5 03 	call	0x74a	; 0x74a <LCD_Clear>
						LCD_String("Speed is");
     f1c:	89 e6       	ldi	r24, 0x69	; 105
     f1e:	91 e0       	ldi	r25, 0x01	; 1
     f20:	0e 94 73 03 	call	0x6e6	; 0x6e6 <LCD_String>
						LCD_Command(0xc0);
     f24:	80 ec       	ldi	r24, 0xC0	; 192
     f26:	0e 94 e9 02 	call	0x5d2	; 0x5d2 <LCD_Command>
						LCD_String("Reducing..");
     f2a:	82 e7       	ldi	r24, 0x72	; 114
     f2c:	91 e0       	ldi	r25, 0x01	; 1
     f2e:	0e 94 73 03 	call	0x6e6	; 0x6e6 <LCD_String>
						sendLocation("Driver is Sleeping");
     f32:	8d e7       	ldi	r24, 0x7D	; 125
     f34:	91 e0       	ldi	r25, 0x01	; 1
     f36:	0e 94 4b 06 	call	0xc96	; 0xc96 <sendLocation>
						playRadio();
     f3a:	0e 94 f4 00 	call	0x1e8	; 0x1e8 <playRadio>
     f3e:	ff cf       	rjmp	.-2      	; 0xf3e <main+0x260>
						while(1){}//let motor to slowdown fully
					}
				}
				}else{
				LCD_String("Vehicle is");
     f40:	80 e9       	ldi	r24, 0x90	; 144
     f42:	91 e0       	ldi	r25, 0x01	; 1
     f44:	0e 94 73 03 	call	0x6e6	; 0x6e6 <LCD_String>
				LCD_Command(0xc0);
     f48:	80 ec       	ldi	r24, 0xC0	; 192
     f4a:	0e 94 e9 02 	call	0x5d2	; 0x5d2 <LCD_Command>
				LCD_String("not moving");
     f4e:	8b e9       	ldi	r24, 0x9B	; 155
     f50:	91 e0       	ldi	r25, 0x01	; 1
     f52:	0e 94 73 03 	call	0x6e6	; 0x6e6 <LCD_String>
     f56:	2f e7       	ldi	r18, 0x7F	; 127
     f58:	88 e3       	ldi	r24, 0x38	; 56
     f5a:	91 e0       	ldi	r25, 0x01	; 1
     f5c:	21 50       	subi	r18, 0x01	; 1
     f5e:	80 40       	sbci	r24, 0x00	; 0
     f60:	90 40       	sbci	r25, 0x00	; 0
     f62:	e1 f7       	brne	.-8      	; 0xf5c <main+0x27e>
     f64:	00 c0       	rjmp	.+0      	; 0xf66 <main+0x288>
     f66:	00 00       	nop
				_delay_ms(50);
				LCD_Clear();
     f68:	0e 94 a5 03 	call	0x74a	; 0x74a <LCD_Clear>
     f6c:	ed ce       	rjmp	.-550    	; 0xd48 <main+0x6a>

00000f6e <__vector_1>:
void ringAlarm(){
	portHigh(PORTD,buzzer);//buzzer
}

ISR(INT0_vect)
{
     f6e:	1f 92       	push	r1
     f70:	0f 92       	push	r0
     f72:	0f b6       	in	r0, 0x3f	; 63
     f74:	0f 92       	push	r0
     f76:	11 24       	eor	r1, r1
	LCD_Clear();
     f78:	0e 94 a5 03 	call	0x74a	; 0x74a <LCD_Clear>
	portLow(PORTD,6);
     f7c:	82 b3       	in	r24, 0x12	; 18
     f7e:	8f 7b       	andi	r24, 0xBF	; 191
     f80:	82 bb       	out	0x12, r24	; 18
	portLow(PORTD,7);
     f82:	82 b3       	in	r24, 0x12	; 18
     f84:	8f 77       	andi	r24, 0x7F	; 127
     f86:	82 bb       	out	0x12, r24	; 18
     f88:	2f e7       	ldi	r18, 0x7F	; 127
     f8a:	88 e3       	ldi	r24, 0x38	; 56
     f8c:	91 e0       	ldi	r25, 0x01	; 1
     f8e:	21 50       	subi	r18, 0x01	; 1
     f90:	80 40       	sbci	r24, 0x00	; 0
     f92:	90 40       	sbci	r25, 0x00	; 0
     f94:	e1 f7       	brne	.-8      	; 0xf8e <__vector_1+0x20>
     f96:	00 c0       	rjmp	.+0      	; 0xf98 <__vector_1+0x2a>
     f98:	00 00       	nop
	_delay_ms(50);
	main();
     f9a:	0e 94 6f 06 	call	0xcde	; 0xcde <main>

00000f9e <__vector_13>:
	
	dtostrf(position, 6, 4, long_degrees_buffer); /* dtostrf is a function that convert float value into string.Here the position is a float value and it convert as a string degree buffer variable*/
}

ISR (USART_RXC_vect)
{
     f9e:	1f 92       	push	r1
     fa0:	0f 92       	push	r0
     fa2:	0f b6       	in	r0, 0x3f	; 63
     fa4:	0f 92       	push	r0
     fa6:	11 24       	eor	r1, r1
     fa8:	2f 93       	push	r18
     faa:	3f 93       	push	r19
     fac:	4f 93       	push	r20
     fae:	5f 93       	push	r21
     fb0:	8f 93       	push	r24
     fb2:	9f 93       	push	r25
     fb4:	ef 93       	push	r30
     fb6:	ff 93       	push	r31
	uint8_t oldsrg = SREG;  //unsigned 8-bit integer- integer has a range of 0 to 255
     fb8:	9f b7       	in	r25, 0x3f	; 63
	cli();					//Command Line Interface - CLIs accept as input commands that are entered by keyboard
     fba:	f8 94       	cli
	char received_char = UDR;
     fbc:	8c b1       	in	r24, 0x0c	; 12
	
	if(received_char =='$'){                                                    /* check for '$' */
     fbe:	84 32       	cpi	r24, 0x24	; 36
     fc0:	59 f4       	brne	.+22     	; 0xfd8 <__vector_13+0x3a>
		GGA_Index = 0;
     fc2:	10 92 7b 02 	sts	0x027B, r1	; 0x80027b <GGA_Index+0x1>
     fc6:	10 92 7a 02 	sts	0x027A, r1	; 0x80027a <GGA_Index>
		CommaCounter = 0;
     fca:	10 92 79 02 	sts	0x0279, r1	; 0x800279 <CommaCounter+0x1>
     fce:	10 92 78 02 	sts	0x0278, r1	; 0x800278 <CommaCounter>
		IsItGGAString = false;
     fd2:	10 92 a6 01 	sts	0x01A6, r1	; 0x8001a6 <__data_end>
     fd6:	45 c0       	rjmp	.+138    	; 0x1062 <__vector_13+0xc4>
	}
	else if(IsItGGAString == true){                                             /* if true save GGA info. into buffer */
     fd8:	20 91 a6 01 	lds	r18, 0x01A6	; 0x8001a6 <__data_end>
     fdc:	22 23       	and	r18, r18
     fde:	29 f1       	breq	.+74     	; 0x102a <__vector_13+0x8c>
		if(received_char == ',' ) GGA_Pointers[CommaCounter++] = GGA_Index;     /* store instances of ',' in buffer */
     fe0:	8c 32       	cpi	r24, 0x2C	; 44
     fe2:	99 f4       	brne	.+38     	; 0x100a <__vector_13+0x6c>
     fe4:	20 91 78 02 	lds	r18, 0x0278	; 0x800278 <CommaCounter>
     fe8:	30 91 79 02 	lds	r19, 0x0279	; 0x800279 <CommaCounter+0x1>
     fec:	a9 01       	movw	r20, r18
     fee:	4f 5f       	subi	r20, 0xFF	; 255
     ff0:	5f 4f       	sbci	r21, 0xFF	; 255
     ff2:	50 93 79 02 	sts	0x0279, r21	; 0x800279 <CommaCounter+0x1>
     ff6:	40 93 78 02 	sts	0x0278, r20	; 0x800278 <CommaCounter>
     ffa:	40 91 7a 02 	lds	r20, 0x027A	; 0x80027a <GGA_Index>
     ffe:	50 91 7b 02 	lds	r21, 0x027B	; 0x80027b <GGA_Index+0x1>
    1002:	f9 01       	movw	r30, r18
    1004:	ee 56       	subi	r30, 0x6E	; 110
    1006:	fd 4f       	sbci	r31, 0xFD	; 253
    1008:	40 83       	st	Z, r20
		GGA_Buffer[GGA_Index++] = received_char;
    100a:	20 91 7a 02 	lds	r18, 0x027A	; 0x80027a <GGA_Index>
    100e:	30 91 7b 02 	lds	r19, 0x027B	; 0x80027b <GGA_Index+0x1>
    1012:	a9 01       	movw	r20, r18
    1014:	4f 5f       	subi	r20, 0xFF	; 255
    1016:	5f 4f       	sbci	r21, 0xFF	; 255
    1018:	50 93 7b 02 	sts	0x027B, r21	; 0x80027b <GGA_Index+0x1>
    101c:	40 93 7a 02 	sts	0x027A, r20	; 0x80027a <GGA_Index>
    1020:	f9 01       	movw	r30, r18
    1022:	e5 55       	subi	r30, 0x55	; 85
    1024:	fe 4f       	sbci	r31, 0xFE	; 254
    1026:	80 83       	st	Z, r24
    1028:	1c c0       	rjmp	.+56     	; 0x1062 <__vector_13+0xc4>
	}
	else if(GGA_CODE[0] == 'G' && GGA_CODE[1] == 'G' && GGA_CODE[2] == 'A'){    /* check for GGA string */
    102a:	20 91 7c 02 	lds	r18, 0x027C	; 0x80027c <GGA_CODE>
    102e:	27 34       	cpi	r18, 0x47	; 71
    1030:	89 f4       	brne	.+34     	; 0x1054 <__vector_13+0xb6>
    1032:	20 91 7d 02 	lds	r18, 0x027D	; 0x80027d <GGA_CODE+0x1>
    1036:	27 34       	cpi	r18, 0x47	; 71
    1038:	69 f4       	brne	.+26     	; 0x1054 <__vector_13+0xb6>
    103a:	20 91 7e 02 	lds	r18, 0x027E	; 0x80027e <GGA_CODE+0x2>
    103e:	21 34       	cpi	r18, 0x41	; 65
    1040:	49 f4       	brne	.+18     	; 0x1054 <__vector_13+0xb6>
		IsItGGAString = true;
    1042:	81 e0       	ldi	r24, 0x01	; 1
    1044:	80 93 a6 01 	sts	0x01A6, r24	; 0x8001a6 <__data_end>
		GGA_CODE[0] = 0; GGA_CODE[1] = 0; GGA_CODE[2] = 0;
    1048:	ec e7       	ldi	r30, 0x7C	; 124
    104a:	f2 e0       	ldi	r31, 0x02	; 2
    104c:	10 82       	st	Z, r1
    104e:	11 82       	std	Z+1, r1	; 0x01
    1050:	12 82       	std	Z+2, r1	; 0x02
    1052:	07 c0       	rjmp	.+14     	; 0x1062 <__vector_13+0xc4>
	}
	else{
		GGA_CODE[0] = GGA_CODE[1];  GGA_CODE[1] = GGA_CODE[2]; GGA_CODE[2] = received_char;
    1054:	ec e7       	ldi	r30, 0x7C	; 124
    1056:	f2 e0       	ldi	r31, 0x02	; 2
    1058:	21 81       	ldd	r18, Z+1	; 0x01
    105a:	20 83       	st	Z, r18
    105c:	22 81       	ldd	r18, Z+2	; 0x02
    105e:	21 83       	std	Z+1, r18	; 0x01
    1060:	82 83       	std	Z+2, r24	; 0x02
	}
	SREG = oldsrg;
    1062:	9f bf       	out	0x3f, r25	; 63
    1064:	ff 91       	pop	r31
    1066:	ef 91       	pop	r30
    1068:	9f 91       	pop	r25
    106a:	8f 91       	pop	r24
    106c:	5f 91       	pop	r21
    106e:	4f 91       	pop	r20
    1070:	3f 91       	pop	r19
    1072:	2f 91       	pop	r18
    1074:	0f 90       	pop	r0
    1076:	0f be       	out	0x3f, r0	; 63
    1078:	0f 90       	pop	r0
    107a:	1f 90       	pop	r1
    107c:	18 95       	reti

0000107e <__subsf3>:
    107e:	50 58       	subi	r21, 0x80	; 128

00001080 <__addsf3>:
    1080:	bb 27       	eor	r27, r27
    1082:	aa 27       	eor	r26, r26
    1084:	0e 94 57 08 	call	0x10ae	; 0x10ae <__addsf3x>
    1088:	0c 94 d1 09 	jmp	0x13a2	; 0x13a2 <__fp_round>
    108c:	0e 94 c3 09 	call	0x1386	; 0x1386 <__fp_pscA>
    1090:	38 f0       	brcs	.+14     	; 0x10a0 <__addsf3+0x20>
    1092:	0e 94 ca 09 	call	0x1394	; 0x1394 <__fp_pscB>
    1096:	20 f0       	brcs	.+8      	; 0x10a0 <__addsf3+0x20>
    1098:	39 f4       	brne	.+14     	; 0x10a8 <__addsf3+0x28>
    109a:	9f 3f       	cpi	r25, 0xFF	; 255
    109c:	19 f4       	brne	.+6      	; 0x10a4 <__addsf3+0x24>
    109e:	26 f4       	brtc	.+8      	; 0x10a8 <__addsf3+0x28>
    10a0:	0c 94 c0 09 	jmp	0x1380	; 0x1380 <__fp_nan>
    10a4:	0e f4       	brtc	.+2      	; 0x10a8 <__addsf3+0x28>
    10a6:	e0 95       	com	r30
    10a8:	e7 fb       	bst	r30, 7
    10aa:	0c 94 ba 09 	jmp	0x1374	; 0x1374 <__fp_inf>

000010ae <__addsf3x>:
    10ae:	e9 2f       	mov	r30, r25
    10b0:	0e 94 e2 09 	call	0x13c4	; 0x13c4 <__fp_split3>
    10b4:	58 f3       	brcs	.-42     	; 0x108c <__addsf3+0xc>
    10b6:	ba 17       	cp	r27, r26
    10b8:	62 07       	cpc	r22, r18
    10ba:	73 07       	cpc	r23, r19
    10bc:	84 07       	cpc	r24, r20
    10be:	95 07       	cpc	r25, r21
    10c0:	20 f0       	brcs	.+8      	; 0x10ca <__addsf3x+0x1c>
    10c2:	79 f4       	brne	.+30     	; 0x10e2 <__addsf3x+0x34>
    10c4:	a6 f5       	brtc	.+104    	; 0x112e <__addsf3x+0x80>
    10c6:	0c 94 04 0a 	jmp	0x1408	; 0x1408 <__fp_zero>
    10ca:	0e f4       	brtc	.+2      	; 0x10ce <__addsf3x+0x20>
    10cc:	e0 95       	com	r30
    10ce:	0b 2e       	mov	r0, r27
    10d0:	ba 2f       	mov	r27, r26
    10d2:	a0 2d       	mov	r26, r0
    10d4:	0b 01       	movw	r0, r22
    10d6:	b9 01       	movw	r22, r18
    10d8:	90 01       	movw	r18, r0
    10da:	0c 01       	movw	r0, r24
    10dc:	ca 01       	movw	r24, r20
    10de:	a0 01       	movw	r20, r0
    10e0:	11 24       	eor	r1, r1
    10e2:	ff 27       	eor	r31, r31
    10e4:	59 1b       	sub	r21, r25
    10e6:	99 f0       	breq	.+38     	; 0x110e <__addsf3x+0x60>
    10e8:	59 3f       	cpi	r21, 0xF9	; 249
    10ea:	50 f4       	brcc	.+20     	; 0x1100 <__addsf3x+0x52>
    10ec:	50 3e       	cpi	r21, 0xE0	; 224
    10ee:	68 f1       	brcs	.+90     	; 0x114a <__addsf3x+0x9c>
    10f0:	1a 16       	cp	r1, r26
    10f2:	f0 40       	sbci	r31, 0x00	; 0
    10f4:	a2 2f       	mov	r26, r18
    10f6:	23 2f       	mov	r18, r19
    10f8:	34 2f       	mov	r19, r20
    10fa:	44 27       	eor	r20, r20
    10fc:	58 5f       	subi	r21, 0xF8	; 248
    10fe:	f3 cf       	rjmp	.-26     	; 0x10e6 <__addsf3x+0x38>
    1100:	46 95       	lsr	r20
    1102:	37 95       	ror	r19
    1104:	27 95       	ror	r18
    1106:	a7 95       	ror	r26
    1108:	f0 40       	sbci	r31, 0x00	; 0
    110a:	53 95       	inc	r21
    110c:	c9 f7       	brne	.-14     	; 0x1100 <__addsf3x+0x52>
    110e:	7e f4       	brtc	.+30     	; 0x112e <__addsf3x+0x80>
    1110:	1f 16       	cp	r1, r31
    1112:	ba 0b       	sbc	r27, r26
    1114:	62 0b       	sbc	r22, r18
    1116:	73 0b       	sbc	r23, r19
    1118:	84 0b       	sbc	r24, r20
    111a:	ba f0       	brmi	.+46     	; 0x114a <__addsf3x+0x9c>
    111c:	91 50       	subi	r25, 0x01	; 1
    111e:	a1 f0       	breq	.+40     	; 0x1148 <__addsf3x+0x9a>
    1120:	ff 0f       	add	r31, r31
    1122:	bb 1f       	adc	r27, r27
    1124:	66 1f       	adc	r22, r22
    1126:	77 1f       	adc	r23, r23
    1128:	88 1f       	adc	r24, r24
    112a:	c2 f7       	brpl	.-16     	; 0x111c <__addsf3x+0x6e>
    112c:	0e c0       	rjmp	.+28     	; 0x114a <__addsf3x+0x9c>
    112e:	ba 0f       	add	r27, r26
    1130:	62 1f       	adc	r22, r18
    1132:	73 1f       	adc	r23, r19
    1134:	84 1f       	adc	r24, r20
    1136:	48 f4       	brcc	.+18     	; 0x114a <__addsf3x+0x9c>
    1138:	87 95       	ror	r24
    113a:	77 95       	ror	r23
    113c:	67 95       	ror	r22
    113e:	b7 95       	ror	r27
    1140:	f7 95       	ror	r31
    1142:	9e 3f       	cpi	r25, 0xFE	; 254
    1144:	08 f0       	brcs	.+2      	; 0x1148 <__addsf3x+0x9a>
    1146:	b0 cf       	rjmp	.-160    	; 0x10a8 <__addsf3+0x28>
    1148:	93 95       	inc	r25
    114a:	88 0f       	add	r24, r24
    114c:	08 f0       	brcs	.+2      	; 0x1150 <__addsf3x+0xa2>
    114e:	99 27       	eor	r25, r25
    1150:	ee 0f       	add	r30, r30
    1152:	97 95       	ror	r25
    1154:	87 95       	ror	r24
    1156:	08 95       	ret

00001158 <__cmpsf2>:
    1158:	0e 94 96 09 	call	0x132c	; 0x132c <__fp_cmp>
    115c:	08 f4       	brcc	.+2      	; 0x1160 <__cmpsf2+0x8>
    115e:	81 e0       	ldi	r24, 0x01	; 1
    1160:	08 95       	ret

00001162 <__divsf3>:
    1162:	0e 94 c5 08 	call	0x118a	; 0x118a <__divsf3x>
    1166:	0c 94 d1 09 	jmp	0x13a2	; 0x13a2 <__fp_round>
    116a:	0e 94 ca 09 	call	0x1394	; 0x1394 <__fp_pscB>
    116e:	58 f0       	brcs	.+22     	; 0x1186 <__divsf3+0x24>
    1170:	0e 94 c3 09 	call	0x1386	; 0x1386 <__fp_pscA>
    1174:	40 f0       	brcs	.+16     	; 0x1186 <__divsf3+0x24>
    1176:	29 f4       	brne	.+10     	; 0x1182 <__divsf3+0x20>
    1178:	5f 3f       	cpi	r21, 0xFF	; 255
    117a:	29 f0       	breq	.+10     	; 0x1186 <__divsf3+0x24>
    117c:	0c 94 ba 09 	jmp	0x1374	; 0x1374 <__fp_inf>
    1180:	51 11       	cpse	r21, r1
    1182:	0c 94 05 0a 	jmp	0x140a	; 0x140a <__fp_szero>
    1186:	0c 94 c0 09 	jmp	0x1380	; 0x1380 <__fp_nan>

0000118a <__divsf3x>:
    118a:	0e 94 e2 09 	call	0x13c4	; 0x13c4 <__fp_split3>
    118e:	68 f3       	brcs	.-38     	; 0x116a <__divsf3+0x8>

00001190 <__divsf3_pse>:
    1190:	99 23       	and	r25, r25
    1192:	b1 f3       	breq	.-20     	; 0x1180 <__divsf3+0x1e>
    1194:	55 23       	and	r21, r21
    1196:	91 f3       	breq	.-28     	; 0x117c <__divsf3+0x1a>
    1198:	95 1b       	sub	r25, r21
    119a:	55 0b       	sbc	r21, r21
    119c:	bb 27       	eor	r27, r27
    119e:	aa 27       	eor	r26, r26
    11a0:	62 17       	cp	r22, r18
    11a2:	73 07       	cpc	r23, r19
    11a4:	84 07       	cpc	r24, r20
    11a6:	38 f0       	brcs	.+14     	; 0x11b6 <__divsf3_pse+0x26>
    11a8:	9f 5f       	subi	r25, 0xFF	; 255
    11aa:	5f 4f       	sbci	r21, 0xFF	; 255
    11ac:	22 0f       	add	r18, r18
    11ae:	33 1f       	adc	r19, r19
    11b0:	44 1f       	adc	r20, r20
    11b2:	aa 1f       	adc	r26, r26
    11b4:	a9 f3       	breq	.-22     	; 0x11a0 <__divsf3_pse+0x10>
    11b6:	35 d0       	rcall	.+106    	; 0x1222 <__divsf3_pse+0x92>
    11b8:	0e 2e       	mov	r0, r30
    11ba:	3a f0       	brmi	.+14     	; 0x11ca <__divsf3_pse+0x3a>
    11bc:	e0 e8       	ldi	r30, 0x80	; 128
    11be:	32 d0       	rcall	.+100    	; 0x1224 <__divsf3_pse+0x94>
    11c0:	91 50       	subi	r25, 0x01	; 1
    11c2:	50 40       	sbci	r21, 0x00	; 0
    11c4:	e6 95       	lsr	r30
    11c6:	00 1c       	adc	r0, r0
    11c8:	ca f7       	brpl	.-14     	; 0x11bc <__divsf3_pse+0x2c>
    11ca:	2b d0       	rcall	.+86     	; 0x1222 <__divsf3_pse+0x92>
    11cc:	fe 2f       	mov	r31, r30
    11ce:	29 d0       	rcall	.+82     	; 0x1222 <__divsf3_pse+0x92>
    11d0:	66 0f       	add	r22, r22
    11d2:	77 1f       	adc	r23, r23
    11d4:	88 1f       	adc	r24, r24
    11d6:	bb 1f       	adc	r27, r27
    11d8:	26 17       	cp	r18, r22
    11da:	37 07       	cpc	r19, r23
    11dc:	48 07       	cpc	r20, r24
    11de:	ab 07       	cpc	r26, r27
    11e0:	b0 e8       	ldi	r27, 0x80	; 128
    11e2:	09 f0       	breq	.+2      	; 0x11e6 <__divsf3_pse+0x56>
    11e4:	bb 0b       	sbc	r27, r27
    11e6:	80 2d       	mov	r24, r0
    11e8:	bf 01       	movw	r22, r30
    11ea:	ff 27       	eor	r31, r31
    11ec:	93 58       	subi	r25, 0x83	; 131
    11ee:	5f 4f       	sbci	r21, 0xFF	; 255
    11f0:	3a f0       	brmi	.+14     	; 0x1200 <__divsf3_pse+0x70>
    11f2:	9e 3f       	cpi	r25, 0xFE	; 254
    11f4:	51 05       	cpc	r21, r1
    11f6:	78 f0       	brcs	.+30     	; 0x1216 <__divsf3_pse+0x86>
    11f8:	0c 94 ba 09 	jmp	0x1374	; 0x1374 <__fp_inf>
    11fc:	0c 94 05 0a 	jmp	0x140a	; 0x140a <__fp_szero>
    1200:	5f 3f       	cpi	r21, 0xFF	; 255
    1202:	e4 f3       	brlt	.-8      	; 0x11fc <__divsf3_pse+0x6c>
    1204:	98 3e       	cpi	r25, 0xE8	; 232
    1206:	d4 f3       	brlt	.-12     	; 0x11fc <__divsf3_pse+0x6c>
    1208:	86 95       	lsr	r24
    120a:	77 95       	ror	r23
    120c:	67 95       	ror	r22
    120e:	b7 95       	ror	r27
    1210:	f7 95       	ror	r31
    1212:	9f 5f       	subi	r25, 0xFF	; 255
    1214:	c9 f7       	brne	.-14     	; 0x1208 <__divsf3_pse+0x78>
    1216:	88 0f       	add	r24, r24
    1218:	91 1d       	adc	r25, r1
    121a:	96 95       	lsr	r25
    121c:	87 95       	ror	r24
    121e:	97 f9       	bld	r25, 7
    1220:	08 95       	ret
    1222:	e1 e0       	ldi	r30, 0x01	; 1
    1224:	66 0f       	add	r22, r22
    1226:	77 1f       	adc	r23, r23
    1228:	88 1f       	adc	r24, r24
    122a:	bb 1f       	adc	r27, r27
    122c:	62 17       	cp	r22, r18
    122e:	73 07       	cpc	r23, r19
    1230:	84 07       	cpc	r24, r20
    1232:	ba 07       	cpc	r27, r26
    1234:	20 f0       	brcs	.+8      	; 0x123e <__divsf3_pse+0xae>
    1236:	62 1b       	sub	r22, r18
    1238:	73 0b       	sbc	r23, r19
    123a:	84 0b       	sbc	r24, r20
    123c:	ba 0b       	sbc	r27, r26
    123e:	ee 1f       	adc	r30, r30
    1240:	88 f7       	brcc	.-30     	; 0x1224 <__divsf3_pse+0x94>
    1242:	e0 95       	com	r30
    1244:	08 95       	ret

00001246 <__fixsfsi>:
    1246:	0e 94 2a 09 	call	0x1254	; 0x1254 <__fixunssfsi>
    124a:	68 94       	set
    124c:	b1 11       	cpse	r27, r1
    124e:	0c 94 05 0a 	jmp	0x140a	; 0x140a <__fp_szero>
    1252:	08 95       	ret

00001254 <__fixunssfsi>:
    1254:	0e 94 ea 09 	call	0x13d4	; 0x13d4 <__fp_splitA>
    1258:	88 f0       	brcs	.+34     	; 0x127c <__fixunssfsi+0x28>
    125a:	9f 57       	subi	r25, 0x7F	; 127
    125c:	98 f0       	brcs	.+38     	; 0x1284 <__fixunssfsi+0x30>
    125e:	b9 2f       	mov	r27, r25
    1260:	99 27       	eor	r25, r25
    1262:	b7 51       	subi	r27, 0x17	; 23
    1264:	b0 f0       	brcs	.+44     	; 0x1292 <__fixunssfsi+0x3e>
    1266:	e1 f0       	breq	.+56     	; 0x12a0 <__fixunssfsi+0x4c>
    1268:	66 0f       	add	r22, r22
    126a:	77 1f       	adc	r23, r23
    126c:	88 1f       	adc	r24, r24
    126e:	99 1f       	adc	r25, r25
    1270:	1a f0       	brmi	.+6      	; 0x1278 <__fixunssfsi+0x24>
    1272:	ba 95       	dec	r27
    1274:	c9 f7       	brne	.-14     	; 0x1268 <__fixunssfsi+0x14>
    1276:	14 c0       	rjmp	.+40     	; 0x12a0 <__fixunssfsi+0x4c>
    1278:	b1 30       	cpi	r27, 0x01	; 1
    127a:	91 f0       	breq	.+36     	; 0x12a0 <__fixunssfsi+0x4c>
    127c:	0e 94 04 0a 	call	0x1408	; 0x1408 <__fp_zero>
    1280:	b1 e0       	ldi	r27, 0x01	; 1
    1282:	08 95       	ret
    1284:	0c 94 04 0a 	jmp	0x1408	; 0x1408 <__fp_zero>
    1288:	67 2f       	mov	r22, r23
    128a:	78 2f       	mov	r23, r24
    128c:	88 27       	eor	r24, r24
    128e:	b8 5f       	subi	r27, 0xF8	; 248
    1290:	39 f0       	breq	.+14     	; 0x12a0 <__fixunssfsi+0x4c>
    1292:	b9 3f       	cpi	r27, 0xF9	; 249
    1294:	cc f3       	brlt	.-14     	; 0x1288 <__fixunssfsi+0x34>
    1296:	86 95       	lsr	r24
    1298:	77 95       	ror	r23
    129a:	67 95       	ror	r22
    129c:	b3 95       	inc	r27
    129e:	d9 f7       	brne	.-10     	; 0x1296 <__fixunssfsi+0x42>
    12a0:	3e f4       	brtc	.+14     	; 0x12b0 <__fixunssfsi+0x5c>
    12a2:	90 95       	com	r25
    12a4:	80 95       	com	r24
    12a6:	70 95       	com	r23
    12a8:	61 95       	neg	r22
    12aa:	7f 4f       	sbci	r23, 0xFF	; 255
    12ac:	8f 4f       	sbci	r24, 0xFF	; 255
    12ae:	9f 4f       	sbci	r25, 0xFF	; 255
    12b0:	08 95       	ret

000012b2 <__floatunsisf>:
    12b2:	e8 94       	clt
    12b4:	09 c0       	rjmp	.+18     	; 0x12c8 <__floatsisf+0x12>

000012b6 <__floatsisf>:
    12b6:	97 fb       	bst	r25, 7
    12b8:	3e f4       	brtc	.+14     	; 0x12c8 <__floatsisf+0x12>
    12ba:	90 95       	com	r25
    12bc:	80 95       	com	r24
    12be:	70 95       	com	r23
    12c0:	61 95       	neg	r22
    12c2:	7f 4f       	sbci	r23, 0xFF	; 255
    12c4:	8f 4f       	sbci	r24, 0xFF	; 255
    12c6:	9f 4f       	sbci	r25, 0xFF	; 255
    12c8:	99 23       	and	r25, r25
    12ca:	a9 f0       	breq	.+42     	; 0x12f6 <__floatsisf+0x40>
    12cc:	f9 2f       	mov	r31, r25
    12ce:	96 e9       	ldi	r25, 0x96	; 150
    12d0:	bb 27       	eor	r27, r27
    12d2:	93 95       	inc	r25
    12d4:	f6 95       	lsr	r31
    12d6:	87 95       	ror	r24
    12d8:	77 95       	ror	r23
    12da:	67 95       	ror	r22
    12dc:	b7 95       	ror	r27
    12de:	f1 11       	cpse	r31, r1
    12e0:	f8 cf       	rjmp	.-16     	; 0x12d2 <__floatsisf+0x1c>
    12e2:	fa f4       	brpl	.+62     	; 0x1322 <__floatsisf+0x6c>
    12e4:	bb 0f       	add	r27, r27
    12e6:	11 f4       	brne	.+4      	; 0x12ec <__floatsisf+0x36>
    12e8:	60 ff       	sbrs	r22, 0
    12ea:	1b c0       	rjmp	.+54     	; 0x1322 <__floatsisf+0x6c>
    12ec:	6f 5f       	subi	r22, 0xFF	; 255
    12ee:	7f 4f       	sbci	r23, 0xFF	; 255
    12f0:	8f 4f       	sbci	r24, 0xFF	; 255
    12f2:	9f 4f       	sbci	r25, 0xFF	; 255
    12f4:	16 c0       	rjmp	.+44     	; 0x1322 <__floatsisf+0x6c>
    12f6:	88 23       	and	r24, r24
    12f8:	11 f0       	breq	.+4      	; 0x12fe <__floatsisf+0x48>
    12fa:	96 e9       	ldi	r25, 0x96	; 150
    12fc:	11 c0       	rjmp	.+34     	; 0x1320 <__floatsisf+0x6a>
    12fe:	77 23       	and	r23, r23
    1300:	21 f0       	breq	.+8      	; 0x130a <__floatsisf+0x54>
    1302:	9e e8       	ldi	r25, 0x8E	; 142
    1304:	87 2f       	mov	r24, r23
    1306:	76 2f       	mov	r23, r22
    1308:	05 c0       	rjmp	.+10     	; 0x1314 <__floatsisf+0x5e>
    130a:	66 23       	and	r22, r22
    130c:	71 f0       	breq	.+28     	; 0x132a <__floatsisf+0x74>
    130e:	96 e8       	ldi	r25, 0x86	; 134
    1310:	86 2f       	mov	r24, r22
    1312:	70 e0       	ldi	r23, 0x00	; 0
    1314:	60 e0       	ldi	r22, 0x00	; 0
    1316:	2a f0       	brmi	.+10     	; 0x1322 <__floatsisf+0x6c>
    1318:	9a 95       	dec	r25
    131a:	66 0f       	add	r22, r22
    131c:	77 1f       	adc	r23, r23
    131e:	88 1f       	adc	r24, r24
    1320:	da f7       	brpl	.-10     	; 0x1318 <__floatsisf+0x62>
    1322:	88 0f       	add	r24, r24
    1324:	96 95       	lsr	r25
    1326:	87 95       	ror	r24
    1328:	97 f9       	bld	r25, 7
    132a:	08 95       	ret

0000132c <__fp_cmp>:
    132c:	99 0f       	add	r25, r25
    132e:	00 08       	sbc	r0, r0
    1330:	55 0f       	add	r21, r21
    1332:	aa 0b       	sbc	r26, r26
    1334:	e0 e8       	ldi	r30, 0x80	; 128
    1336:	fe ef       	ldi	r31, 0xFE	; 254
    1338:	16 16       	cp	r1, r22
    133a:	17 06       	cpc	r1, r23
    133c:	e8 07       	cpc	r30, r24
    133e:	f9 07       	cpc	r31, r25
    1340:	c0 f0       	brcs	.+48     	; 0x1372 <__fp_cmp+0x46>
    1342:	12 16       	cp	r1, r18
    1344:	13 06       	cpc	r1, r19
    1346:	e4 07       	cpc	r30, r20
    1348:	f5 07       	cpc	r31, r21
    134a:	98 f0       	brcs	.+38     	; 0x1372 <__fp_cmp+0x46>
    134c:	62 1b       	sub	r22, r18
    134e:	73 0b       	sbc	r23, r19
    1350:	84 0b       	sbc	r24, r20
    1352:	95 0b       	sbc	r25, r21
    1354:	39 f4       	brne	.+14     	; 0x1364 <__fp_cmp+0x38>
    1356:	0a 26       	eor	r0, r26
    1358:	61 f0       	breq	.+24     	; 0x1372 <__fp_cmp+0x46>
    135a:	23 2b       	or	r18, r19
    135c:	24 2b       	or	r18, r20
    135e:	25 2b       	or	r18, r21
    1360:	21 f4       	brne	.+8      	; 0x136a <__fp_cmp+0x3e>
    1362:	08 95       	ret
    1364:	0a 26       	eor	r0, r26
    1366:	09 f4       	brne	.+2      	; 0x136a <__fp_cmp+0x3e>
    1368:	a1 40       	sbci	r26, 0x01	; 1
    136a:	a6 95       	lsr	r26
    136c:	8f ef       	ldi	r24, 0xFF	; 255
    136e:	81 1d       	adc	r24, r1
    1370:	81 1d       	adc	r24, r1
    1372:	08 95       	ret

00001374 <__fp_inf>:
    1374:	97 f9       	bld	r25, 7
    1376:	9f 67       	ori	r25, 0x7F	; 127
    1378:	80 e8       	ldi	r24, 0x80	; 128
    137a:	70 e0       	ldi	r23, 0x00	; 0
    137c:	60 e0       	ldi	r22, 0x00	; 0
    137e:	08 95       	ret

00001380 <__fp_nan>:
    1380:	9f ef       	ldi	r25, 0xFF	; 255
    1382:	80 ec       	ldi	r24, 0xC0	; 192
    1384:	08 95       	ret

00001386 <__fp_pscA>:
    1386:	00 24       	eor	r0, r0
    1388:	0a 94       	dec	r0
    138a:	16 16       	cp	r1, r22
    138c:	17 06       	cpc	r1, r23
    138e:	18 06       	cpc	r1, r24
    1390:	09 06       	cpc	r0, r25
    1392:	08 95       	ret

00001394 <__fp_pscB>:
    1394:	00 24       	eor	r0, r0
    1396:	0a 94       	dec	r0
    1398:	12 16       	cp	r1, r18
    139a:	13 06       	cpc	r1, r19
    139c:	14 06       	cpc	r1, r20
    139e:	05 06       	cpc	r0, r21
    13a0:	08 95       	ret

000013a2 <__fp_round>:
    13a2:	09 2e       	mov	r0, r25
    13a4:	03 94       	inc	r0
    13a6:	00 0c       	add	r0, r0
    13a8:	11 f4       	brne	.+4      	; 0x13ae <__fp_round+0xc>
    13aa:	88 23       	and	r24, r24
    13ac:	52 f0       	brmi	.+20     	; 0x13c2 <__fp_round+0x20>
    13ae:	bb 0f       	add	r27, r27
    13b0:	40 f4       	brcc	.+16     	; 0x13c2 <__fp_round+0x20>
    13b2:	bf 2b       	or	r27, r31
    13b4:	11 f4       	brne	.+4      	; 0x13ba <__fp_round+0x18>
    13b6:	60 ff       	sbrs	r22, 0
    13b8:	04 c0       	rjmp	.+8      	; 0x13c2 <__fp_round+0x20>
    13ba:	6f 5f       	subi	r22, 0xFF	; 255
    13bc:	7f 4f       	sbci	r23, 0xFF	; 255
    13be:	8f 4f       	sbci	r24, 0xFF	; 255
    13c0:	9f 4f       	sbci	r25, 0xFF	; 255
    13c2:	08 95       	ret

000013c4 <__fp_split3>:
    13c4:	57 fd       	sbrc	r21, 7
    13c6:	90 58       	subi	r25, 0x80	; 128
    13c8:	44 0f       	add	r20, r20
    13ca:	55 1f       	adc	r21, r21
    13cc:	59 f0       	breq	.+22     	; 0x13e4 <__fp_splitA+0x10>
    13ce:	5f 3f       	cpi	r21, 0xFF	; 255
    13d0:	71 f0       	breq	.+28     	; 0x13ee <__fp_splitA+0x1a>
    13d2:	47 95       	ror	r20

000013d4 <__fp_splitA>:
    13d4:	88 0f       	add	r24, r24
    13d6:	97 fb       	bst	r25, 7
    13d8:	99 1f       	adc	r25, r25
    13da:	61 f0       	breq	.+24     	; 0x13f4 <__fp_splitA+0x20>
    13dc:	9f 3f       	cpi	r25, 0xFF	; 255
    13de:	79 f0       	breq	.+30     	; 0x13fe <__fp_splitA+0x2a>
    13e0:	87 95       	ror	r24
    13e2:	08 95       	ret
    13e4:	12 16       	cp	r1, r18
    13e6:	13 06       	cpc	r1, r19
    13e8:	14 06       	cpc	r1, r20
    13ea:	55 1f       	adc	r21, r21
    13ec:	f2 cf       	rjmp	.-28     	; 0x13d2 <__fp_split3+0xe>
    13ee:	46 95       	lsr	r20
    13f0:	f1 df       	rcall	.-30     	; 0x13d4 <__fp_splitA>
    13f2:	08 c0       	rjmp	.+16     	; 0x1404 <__fp_splitA+0x30>
    13f4:	16 16       	cp	r1, r22
    13f6:	17 06       	cpc	r1, r23
    13f8:	18 06       	cpc	r1, r24
    13fa:	99 1f       	adc	r25, r25
    13fc:	f1 cf       	rjmp	.-30     	; 0x13e0 <__fp_splitA+0xc>
    13fe:	86 95       	lsr	r24
    1400:	71 05       	cpc	r23, r1
    1402:	61 05       	cpc	r22, r1
    1404:	08 94       	sec
    1406:	08 95       	ret

00001408 <__fp_zero>:
    1408:	e8 94       	clt

0000140a <__fp_szero>:
    140a:	bb 27       	eor	r27, r27
    140c:	66 27       	eor	r22, r22
    140e:	77 27       	eor	r23, r23
    1410:	cb 01       	movw	r24, r22
    1412:	97 f9       	bld	r25, 7
    1414:	08 95       	ret

00001416 <__gesf2>:
    1416:	0e 94 96 09 	call	0x132c	; 0x132c <__fp_cmp>
    141a:	08 f4       	brcc	.+2      	; 0x141e <__gesf2+0x8>
    141c:	8f ef       	ldi	r24, 0xFF	; 255
    141e:	08 95       	ret

00001420 <__mulsf3>:
    1420:	0e 94 23 0a 	call	0x1446	; 0x1446 <__mulsf3x>
    1424:	0c 94 d1 09 	jmp	0x13a2	; 0x13a2 <__fp_round>
    1428:	0e 94 c3 09 	call	0x1386	; 0x1386 <__fp_pscA>
    142c:	38 f0       	brcs	.+14     	; 0x143c <__mulsf3+0x1c>
    142e:	0e 94 ca 09 	call	0x1394	; 0x1394 <__fp_pscB>
    1432:	20 f0       	brcs	.+8      	; 0x143c <__mulsf3+0x1c>
    1434:	95 23       	and	r25, r21
    1436:	11 f0       	breq	.+4      	; 0x143c <__mulsf3+0x1c>
    1438:	0c 94 ba 09 	jmp	0x1374	; 0x1374 <__fp_inf>
    143c:	0c 94 c0 09 	jmp	0x1380	; 0x1380 <__fp_nan>
    1440:	11 24       	eor	r1, r1
    1442:	0c 94 05 0a 	jmp	0x140a	; 0x140a <__fp_szero>

00001446 <__mulsf3x>:
    1446:	0e 94 e2 09 	call	0x13c4	; 0x13c4 <__fp_split3>
    144a:	70 f3       	brcs	.-36     	; 0x1428 <__mulsf3+0x8>

0000144c <__mulsf3_pse>:
    144c:	95 9f       	mul	r25, r21
    144e:	c1 f3       	breq	.-16     	; 0x1440 <__mulsf3+0x20>
    1450:	95 0f       	add	r25, r21
    1452:	50 e0       	ldi	r21, 0x00	; 0
    1454:	55 1f       	adc	r21, r21
    1456:	62 9f       	mul	r22, r18
    1458:	f0 01       	movw	r30, r0
    145a:	72 9f       	mul	r23, r18
    145c:	bb 27       	eor	r27, r27
    145e:	f0 0d       	add	r31, r0
    1460:	b1 1d       	adc	r27, r1
    1462:	63 9f       	mul	r22, r19
    1464:	aa 27       	eor	r26, r26
    1466:	f0 0d       	add	r31, r0
    1468:	b1 1d       	adc	r27, r1
    146a:	aa 1f       	adc	r26, r26
    146c:	64 9f       	mul	r22, r20
    146e:	66 27       	eor	r22, r22
    1470:	b0 0d       	add	r27, r0
    1472:	a1 1d       	adc	r26, r1
    1474:	66 1f       	adc	r22, r22
    1476:	82 9f       	mul	r24, r18
    1478:	22 27       	eor	r18, r18
    147a:	b0 0d       	add	r27, r0
    147c:	a1 1d       	adc	r26, r1
    147e:	62 1f       	adc	r22, r18
    1480:	73 9f       	mul	r23, r19
    1482:	b0 0d       	add	r27, r0
    1484:	a1 1d       	adc	r26, r1
    1486:	62 1f       	adc	r22, r18
    1488:	83 9f       	mul	r24, r19
    148a:	a0 0d       	add	r26, r0
    148c:	61 1d       	adc	r22, r1
    148e:	22 1f       	adc	r18, r18
    1490:	74 9f       	mul	r23, r20
    1492:	33 27       	eor	r19, r19
    1494:	a0 0d       	add	r26, r0
    1496:	61 1d       	adc	r22, r1
    1498:	23 1f       	adc	r18, r19
    149a:	84 9f       	mul	r24, r20
    149c:	60 0d       	add	r22, r0
    149e:	21 1d       	adc	r18, r1
    14a0:	82 2f       	mov	r24, r18
    14a2:	76 2f       	mov	r23, r22
    14a4:	6a 2f       	mov	r22, r26
    14a6:	11 24       	eor	r1, r1
    14a8:	9f 57       	subi	r25, 0x7F	; 127
    14aa:	50 40       	sbci	r21, 0x00	; 0
    14ac:	9a f0       	brmi	.+38     	; 0x14d4 <__mulsf3_pse+0x88>
    14ae:	f1 f0       	breq	.+60     	; 0x14ec <__mulsf3_pse+0xa0>
    14b0:	88 23       	and	r24, r24
    14b2:	4a f0       	brmi	.+18     	; 0x14c6 <__mulsf3_pse+0x7a>
    14b4:	ee 0f       	add	r30, r30
    14b6:	ff 1f       	adc	r31, r31
    14b8:	bb 1f       	adc	r27, r27
    14ba:	66 1f       	adc	r22, r22
    14bc:	77 1f       	adc	r23, r23
    14be:	88 1f       	adc	r24, r24
    14c0:	91 50       	subi	r25, 0x01	; 1
    14c2:	50 40       	sbci	r21, 0x00	; 0
    14c4:	a9 f7       	brne	.-22     	; 0x14b0 <__mulsf3_pse+0x64>
    14c6:	9e 3f       	cpi	r25, 0xFE	; 254
    14c8:	51 05       	cpc	r21, r1
    14ca:	80 f0       	brcs	.+32     	; 0x14ec <__mulsf3_pse+0xa0>
    14cc:	0c 94 ba 09 	jmp	0x1374	; 0x1374 <__fp_inf>
    14d0:	0c 94 05 0a 	jmp	0x140a	; 0x140a <__fp_szero>
    14d4:	5f 3f       	cpi	r21, 0xFF	; 255
    14d6:	e4 f3       	brlt	.-8      	; 0x14d0 <__mulsf3_pse+0x84>
    14d8:	98 3e       	cpi	r25, 0xE8	; 232
    14da:	d4 f3       	brlt	.-12     	; 0x14d0 <__mulsf3_pse+0x84>
    14dc:	86 95       	lsr	r24
    14de:	77 95       	ror	r23
    14e0:	67 95       	ror	r22
    14e2:	b7 95       	ror	r27
    14e4:	f7 95       	ror	r31
    14e6:	e7 95       	ror	r30
    14e8:	9f 5f       	subi	r25, 0xFF	; 255
    14ea:	c1 f7       	brne	.-16     	; 0x14dc <__mulsf3_pse+0x90>
    14ec:	fe 2b       	or	r31, r30
    14ee:	88 0f       	add	r24, r24
    14f0:	91 1d       	adc	r25, r1
    14f2:	96 95       	lsr	r25
    14f4:	87 95       	ror	r24
    14f6:	97 f9       	bld	r25, 7
    14f8:	08 95       	ret

000014fa <__udivmodsi4>:
    14fa:	a1 e2       	ldi	r26, 0x21	; 33
    14fc:	1a 2e       	mov	r1, r26
    14fe:	aa 1b       	sub	r26, r26
    1500:	bb 1b       	sub	r27, r27
    1502:	fd 01       	movw	r30, r26
    1504:	0d c0       	rjmp	.+26     	; 0x1520 <__udivmodsi4_ep>

00001506 <__udivmodsi4_loop>:
    1506:	aa 1f       	adc	r26, r26
    1508:	bb 1f       	adc	r27, r27
    150a:	ee 1f       	adc	r30, r30
    150c:	ff 1f       	adc	r31, r31
    150e:	a2 17       	cp	r26, r18
    1510:	b3 07       	cpc	r27, r19
    1512:	e4 07       	cpc	r30, r20
    1514:	f5 07       	cpc	r31, r21
    1516:	20 f0       	brcs	.+8      	; 0x1520 <__udivmodsi4_ep>
    1518:	a2 1b       	sub	r26, r18
    151a:	b3 0b       	sbc	r27, r19
    151c:	e4 0b       	sbc	r30, r20
    151e:	f5 0b       	sbc	r31, r21

00001520 <__udivmodsi4_ep>:
    1520:	66 1f       	adc	r22, r22
    1522:	77 1f       	adc	r23, r23
    1524:	88 1f       	adc	r24, r24
    1526:	99 1f       	adc	r25, r25
    1528:	1a 94       	dec	r1
    152a:	69 f7       	brne	.-38     	; 0x1506 <__udivmodsi4_loop>
    152c:	60 95       	com	r22
    152e:	70 95       	com	r23
    1530:	80 95       	com	r24
    1532:	90 95       	com	r25
    1534:	9b 01       	movw	r18, r22
    1536:	ac 01       	movw	r20, r24
    1538:	bd 01       	movw	r22, r26
    153a:	cf 01       	movw	r24, r30
    153c:	08 95       	ret

0000153e <dtostrf>:
    153e:	ef 92       	push	r14
    1540:	0f 93       	push	r16
    1542:	1f 93       	push	r17
    1544:	cf 93       	push	r28
    1546:	df 93       	push	r29
    1548:	e8 01       	movw	r28, r16
    154a:	47 fd       	sbrc	r20, 7
    154c:	02 c0       	rjmp	.+4      	; 0x1552 <dtostrf+0x14>
    154e:	34 e0       	ldi	r19, 0x04	; 4
    1550:	01 c0       	rjmp	.+2      	; 0x1554 <dtostrf+0x16>
    1552:	34 e1       	ldi	r19, 0x14	; 20
    1554:	04 2e       	mov	r0, r20
    1556:	00 0c       	add	r0, r0
    1558:	55 0b       	sbc	r21, r21
    155a:	57 ff       	sbrs	r21, 7
    155c:	03 c0       	rjmp	.+6      	; 0x1564 <dtostrf+0x26>
    155e:	51 95       	neg	r21
    1560:	41 95       	neg	r20
    1562:	51 09       	sbc	r21, r1
    1564:	e3 2e       	mov	r14, r19
    1566:	02 2f       	mov	r16, r18
    1568:	24 2f       	mov	r18, r20
    156a:	ae 01       	movw	r20, r28
    156c:	0e 94 ce 0a 	call	0x159c	; 0x159c <dtoa_prf>
    1570:	ce 01       	movw	r24, r28
    1572:	df 91       	pop	r29
    1574:	cf 91       	pop	r28
    1576:	1f 91       	pop	r17
    1578:	0f 91       	pop	r16
    157a:	ef 90       	pop	r14
    157c:	08 95       	ret

0000157e <atof>:
    157e:	66 27       	eor	r22, r22
    1580:	77 27       	eor	r23, r23
    1582:	0c 94 28 0c 	jmp	0x1850	; 0x1850 <strtod>

00001586 <strcat>:
    1586:	fb 01       	movw	r30, r22
    1588:	dc 01       	movw	r26, r24
    158a:	0d 90       	ld	r0, X+
    158c:	00 20       	and	r0, r0
    158e:	e9 f7       	brne	.-6      	; 0x158a <strcat+0x4>
    1590:	11 97       	sbiw	r26, 0x01	; 1
    1592:	01 90       	ld	r0, Z+
    1594:	0d 92       	st	X+, r0
    1596:	00 20       	and	r0, r0
    1598:	e1 f7       	brne	.-8      	; 0x1592 <strcat+0xc>
    159a:	08 95       	ret

0000159c <dtoa_prf>:
    159c:	a9 e0       	ldi	r26, 0x09	; 9
    159e:	b0 e0       	ldi	r27, 0x00	; 0
    15a0:	e4 ed       	ldi	r30, 0xD4	; 212
    15a2:	fa e0       	ldi	r31, 0x0A	; 10
    15a4:	0c 94 83 0e 	jmp	0x1d06	; 0x1d06 <__prologue_saves__+0xc>
    15a8:	6a 01       	movw	r12, r20
    15aa:	12 2f       	mov	r17, r18
    15ac:	b0 2e       	mov	r11, r16
    15ae:	2b e3       	ldi	r18, 0x3B	; 59
    15b0:	20 17       	cp	r18, r16
    15b2:	20 f0       	brcs	.+8      	; 0x15bc <dtoa_prf+0x20>
    15b4:	ff 24       	eor	r15, r15
    15b6:	f3 94       	inc	r15
    15b8:	f0 0e       	add	r15, r16
    15ba:	02 c0       	rjmp	.+4      	; 0x15c0 <dtoa_prf+0x24>
    15bc:	2c e3       	ldi	r18, 0x3C	; 60
    15be:	f2 2e       	mov	r15, r18
    15c0:	0f 2d       	mov	r16, r15
    15c2:	27 e0       	ldi	r18, 0x07	; 7
    15c4:	ae 01       	movw	r20, r28
    15c6:	4f 5f       	subi	r20, 0xFF	; 255
    15c8:	5f 4f       	sbci	r21, 0xFF	; 255
    15ca:	0e 94 76 0d 	call	0x1aec	; 0x1aec <__ftoa_engine>
    15ce:	bc 01       	movw	r22, r24
    15d0:	49 81       	ldd	r20, Y+1	; 0x01
    15d2:	84 2f       	mov	r24, r20
    15d4:	89 70       	andi	r24, 0x09	; 9
    15d6:	81 30       	cpi	r24, 0x01	; 1
    15d8:	31 f0       	breq	.+12     	; 0x15e6 <dtoa_prf+0x4a>
    15da:	e1 fc       	sbrc	r14, 1
    15dc:	06 c0       	rjmp	.+12     	; 0x15ea <dtoa_prf+0x4e>
    15de:	e0 fe       	sbrs	r14, 0
    15e0:	06 c0       	rjmp	.+12     	; 0x15ee <dtoa_prf+0x52>
    15e2:	90 e2       	ldi	r25, 0x20	; 32
    15e4:	05 c0       	rjmp	.+10     	; 0x15f0 <dtoa_prf+0x54>
    15e6:	9d e2       	ldi	r25, 0x2D	; 45
    15e8:	03 c0       	rjmp	.+6      	; 0x15f0 <dtoa_prf+0x54>
    15ea:	9b e2       	ldi	r25, 0x2B	; 43
    15ec:	01 c0       	rjmp	.+2      	; 0x15f0 <dtoa_prf+0x54>
    15ee:	90 e0       	ldi	r25, 0x00	; 0
    15f0:	5e 2d       	mov	r21, r14
    15f2:	50 71       	andi	r21, 0x10	; 16
    15f4:	43 ff       	sbrs	r20, 3
    15f6:	3c c0       	rjmp	.+120    	; 0x1670 <dtoa_prf+0xd4>
    15f8:	91 11       	cpse	r25, r1
    15fa:	02 c0       	rjmp	.+4      	; 0x1600 <dtoa_prf+0x64>
    15fc:	83 e0       	ldi	r24, 0x03	; 3
    15fe:	01 c0       	rjmp	.+2      	; 0x1602 <dtoa_prf+0x66>
    1600:	84 e0       	ldi	r24, 0x04	; 4
    1602:	81 17       	cp	r24, r17
    1604:	18 f4       	brcc	.+6      	; 0x160c <dtoa_prf+0x70>
    1606:	21 2f       	mov	r18, r17
    1608:	28 1b       	sub	r18, r24
    160a:	01 c0       	rjmp	.+2      	; 0x160e <dtoa_prf+0x72>
    160c:	20 e0       	ldi	r18, 0x00	; 0
    160e:	51 11       	cpse	r21, r1
    1610:	0b c0       	rjmp	.+22     	; 0x1628 <dtoa_prf+0x8c>
    1612:	f6 01       	movw	r30, r12
    1614:	82 2f       	mov	r24, r18
    1616:	30 e2       	ldi	r19, 0x20	; 32
    1618:	88 23       	and	r24, r24
    161a:	19 f0       	breq	.+6      	; 0x1622 <dtoa_prf+0x86>
    161c:	31 93       	st	Z+, r19
    161e:	81 50       	subi	r24, 0x01	; 1
    1620:	fb cf       	rjmp	.-10     	; 0x1618 <dtoa_prf+0x7c>
    1622:	c2 0e       	add	r12, r18
    1624:	d1 1c       	adc	r13, r1
    1626:	20 e0       	ldi	r18, 0x00	; 0
    1628:	99 23       	and	r25, r25
    162a:	29 f0       	breq	.+10     	; 0x1636 <dtoa_prf+0x9a>
    162c:	d6 01       	movw	r26, r12
    162e:	9c 93       	st	X, r25
    1630:	f6 01       	movw	r30, r12
    1632:	31 96       	adiw	r30, 0x01	; 1
    1634:	6f 01       	movw	r12, r30
    1636:	c6 01       	movw	r24, r12
    1638:	03 96       	adiw	r24, 0x03	; 3
    163a:	e2 fe       	sbrs	r14, 2
    163c:	0a c0       	rjmp	.+20     	; 0x1652 <dtoa_prf+0xb6>
    163e:	3e e4       	ldi	r19, 0x4E	; 78
    1640:	d6 01       	movw	r26, r12
    1642:	3c 93       	st	X, r19
    1644:	41 e4       	ldi	r20, 0x41	; 65
    1646:	11 96       	adiw	r26, 0x01	; 1
    1648:	4c 93       	st	X, r20
    164a:	11 97       	sbiw	r26, 0x01	; 1
    164c:	12 96       	adiw	r26, 0x02	; 2
    164e:	3c 93       	st	X, r19
    1650:	06 c0       	rjmp	.+12     	; 0x165e <dtoa_prf+0xc2>
    1652:	3e e6       	ldi	r19, 0x6E	; 110
    1654:	f6 01       	movw	r30, r12
    1656:	30 83       	st	Z, r19
    1658:	41 e6       	ldi	r20, 0x61	; 97
    165a:	41 83       	std	Z+1, r20	; 0x01
    165c:	32 83       	std	Z+2, r19	; 0x02
    165e:	fc 01       	movw	r30, r24
    1660:	32 2f       	mov	r19, r18
    1662:	40 e2       	ldi	r20, 0x20	; 32
    1664:	33 23       	and	r19, r19
    1666:	09 f4       	brne	.+2      	; 0x166a <dtoa_prf+0xce>
    1668:	42 c0       	rjmp	.+132    	; 0x16ee <dtoa_prf+0x152>
    166a:	41 93       	st	Z+, r20
    166c:	31 50       	subi	r19, 0x01	; 1
    166e:	fa cf       	rjmp	.-12     	; 0x1664 <dtoa_prf+0xc8>
    1670:	42 ff       	sbrs	r20, 2
    1672:	44 c0       	rjmp	.+136    	; 0x16fc <dtoa_prf+0x160>
    1674:	91 11       	cpse	r25, r1
    1676:	02 c0       	rjmp	.+4      	; 0x167c <dtoa_prf+0xe0>
    1678:	83 e0       	ldi	r24, 0x03	; 3
    167a:	01 c0       	rjmp	.+2      	; 0x167e <dtoa_prf+0xe2>
    167c:	84 e0       	ldi	r24, 0x04	; 4
    167e:	81 17       	cp	r24, r17
    1680:	18 f4       	brcc	.+6      	; 0x1688 <dtoa_prf+0xec>
    1682:	21 2f       	mov	r18, r17
    1684:	28 1b       	sub	r18, r24
    1686:	01 c0       	rjmp	.+2      	; 0x168a <dtoa_prf+0xee>
    1688:	20 e0       	ldi	r18, 0x00	; 0
    168a:	51 11       	cpse	r21, r1
    168c:	0b c0       	rjmp	.+22     	; 0x16a4 <dtoa_prf+0x108>
    168e:	f6 01       	movw	r30, r12
    1690:	82 2f       	mov	r24, r18
    1692:	30 e2       	ldi	r19, 0x20	; 32
    1694:	88 23       	and	r24, r24
    1696:	19 f0       	breq	.+6      	; 0x169e <dtoa_prf+0x102>
    1698:	31 93       	st	Z+, r19
    169a:	81 50       	subi	r24, 0x01	; 1
    169c:	fb cf       	rjmp	.-10     	; 0x1694 <dtoa_prf+0xf8>
    169e:	c2 0e       	add	r12, r18
    16a0:	d1 1c       	adc	r13, r1
    16a2:	20 e0       	ldi	r18, 0x00	; 0
    16a4:	99 23       	and	r25, r25
    16a6:	29 f0       	breq	.+10     	; 0x16b2 <dtoa_prf+0x116>
    16a8:	d6 01       	movw	r26, r12
    16aa:	9c 93       	st	X, r25
    16ac:	f6 01       	movw	r30, r12
    16ae:	31 96       	adiw	r30, 0x01	; 1
    16b0:	6f 01       	movw	r12, r30
    16b2:	c6 01       	movw	r24, r12
    16b4:	03 96       	adiw	r24, 0x03	; 3
    16b6:	e2 fe       	sbrs	r14, 2
    16b8:	0b c0       	rjmp	.+22     	; 0x16d0 <dtoa_prf+0x134>
    16ba:	39 e4       	ldi	r19, 0x49	; 73
    16bc:	d6 01       	movw	r26, r12
    16be:	3c 93       	st	X, r19
    16c0:	3e e4       	ldi	r19, 0x4E	; 78
    16c2:	11 96       	adiw	r26, 0x01	; 1
    16c4:	3c 93       	st	X, r19
    16c6:	11 97       	sbiw	r26, 0x01	; 1
    16c8:	36 e4       	ldi	r19, 0x46	; 70
    16ca:	12 96       	adiw	r26, 0x02	; 2
    16cc:	3c 93       	st	X, r19
    16ce:	07 c0       	rjmp	.+14     	; 0x16de <dtoa_prf+0x142>
    16d0:	39 e6       	ldi	r19, 0x69	; 105
    16d2:	f6 01       	movw	r30, r12
    16d4:	30 83       	st	Z, r19
    16d6:	3e e6       	ldi	r19, 0x6E	; 110
    16d8:	31 83       	std	Z+1, r19	; 0x01
    16da:	36 e6       	ldi	r19, 0x66	; 102
    16dc:	32 83       	std	Z+2, r19	; 0x02
    16de:	fc 01       	movw	r30, r24
    16e0:	32 2f       	mov	r19, r18
    16e2:	40 e2       	ldi	r20, 0x20	; 32
    16e4:	33 23       	and	r19, r19
    16e6:	19 f0       	breq	.+6      	; 0x16ee <dtoa_prf+0x152>
    16e8:	41 93       	st	Z+, r20
    16ea:	31 50       	subi	r19, 0x01	; 1
    16ec:	fb cf       	rjmp	.-10     	; 0x16e4 <dtoa_prf+0x148>
    16ee:	fc 01       	movw	r30, r24
    16f0:	e2 0f       	add	r30, r18
    16f2:	f1 1d       	adc	r31, r1
    16f4:	10 82       	st	Z, r1
    16f6:	8e ef       	ldi	r24, 0xFE	; 254
    16f8:	9f ef       	ldi	r25, 0xFF	; 255
    16fa:	a6 c0       	rjmp	.+332    	; 0x1848 <dtoa_prf+0x2ac>
    16fc:	21 e0       	ldi	r18, 0x01	; 1
    16fe:	30 e0       	ldi	r19, 0x00	; 0
    1700:	91 11       	cpse	r25, r1
    1702:	02 c0       	rjmp	.+4      	; 0x1708 <dtoa_prf+0x16c>
    1704:	20 e0       	ldi	r18, 0x00	; 0
    1706:	30 e0       	ldi	r19, 0x00	; 0
    1708:	16 16       	cp	r1, r22
    170a:	17 06       	cpc	r1, r23
    170c:	1c f4       	brge	.+6      	; 0x1714 <dtoa_prf+0x178>
    170e:	fb 01       	movw	r30, r22
    1710:	31 96       	adiw	r30, 0x01	; 1
    1712:	02 c0       	rjmp	.+4      	; 0x1718 <dtoa_prf+0x17c>
    1714:	e1 e0       	ldi	r30, 0x01	; 1
    1716:	f0 e0       	ldi	r31, 0x00	; 0
    1718:	2e 0f       	add	r18, r30
    171a:	3f 1f       	adc	r19, r31
    171c:	bb 20       	and	r11, r11
    171e:	21 f0       	breq	.+8      	; 0x1728 <dtoa_prf+0x18c>
    1720:	eb 2d       	mov	r30, r11
    1722:	f0 e0       	ldi	r31, 0x00	; 0
    1724:	31 96       	adiw	r30, 0x01	; 1
    1726:	02 c0       	rjmp	.+4      	; 0x172c <dtoa_prf+0x190>
    1728:	e0 e0       	ldi	r30, 0x00	; 0
    172a:	f0 e0       	ldi	r31, 0x00	; 0
    172c:	2e 0f       	add	r18, r30
    172e:	3f 1f       	adc	r19, r31
    1730:	e1 2f       	mov	r30, r17
    1732:	f0 e0       	ldi	r31, 0x00	; 0
    1734:	2e 17       	cp	r18, r30
    1736:	3f 07       	cpc	r19, r31
    1738:	1c f4       	brge	.+6      	; 0x1740 <dtoa_prf+0x1a4>
    173a:	12 1b       	sub	r17, r18
    173c:	21 2f       	mov	r18, r17
    173e:	01 c0       	rjmp	.+2      	; 0x1742 <dtoa_prf+0x1a6>
    1740:	20 e0       	ldi	r18, 0x00	; 0
    1742:	8e 2d       	mov	r24, r14
    1744:	88 71       	andi	r24, 0x18	; 24
    1746:	59 f4       	brne	.+22     	; 0x175e <dtoa_prf+0x1c2>
    1748:	f6 01       	movw	r30, r12
    174a:	82 2f       	mov	r24, r18
    174c:	30 e2       	ldi	r19, 0x20	; 32
    174e:	88 23       	and	r24, r24
    1750:	19 f0       	breq	.+6      	; 0x1758 <dtoa_prf+0x1bc>
    1752:	31 93       	st	Z+, r19
    1754:	81 50       	subi	r24, 0x01	; 1
    1756:	fb cf       	rjmp	.-10     	; 0x174e <dtoa_prf+0x1b2>
    1758:	c2 0e       	add	r12, r18
    175a:	d1 1c       	adc	r13, r1
    175c:	20 e0       	ldi	r18, 0x00	; 0
    175e:	99 23       	and	r25, r25
    1760:	29 f0       	breq	.+10     	; 0x176c <dtoa_prf+0x1d0>
    1762:	d6 01       	movw	r26, r12
    1764:	9c 93       	st	X, r25
    1766:	f6 01       	movw	r30, r12
    1768:	31 96       	adiw	r30, 0x01	; 1
    176a:	6f 01       	movw	r12, r30
    176c:	51 11       	cpse	r21, r1
    176e:	0b c0       	rjmp	.+22     	; 0x1786 <dtoa_prf+0x1ea>
    1770:	f6 01       	movw	r30, r12
    1772:	82 2f       	mov	r24, r18
    1774:	90 e3       	ldi	r25, 0x30	; 48
    1776:	88 23       	and	r24, r24
    1778:	19 f0       	breq	.+6      	; 0x1780 <dtoa_prf+0x1e4>
    177a:	91 93       	st	Z+, r25
    177c:	81 50       	subi	r24, 0x01	; 1
    177e:	fb cf       	rjmp	.-10     	; 0x1776 <dtoa_prf+0x1da>
    1780:	c2 0e       	add	r12, r18
    1782:	d1 1c       	adc	r13, r1
    1784:	20 e0       	ldi	r18, 0x00	; 0
    1786:	0f 2d       	mov	r16, r15
    1788:	06 0f       	add	r16, r22
    178a:	9a 81       	ldd	r25, Y+2	; 0x02
    178c:	34 2f       	mov	r19, r20
    178e:	30 71       	andi	r19, 0x10	; 16
    1790:	44 ff       	sbrs	r20, 4
    1792:	03 c0       	rjmp	.+6      	; 0x179a <dtoa_prf+0x1fe>
    1794:	91 33       	cpi	r25, 0x31	; 49
    1796:	09 f4       	brne	.+2      	; 0x179a <dtoa_prf+0x1fe>
    1798:	01 50       	subi	r16, 0x01	; 1
    179a:	10 16       	cp	r1, r16
    179c:	24 f4       	brge	.+8      	; 0x17a6 <dtoa_prf+0x20a>
    179e:	09 30       	cpi	r16, 0x09	; 9
    17a0:	18 f0       	brcs	.+6      	; 0x17a8 <dtoa_prf+0x20c>
    17a2:	08 e0       	ldi	r16, 0x08	; 8
    17a4:	01 c0       	rjmp	.+2      	; 0x17a8 <dtoa_prf+0x20c>
    17a6:	01 e0       	ldi	r16, 0x01	; 1
    17a8:	ab 01       	movw	r20, r22
    17aa:	77 ff       	sbrs	r23, 7
    17ac:	02 c0       	rjmp	.+4      	; 0x17b2 <dtoa_prf+0x216>
    17ae:	40 e0       	ldi	r20, 0x00	; 0
    17b0:	50 e0       	ldi	r21, 0x00	; 0
    17b2:	fb 01       	movw	r30, r22
    17b4:	e4 1b       	sub	r30, r20
    17b6:	f5 0b       	sbc	r31, r21
    17b8:	a1 e0       	ldi	r26, 0x01	; 1
    17ba:	b0 e0       	ldi	r27, 0x00	; 0
    17bc:	ac 0f       	add	r26, r28
    17be:	bd 1f       	adc	r27, r29
    17c0:	ea 0f       	add	r30, r26
    17c2:	fb 1f       	adc	r31, r27
    17c4:	8e e2       	ldi	r24, 0x2E	; 46
    17c6:	a8 2e       	mov	r10, r24
    17c8:	4b 01       	movw	r8, r22
    17ca:	80 1a       	sub	r8, r16
    17cc:	91 08       	sbc	r9, r1
    17ce:	0b 2d       	mov	r16, r11
    17d0:	10 e0       	ldi	r17, 0x00	; 0
    17d2:	11 95       	neg	r17
    17d4:	01 95       	neg	r16
    17d6:	11 09       	sbc	r17, r1
    17d8:	4f 3f       	cpi	r20, 0xFF	; 255
    17da:	bf ef       	ldi	r27, 0xFF	; 255
    17dc:	5b 07       	cpc	r21, r27
    17de:	21 f4       	brne	.+8      	; 0x17e8 <dtoa_prf+0x24c>
    17e0:	d6 01       	movw	r26, r12
    17e2:	ac 92       	st	X, r10
    17e4:	11 96       	adiw	r26, 0x01	; 1
    17e6:	6d 01       	movw	r12, r26
    17e8:	64 17       	cp	r22, r20
    17ea:	75 07       	cpc	r23, r21
    17ec:	2c f0       	brlt	.+10     	; 0x17f8 <dtoa_prf+0x25c>
    17ee:	84 16       	cp	r8, r20
    17f0:	95 06       	cpc	r9, r21
    17f2:	14 f4       	brge	.+4      	; 0x17f8 <dtoa_prf+0x25c>
    17f4:	81 81       	ldd	r24, Z+1	; 0x01
    17f6:	01 c0       	rjmp	.+2      	; 0x17fa <dtoa_prf+0x25e>
    17f8:	80 e3       	ldi	r24, 0x30	; 48
    17fa:	41 50       	subi	r20, 0x01	; 1
    17fc:	51 09       	sbc	r21, r1
    17fe:	31 96       	adiw	r30, 0x01	; 1
    1800:	d6 01       	movw	r26, r12
    1802:	11 96       	adiw	r26, 0x01	; 1
    1804:	7d 01       	movw	r14, r26
    1806:	40 17       	cp	r20, r16
    1808:	51 07       	cpc	r21, r17
    180a:	24 f0       	brlt	.+8      	; 0x1814 <dtoa_prf+0x278>
    180c:	d6 01       	movw	r26, r12
    180e:	8c 93       	st	X, r24
    1810:	67 01       	movw	r12, r14
    1812:	e2 cf       	rjmp	.-60     	; 0x17d8 <dtoa_prf+0x23c>
    1814:	64 17       	cp	r22, r20
    1816:	75 07       	cpc	r23, r21
    1818:	39 f4       	brne	.+14     	; 0x1828 <dtoa_prf+0x28c>
    181a:	96 33       	cpi	r25, 0x36	; 54
    181c:	20 f4       	brcc	.+8      	; 0x1826 <dtoa_prf+0x28a>
    181e:	95 33       	cpi	r25, 0x35	; 53
    1820:	19 f4       	brne	.+6      	; 0x1828 <dtoa_prf+0x28c>
    1822:	31 11       	cpse	r19, r1
    1824:	01 c0       	rjmp	.+2      	; 0x1828 <dtoa_prf+0x28c>
    1826:	81 e3       	ldi	r24, 0x31	; 49
    1828:	f6 01       	movw	r30, r12
    182a:	80 83       	st	Z, r24
    182c:	f7 01       	movw	r30, r14
    182e:	82 2f       	mov	r24, r18
    1830:	90 e2       	ldi	r25, 0x20	; 32
    1832:	88 23       	and	r24, r24
    1834:	19 f0       	breq	.+6      	; 0x183c <dtoa_prf+0x2a0>
    1836:	91 93       	st	Z+, r25
    1838:	81 50       	subi	r24, 0x01	; 1
    183a:	fb cf       	rjmp	.-10     	; 0x1832 <dtoa_prf+0x296>
    183c:	f7 01       	movw	r30, r14
    183e:	e2 0f       	add	r30, r18
    1840:	f1 1d       	adc	r31, r1
    1842:	10 82       	st	Z, r1
    1844:	80 e0       	ldi	r24, 0x00	; 0
    1846:	90 e0       	ldi	r25, 0x00	; 0
    1848:	29 96       	adiw	r28, 0x09	; 9
    184a:	ec e0       	ldi	r30, 0x0C	; 12
    184c:	0c 94 9f 0e 	jmp	0x1d3e	; 0x1d3e <__epilogue_restores__+0xc>

00001850 <strtod>:
    1850:	a0 e0       	ldi	r26, 0x00	; 0
    1852:	b0 e0       	ldi	r27, 0x00	; 0
    1854:	ee e2       	ldi	r30, 0x2E	; 46
    1856:	fc e0       	ldi	r31, 0x0C	; 12
    1858:	0c 94 83 0e 	jmp	0x1d06	; 0x1d06 <__prologue_saves__+0xc>
    185c:	ec 01       	movw	r28, r24
    185e:	6b 01       	movw	r12, r22
    1860:	61 15       	cp	r22, r1
    1862:	71 05       	cpc	r23, r1
    1864:	19 f0       	breq	.+6      	; 0x186c <strtod+0x1c>
    1866:	fb 01       	movw	r30, r22
    1868:	91 83       	std	Z+1, r25	; 0x01
    186a:	80 83       	st	Z, r24
    186c:	7e 01       	movw	r14, r28
    186e:	ff ef       	ldi	r31, 0xFF	; 255
    1870:	ef 1a       	sub	r14, r31
    1872:	ff 0a       	sbc	r15, r31
    1874:	08 81       	ld	r16, Y
    1876:	80 2f       	mov	r24, r16
    1878:	90 e0       	ldi	r25, 0x00	; 0
    187a:	0e 94 4e 0e 	call	0x1c9c	; 0x1c9c <isspace>
    187e:	89 2b       	or	r24, r25
    1880:	11 f0       	breq	.+4      	; 0x1886 <strtod+0x36>
    1882:	e7 01       	movw	r28, r14
    1884:	f3 cf       	rjmp	.-26     	; 0x186c <strtod+0x1c>
    1886:	0d 32       	cpi	r16, 0x2D	; 45
    1888:	39 f4       	brne	.+14     	; 0x1898 <strtod+0x48>
    188a:	7e 01       	movw	r14, r28
    188c:	82 e0       	ldi	r24, 0x02	; 2
    188e:	e8 0e       	add	r14, r24
    1890:	f1 1c       	adc	r15, r1
    1892:	09 81       	ldd	r16, Y+1	; 0x01
    1894:	11 e0       	ldi	r17, 0x01	; 1
    1896:	08 c0       	rjmp	.+16     	; 0x18a8 <strtod+0x58>
    1898:	0b 32       	cpi	r16, 0x2B	; 43
    189a:	29 f4       	brne	.+10     	; 0x18a6 <strtod+0x56>
    189c:	7e 01       	movw	r14, r28
    189e:	92 e0       	ldi	r25, 0x02	; 2
    18a0:	e9 0e       	add	r14, r25
    18a2:	f1 1c       	adc	r15, r1
    18a4:	09 81       	ldd	r16, Y+1	; 0x01
    18a6:	10 e0       	ldi	r17, 0x00	; 0
    18a8:	e7 01       	movw	r28, r14
    18aa:	21 97       	sbiw	r28, 0x01	; 1
    18ac:	43 e0       	ldi	r20, 0x03	; 3
    18ae:	50 e0       	ldi	r21, 0x00	; 0
    18b0:	6c e5       	ldi	r22, 0x5C	; 92
    18b2:	70 e0       	ldi	r23, 0x00	; 0
    18b4:	ce 01       	movw	r24, r28
    18b6:	0e 94 57 0e 	call	0x1cae	; 0x1cae <strncasecmp_P>
    18ba:	89 2b       	or	r24, r25
    18bc:	c1 f4       	brne	.+48     	; 0x18ee <strtod+0x9e>
    18be:	23 96       	adiw	r28, 0x03	; 3
    18c0:	45 e0       	ldi	r20, 0x05	; 5
    18c2:	50 e0       	ldi	r21, 0x00	; 0
    18c4:	67 e5       	ldi	r22, 0x57	; 87
    18c6:	70 e0       	ldi	r23, 0x00	; 0
    18c8:	ce 01       	movw	r24, r28
    18ca:	0e 94 57 0e 	call	0x1cae	; 0x1cae <strncasecmp_P>
    18ce:	89 2b       	or	r24, r25
    18d0:	09 f4       	brne	.+2      	; 0x18d4 <strtod+0x84>
    18d2:	25 96       	adiw	r28, 0x05	; 5
    18d4:	c1 14       	cp	r12, r1
    18d6:	d1 04       	cpc	r13, r1
    18d8:	19 f0       	breq	.+6      	; 0x18e0 <strtod+0x90>
    18da:	f6 01       	movw	r30, r12
    18dc:	d1 83       	std	Z+1, r29	; 0x01
    18de:	c0 83       	st	Z, r28
    18e0:	11 11       	cpse	r17, r1
    18e2:	f6 c0       	rjmp	.+492    	; 0x1ad0 <strtod+0x280>
    18e4:	60 e0       	ldi	r22, 0x00	; 0
    18e6:	70 e0       	ldi	r23, 0x00	; 0
    18e8:	80 e8       	ldi	r24, 0x80	; 128
    18ea:	9f e7       	ldi	r25, 0x7F	; 127
    18ec:	fa c0       	rjmp	.+500    	; 0x1ae2 <strtod+0x292>
    18ee:	43 e0       	ldi	r20, 0x03	; 3
    18f0:	50 e0       	ldi	r21, 0x00	; 0
    18f2:	64 e5       	ldi	r22, 0x54	; 84
    18f4:	70 e0       	ldi	r23, 0x00	; 0
    18f6:	ce 01       	movw	r24, r28
    18f8:	0e 94 57 0e 	call	0x1cae	; 0x1cae <strncasecmp_P>
    18fc:	89 2b       	or	r24, r25
    18fe:	59 f4       	brne	.+22     	; 0x1916 <strtod+0xc6>
    1900:	c1 14       	cp	r12, r1
    1902:	d1 04       	cpc	r13, r1
    1904:	09 f4       	brne	.+2      	; 0x1908 <strtod+0xb8>
    1906:	e9 c0       	rjmp	.+466    	; 0x1ada <strtod+0x28a>
    1908:	f2 e0       	ldi	r31, 0x02	; 2
    190a:	ef 0e       	add	r14, r31
    190c:	f1 1c       	adc	r15, r1
    190e:	f6 01       	movw	r30, r12
    1910:	f1 82       	std	Z+1, r15	; 0x01
    1912:	e0 82       	st	Z, r14
    1914:	e2 c0       	rjmp	.+452    	; 0x1ada <strtod+0x28a>
    1916:	20 e0       	ldi	r18, 0x00	; 0
    1918:	30 e0       	ldi	r19, 0x00	; 0
    191a:	a9 01       	movw	r20, r18
    191c:	c0 e0       	ldi	r28, 0x00	; 0
    191e:	d0 e0       	ldi	r29, 0x00	; 0
    1920:	f7 01       	movw	r30, r14
    1922:	80 ed       	ldi	r24, 0xD0	; 208
    1924:	a8 2e       	mov	r10, r24
    1926:	a0 0e       	add	r10, r16
    1928:	89 e0       	ldi	r24, 0x09	; 9
    192a:	8a 15       	cp	r24, r10
    192c:	30 f1       	brcs	.+76     	; 0x197a <strtod+0x12a>
    192e:	91 2f       	mov	r25, r17
    1930:	92 60       	ori	r25, 0x02	; 2
    1932:	b9 2e       	mov	r11, r25
    1934:	81 2f       	mov	r24, r17
    1936:	88 70       	andi	r24, 0x08	; 8
    1938:	12 ff       	sbrs	r17, 2
    193a:	04 c0       	rjmp	.+8      	; 0x1944 <strtod+0xf4>
    193c:	81 11       	cpse	r24, r1
    193e:	24 c0       	rjmp	.+72     	; 0x1988 <strtod+0x138>
    1940:	21 96       	adiw	r28, 0x01	; 1
    1942:	22 c0       	rjmp	.+68     	; 0x1988 <strtod+0x138>
    1944:	81 11       	cpse	r24, r1
    1946:	21 97       	sbiw	r28, 0x01	; 1
    1948:	a5 e0       	ldi	r26, 0x05	; 5
    194a:	b0 e0       	ldi	r27, 0x00	; 0
    194c:	0e 94 72 0e 	call	0x1ce4	; 0x1ce4 <__muluhisi3>
    1950:	dc 01       	movw	r26, r24
    1952:	cb 01       	movw	r24, r22
    1954:	88 0f       	add	r24, r24
    1956:	99 1f       	adc	r25, r25
    1958:	aa 1f       	adc	r26, r26
    195a:	bb 1f       	adc	r27, r27
    195c:	9c 01       	movw	r18, r24
    195e:	ad 01       	movw	r20, r26
    1960:	2a 0d       	add	r18, r10
    1962:	31 1d       	adc	r19, r1
    1964:	41 1d       	adc	r20, r1
    1966:	51 1d       	adc	r21, r1
    1968:	28 39       	cpi	r18, 0x98	; 152
    196a:	89 e9       	ldi	r24, 0x99	; 153
    196c:	38 07       	cpc	r19, r24
    196e:	48 07       	cpc	r20, r24
    1970:	89 e1       	ldi	r24, 0x19	; 25
    1972:	58 07       	cpc	r21, r24
    1974:	48 f0       	brcs	.+18     	; 0x1988 <strtod+0x138>
    1976:	16 60       	ori	r17, 0x06	; 6
    1978:	06 c0       	rjmp	.+12     	; 0x1986 <strtod+0x136>
    197a:	9e ef       	ldi	r25, 0xFE	; 254
    197c:	a9 12       	cpse	r10, r25
    197e:	0a c0       	rjmp	.+20     	; 0x1994 <strtod+0x144>
    1980:	13 fd       	sbrc	r17, 3
    1982:	40 c0       	rjmp	.+128    	; 0x1a04 <strtod+0x1b4>
    1984:	18 60       	ori	r17, 0x08	; 8
    1986:	b1 2e       	mov	r11, r17
    1988:	8f ef       	ldi	r24, 0xFF	; 255
    198a:	e8 1a       	sub	r14, r24
    198c:	f8 0a       	sbc	r15, r24
    198e:	00 81       	ld	r16, Z
    1990:	1b 2d       	mov	r17, r11
    1992:	c6 cf       	rjmp	.-116    	; 0x1920 <strtod+0xd0>
    1994:	80 2f       	mov	r24, r16
    1996:	8f 7d       	andi	r24, 0xDF	; 223
    1998:	85 34       	cpi	r24, 0x45	; 69
    199a:	a1 f5       	brne	.+104    	; 0x1a04 <strtod+0x1b4>
    199c:	80 81       	ld	r24, Z
    199e:	8d 32       	cpi	r24, 0x2D	; 45
    19a0:	11 f4       	brne	.+4      	; 0x19a6 <strtod+0x156>
    19a2:	10 61       	ori	r17, 0x10	; 16
    19a4:	06 c0       	rjmp	.+12     	; 0x19b2 <strtod+0x162>
    19a6:	8b 32       	cpi	r24, 0x2B	; 43
    19a8:	21 f0       	breq	.+8      	; 0x19b2 <strtod+0x162>
    19aa:	31 96       	adiw	r30, 0x01	; 1
    19ac:	61 e0       	ldi	r22, 0x01	; 1
    19ae:	70 e0       	ldi	r23, 0x00	; 0
    19b0:	04 c0       	rjmp	.+8      	; 0x19ba <strtod+0x16a>
    19b2:	81 81       	ldd	r24, Z+1	; 0x01
    19b4:	32 96       	adiw	r30, 0x02	; 2
    19b6:	62 e0       	ldi	r22, 0x02	; 2
    19b8:	70 e0       	ldi	r23, 0x00	; 0
    19ba:	80 53       	subi	r24, 0x30	; 48
    19bc:	8a 30       	cpi	r24, 0x0A	; 10
    19be:	18 f0       	brcs	.+6      	; 0x19c6 <strtod+0x176>
    19c0:	e6 1b       	sub	r30, r22
    19c2:	f7 0b       	sbc	r31, r23
    19c4:	1f c0       	rjmp	.+62     	; 0x1a04 <strtod+0x1b4>
    19c6:	60 e0       	ldi	r22, 0x00	; 0
    19c8:	70 e0       	ldi	r23, 0x00	; 0
    19ca:	60 38       	cpi	r22, 0x80	; 128
    19cc:	9c e0       	ldi	r25, 0x0C	; 12
    19ce:	79 07       	cpc	r23, r25
    19d0:	5c f4       	brge	.+22     	; 0x19e8 <strtod+0x198>
    19d2:	db 01       	movw	r26, r22
    19d4:	aa 0f       	add	r26, r26
    19d6:	bb 1f       	adc	r27, r27
    19d8:	aa 0f       	add	r26, r26
    19da:	bb 1f       	adc	r27, r27
    19dc:	6a 0f       	add	r22, r26
    19de:	7b 1f       	adc	r23, r27
    19e0:	66 0f       	add	r22, r22
    19e2:	77 1f       	adc	r23, r23
    19e4:	68 0f       	add	r22, r24
    19e6:	71 1d       	adc	r23, r1
    19e8:	31 96       	adiw	r30, 0x01	; 1
    19ea:	df 01       	movw	r26, r30
    19ec:	11 97       	sbiw	r26, 0x01	; 1
    19ee:	8c 91       	ld	r24, X
    19f0:	80 53       	subi	r24, 0x30	; 48
    19f2:	8a 30       	cpi	r24, 0x0A	; 10
    19f4:	50 f3       	brcs	.-44     	; 0x19ca <strtod+0x17a>
    19f6:	14 ff       	sbrs	r17, 4
    19f8:	03 c0       	rjmp	.+6      	; 0x1a00 <strtod+0x1b0>
    19fa:	71 95       	neg	r23
    19fc:	61 95       	neg	r22
    19fe:	71 09       	sbc	r23, r1
    1a00:	c6 0f       	add	r28, r22
    1a02:	d7 1f       	adc	r29, r23
    1a04:	11 ff       	sbrs	r17, 1
    1a06:	08 c0       	rjmp	.+16     	; 0x1a18 <strtod+0x1c8>
    1a08:	c1 14       	cp	r12, r1
    1a0a:	d1 04       	cpc	r13, r1
    1a0c:	29 f0       	breq	.+10     	; 0x1a18 <strtod+0x1c8>
    1a0e:	cf 01       	movw	r24, r30
    1a10:	01 97       	sbiw	r24, 0x01	; 1
    1a12:	f6 01       	movw	r30, r12
    1a14:	91 83       	std	Z+1, r25	; 0x01
    1a16:	80 83       	st	Z, r24
    1a18:	ca 01       	movw	r24, r20
    1a1a:	b9 01       	movw	r22, r18
    1a1c:	0e 94 59 09 	call	0x12b2	; 0x12b2 <__floatunsisf>
    1a20:	21 2f       	mov	r18, r17
    1a22:	23 70       	andi	r18, 0x03	; 3
    1a24:	23 30       	cpi	r18, 0x03	; 3
    1a26:	19 f0       	breq	.+6      	; 0x1a2e <strtod+0x1de>
    1a28:	4b 01       	movw	r8, r22
    1a2a:	5c 01       	movw	r10, r24
    1a2c:	06 c0       	rjmp	.+12     	; 0x1a3a <strtod+0x1ea>
    1a2e:	4b 01       	movw	r8, r22
    1a30:	5c 01       	movw	r10, r24
    1a32:	b7 fa       	bst	r11, 7
    1a34:	b0 94       	com	r11
    1a36:	b7 f8       	bld	r11, 7
    1a38:	b0 94       	com	r11
    1a3a:	20 e0       	ldi	r18, 0x00	; 0
    1a3c:	30 e0       	ldi	r19, 0x00	; 0
    1a3e:	a9 01       	movw	r20, r18
    1a40:	c5 01       	movw	r24, r10
    1a42:	b4 01       	movw	r22, r8
    1a44:	0e 94 ac 08 	call	0x1158	; 0x1158 <__cmpsf2>
    1a48:	88 23       	and	r24, r24
    1a4a:	09 f4       	brne	.+2      	; 0x1a4e <strtod+0x1fe>
    1a4c:	3e c0       	rjmp	.+124    	; 0x1aca <strtod+0x27a>
    1a4e:	d7 ff       	sbrs	r29, 7
    1a50:	06 c0       	rjmp	.+12     	; 0x1a5e <strtod+0x20e>
    1a52:	d1 95       	neg	r29
    1a54:	c1 95       	neg	r28
    1a56:	d1 09       	sbc	r29, r1
    1a58:	03 e7       	ldi	r16, 0x73	; 115
    1a5a:	10 e0       	ldi	r17, 0x00	; 0
    1a5c:	02 c0       	rjmp	.+4      	; 0x1a62 <strtod+0x212>
    1a5e:	0b e8       	ldi	r16, 0x8B	; 139
    1a60:	10 e0       	ldi	r17, 0x00	; 0
    1a62:	68 01       	movw	r12, r16
    1a64:	f8 e1       	ldi	r31, 0x18	; 24
    1a66:	cf 1a       	sub	r12, r31
    1a68:	d1 08       	sbc	r13, r1
    1a6a:	90 e2       	ldi	r25, 0x20	; 32
    1a6c:	e9 2e       	mov	r14, r25
    1a6e:	f1 2c       	mov	r15, r1
    1a70:	ce 15       	cp	r28, r14
    1a72:	df 05       	cpc	r29, r15
    1a74:	74 f0       	brlt	.+28     	; 0x1a92 <strtod+0x242>
    1a76:	f8 01       	movw	r30, r16
    1a78:	25 91       	lpm	r18, Z+
    1a7a:	35 91       	lpm	r19, Z+
    1a7c:	45 91       	lpm	r20, Z+
    1a7e:	54 91       	lpm	r21, Z
    1a80:	c5 01       	movw	r24, r10
    1a82:	b4 01       	movw	r22, r8
    1a84:	0e 94 10 0a 	call	0x1420	; 0x1420 <__mulsf3>
    1a88:	4b 01       	movw	r8, r22
    1a8a:	5c 01       	movw	r10, r24
    1a8c:	ce 19       	sub	r28, r14
    1a8e:	df 09       	sbc	r29, r15
    1a90:	ef cf       	rjmp	.-34     	; 0x1a70 <strtod+0x220>
    1a92:	04 50       	subi	r16, 0x04	; 4
    1a94:	11 09       	sbc	r17, r1
    1a96:	f5 94       	asr	r15
    1a98:	e7 94       	ror	r14
    1a9a:	0c 15       	cp	r16, r12
    1a9c:	1d 05       	cpc	r17, r13
    1a9e:	41 f7       	brne	.-48     	; 0x1a70 <strtod+0x220>
    1aa0:	8a 2d       	mov	r24, r10
    1aa2:	88 0f       	add	r24, r24
    1aa4:	8b 2d       	mov	r24, r11
    1aa6:	88 1f       	adc	r24, r24
    1aa8:	8f 3f       	cpi	r24, 0xFF	; 255
    1aaa:	49 f0       	breq	.+18     	; 0x1abe <strtod+0x26e>
    1aac:	20 e0       	ldi	r18, 0x00	; 0
    1aae:	30 e0       	ldi	r19, 0x00	; 0
    1ab0:	a9 01       	movw	r20, r18
    1ab2:	c5 01       	movw	r24, r10
    1ab4:	b4 01       	movw	r22, r8
    1ab6:	0e 94 ac 08 	call	0x1158	; 0x1158 <__cmpsf2>
    1aba:	81 11       	cpse	r24, r1
    1abc:	06 c0       	rjmp	.+12     	; 0x1aca <strtod+0x27a>
    1abe:	82 e2       	ldi	r24, 0x22	; 34
    1ac0:	90 e0       	ldi	r25, 0x00	; 0
    1ac2:	90 93 c3 02 	sts	0x02C3, r25	; 0x8002c3 <errno+0x1>
    1ac6:	80 93 c2 02 	sts	0x02C2, r24	; 0x8002c2 <errno>
    1aca:	c5 01       	movw	r24, r10
    1acc:	b4 01       	movw	r22, r8
    1ace:	09 c0       	rjmp	.+18     	; 0x1ae2 <strtod+0x292>
    1ad0:	60 e0       	ldi	r22, 0x00	; 0
    1ad2:	70 e0       	ldi	r23, 0x00	; 0
    1ad4:	80 e8       	ldi	r24, 0x80	; 128
    1ad6:	9f ef       	ldi	r25, 0xFF	; 255
    1ad8:	04 c0       	rjmp	.+8      	; 0x1ae2 <strtod+0x292>
    1ada:	60 e0       	ldi	r22, 0x00	; 0
    1adc:	70 e0       	ldi	r23, 0x00	; 0
    1ade:	80 ec       	ldi	r24, 0xC0	; 192
    1ae0:	9f e7       	ldi	r25, 0x7F	; 127
    1ae2:	cd b7       	in	r28, 0x3d	; 61
    1ae4:	de b7       	in	r29, 0x3e	; 62
    1ae6:	ec e0       	ldi	r30, 0x0C	; 12
    1ae8:	0c 94 9f 0e 	jmp	0x1d3e	; 0x1d3e <__epilogue_restores__+0xc>

00001aec <__ftoa_engine>:
    1aec:	28 30       	cpi	r18, 0x08	; 8
    1aee:	08 f0       	brcs	.+2      	; 0x1af2 <__ftoa_engine+0x6>
    1af0:	27 e0       	ldi	r18, 0x07	; 7
    1af2:	33 27       	eor	r19, r19
    1af4:	da 01       	movw	r26, r20
    1af6:	99 0f       	add	r25, r25
    1af8:	31 1d       	adc	r19, r1
    1afa:	87 fd       	sbrc	r24, 7
    1afc:	91 60       	ori	r25, 0x01	; 1
    1afe:	00 96       	adiw	r24, 0x00	; 0
    1b00:	61 05       	cpc	r22, r1
    1b02:	71 05       	cpc	r23, r1
    1b04:	39 f4       	brne	.+14     	; 0x1b14 <__ftoa_engine+0x28>
    1b06:	32 60       	ori	r19, 0x02	; 2
    1b08:	2e 5f       	subi	r18, 0xFE	; 254
    1b0a:	3d 93       	st	X+, r19
    1b0c:	30 e3       	ldi	r19, 0x30	; 48
    1b0e:	2a 95       	dec	r18
    1b10:	e1 f7       	brne	.-8      	; 0x1b0a <__ftoa_engine+0x1e>
    1b12:	08 95       	ret
    1b14:	9f 3f       	cpi	r25, 0xFF	; 255
    1b16:	30 f0       	brcs	.+12     	; 0x1b24 <__ftoa_engine+0x38>
    1b18:	80 38       	cpi	r24, 0x80	; 128
    1b1a:	71 05       	cpc	r23, r1
    1b1c:	61 05       	cpc	r22, r1
    1b1e:	09 f0       	breq	.+2      	; 0x1b22 <__ftoa_engine+0x36>
    1b20:	3c 5f       	subi	r19, 0xFC	; 252
    1b22:	3c 5f       	subi	r19, 0xFC	; 252
    1b24:	3d 93       	st	X+, r19
    1b26:	91 30       	cpi	r25, 0x01	; 1
    1b28:	08 f0       	brcs	.+2      	; 0x1b2c <__ftoa_engine+0x40>
    1b2a:	80 68       	ori	r24, 0x80	; 128
    1b2c:	91 1d       	adc	r25, r1
    1b2e:	df 93       	push	r29
    1b30:	cf 93       	push	r28
    1b32:	1f 93       	push	r17
    1b34:	0f 93       	push	r16
    1b36:	ff 92       	push	r15
    1b38:	ef 92       	push	r14
    1b3a:	19 2f       	mov	r17, r25
    1b3c:	98 7f       	andi	r25, 0xF8	; 248
    1b3e:	96 95       	lsr	r25
    1b40:	e9 2f       	mov	r30, r25
    1b42:	96 95       	lsr	r25
    1b44:	96 95       	lsr	r25
    1b46:	e9 0f       	add	r30, r25
    1b48:	ff 27       	eor	r31, r31
    1b4a:	e7 51       	subi	r30, 0x17	; 23
    1b4c:	ff 4f       	sbci	r31, 0xFF	; 255
    1b4e:	99 27       	eor	r25, r25
    1b50:	33 27       	eor	r19, r19
    1b52:	ee 24       	eor	r14, r14
    1b54:	ff 24       	eor	r15, r15
    1b56:	a7 01       	movw	r20, r14
    1b58:	e7 01       	movw	r28, r14
    1b5a:	05 90       	lpm	r0, Z+
    1b5c:	08 94       	sec
    1b5e:	07 94       	ror	r0
    1b60:	28 f4       	brcc	.+10     	; 0x1b6c <__ftoa_engine+0x80>
    1b62:	36 0f       	add	r19, r22
    1b64:	e7 1e       	adc	r14, r23
    1b66:	f8 1e       	adc	r15, r24
    1b68:	49 1f       	adc	r20, r25
    1b6a:	51 1d       	adc	r21, r1
    1b6c:	66 0f       	add	r22, r22
    1b6e:	77 1f       	adc	r23, r23
    1b70:	88 1f       	adc	r24, r24
    1b72:	99 1f       	adc	r25, r25
    1b74:	06 94       	lsr	r0
    1b76:	a1 f7       	brne	.-24     	; 0x1b60 <__ftoa_engine+0x74>
    1b78:	05 90       	lpm	r0, Z+
    1b7a:	07 94       	ror	r0
    1b7c:	28 f4       	brcc	.+10     	; 0x1b88 <__ftoa_engine+0x9c>
    1b7e:	e7 0e       	add	r14, r23
    1b80:	f8 1e       	adc	r15, r24
    1b82:	49 1f       	adc	r20, r25
    1b84:	56 1f       	adc	r21, r22
    1b86:	c1 1d       	adc	r28, r1
    1b88:	77 0f       	add	r23, r23
    1b8a:	88 1f       	adc	r24, r24
    1b8c:	99 1f       	adc	r25, r25
    1b8e:	66 1f       	adc	r22, r22
    1b90:	06 94       	lsr	r0
    1b92:	a1 f7       	brne	.-24     	; 0x1b7c <__ftoa_engine+0x90>
    1b94:	05 90       	lpm	r0, Z+
    1b96:	07 94       	ror	r0
    1b98:	28 f4       	brcc	.+10     	; 0x1ba4 <__ftoa_engine+0xb8>
    1b9a:	f8 0e       	add	r15, r24
    1b9c:	49 1f       	adc	r20, r25
    1b9e:	56 1f       	adc	r21, r22
    1ba0:	c7 1f       	adc	r28, r23
    1ba2:	d1 1d       	adc	r29, r1
    1ba4:	88 0f       	add	r24, r24
    1ba6:	99 1f       	adc	r25, r25
    1ba8:	66 1f       	adc	r22, r22
    1baa:	77 1f       	adc	r23, r23
    1bac:	06 94       	lsr	r0
    1bae:	a1 f7       	brne	.-24     	; 0x1b98 <__ftoa_engine+0xac>
    1bb0:	05 90       	lpm	r0, Z+
    1bb2:	07 94       	ror	r0
    1bb4:	20 f4       	brcc	.+8      	; 0x1bbe <__ftoa_engine+0xd2>
    1bb6:	49 0f       	add	r20, r25
    1bb8:	56 1f       	adc	r21, r22
    1bba:	c7 1f       	adc	r28, r23
    1bbc:	d8 1f       	adc	r29, r24
    1bbe:	99 0f       	add	r25, r25
    1bc0:	66 1f       	adc	r22, r22
    1bc2:	77 1f       	adc	r23, r23
    1bc4:	88 1f       	adc	r24, r24
    1bc6:	06 94       	lsr	r0
    1bc8:	a9 f7       	brne	.-22     	; 0x1bb4 <__ftoa_engine+0xc8>
    1bca:	84 91       	lpm	r24, Z
    1bcc:	10 95       	com	r17
    1bce:	17 70       	andi	r17, 0x07	; 7
    1bd0:	41 f0       	breq	.+16     	; 0x1be2 <__ftoa_engine+0xf6>
    1bd2:	d6 95       	lsr	r29
    1bd4:	c7 95       	ror	r28
    1bd6:	57 95       	ror	r21
    1bd8:	47 95       	ror	r20
    1bda:	f7 94       	ror	r15
    1bdc:	e7 94       	ror	r14
    1bde:	1a 95       	dec	r17
    1be0:	c1 f7       	brne	.-16     	; 0x1bd2 <__ftoa_engine+0xe6>
    1be2:	ef e8       	ldi	r30, 0x8F	; 143
    1be4:	f0 e0       	ldi	r31, 0x00	; 0
    1be6:	68 94       	set
    1be8:	15 90       	lpm	r1, Z+
    1bea:	15 91       	lpm	r17, Z+
    1bec:	35 91       	lpm	r19, Z+
    1bee:	65 91       	lpm	r22, Z+
    1bf0:	95 91       	lpm	r25, Z+
    1bf2:	05 90       	lpm	r0, Z+
    1bf4:	7f e2       	ldi	r23, 0x2F	; 47
    1bf6:	73 95       	inc	r23
    1bf8:	e1 18       	sub	r14, r1
    1bfa:	f1 0a       	sbc	r15, r17
    1bfc:	43 0b       	sbc	r20, r19
    1bfe:	56 0b       	sbc	r21, r22
    1c00:	c9 0b       	sbc	r28, r25
    1c02:	d0 09       	sbc	r29, r0
    1c04:	c0 f7       	brcc	.-16     	; 0x1bf6 <__ftoa_engine+0x10a>
    1c06:	e1 0c       	add	r14, r1
    1c08:	f1 1e       	adc	r15, r17
    1c0a:	43 1f       	adc	r20, r19
    1c0c:	56 1f       	adc	r21, r22
    1c0e:	c9 1f       	adc	r28, r25
    1c10:	d0 1d       	adc	r29, r0
    1c12:	7e f4       	brtc	.+30     	; 0x1c32 <__ftoa_engine+0x146>
    1c14:	70 33       	cpi	r23, 0x30	; 48
    1c16:	11 f4       	brne	.+4      	; 0x1c1c <__ftoa_engine+0x130>
    1c18:	8a 95       	dec	r24
    1c1a:	e6 cf       	rjmp	.-52     	; 0x1be8 <__ftoa_engine+0xfc>
    1c1c:	e8 94       	clt
    1c1e:	01 50       	subi	r16, 0x01	; 1
    1c20:	30 f0       	brcs	.+12     	; 0x1c2e <__ftoa_engine+0x142>
    1c22:	08 0f       	add	r16, r24
    1c24:	0a f4       	brpl	.+2      	; 0x1c28 <__ftoa_engine+0x13c>
    1c26:	00 27       	eor	r16, r16
    1c28:	02 17       	cp	r16, r18
    1c2a:	08 f4       	brcc	.+2      	; 0x1c2e <__ftoa_engine+0x142>
    1c2c:	20 2f       	mov	r18, r16
    1c2e:	23 95       	inc	r18
    1c30:	02 2f       	mov	r16, r18
    1c32:	7a 33       	cpi	r23, 0x3A	; 58
    1c34:	28 f0       	brcs	.+10     	; 0x1c40 <__ftoa_engine+0x154>
    1c36:	79 e3       	ldi	r23, 0x39	; 57
    1c38:	7d 93       	st	X+, r23
    1c3a:	2a 95       	dec	r18
    1c3c:	e9 f7       	brne	.-6      	; 0x1c38 <__ftoa_engine+0x14c>
    1c3e:	10 c0       	rjmp	.+32     	; 0x1c60 <__ftoa_engine+0x174>
    1c40:	7d 93       	st	X+, r23
    1c42:	2a 95       	dec	r18
    1c44:	89 f6       	brne	.-94     	; 0x1be8 <__ftoa_engine+0xfc>
    1c46:	06 94       	lsr	r0
    1c48:	97 95       	ror	r25
    1c4a:	67 95       	ror	r22
    1c4c:	37 95       	ror	r19
    1c4e:	17 95       	ror	r17
    1c50:	17 94       	ror	r1
    1c52:	e1 18       	sub	r14, r1
    1c54:	f1 0a       	sbc	r15, r17
    1c56:	43 0b       	sbc	r20, r19
    1c58:	56 0b       	sbc	r21, r22
    1c5a:	c9 0b       	sbc	r28, r25
    1c5c:	d0 09       	sbc	r29, r0
    1c5e:	98 f0       	brcs	.+38     	; 0x1c86 <__ftoa_engine+0x19a>
    1c60:	23 95       	inc	r18
    1c62:	7e 91       	ld	r23, -X
    1c64:	73 95       	inc	r23
    1c66:	7a 33       	cpi	r23, 0x3A	; 58
    1c68:	08 f0       	brcs	.+2      	; 0x1c6c <__ftoa_engine+0x180>
    1c6a:	70 e3       	ldi	r23, 0x30	; 48
    1c6c:	7c 93       	st	X, r23
    1c6e:	20 13       	cpse	r18, r16
    1c70:	b8 f7       	brcc	.-18     	; 0x1c60 <__ftoa_engine+0x174>
    1c72:	7e 91       	ld	r23, -X
    1c74:	70 61       	ori	r23, 0x10	; 16
    1c76:	7d 93       	st	X+, r23
    1c78:	30 f0       	brcs	.+12     	; 0x1c86 <__ftoa_engine+0x19a>
    1c7a:	83 95       	inc	r24
    1c7c:	71 e3       	ldi	r23, 0x31	; 49
    1c7e:	7d 93       	st	X+, r23
    1c80:	70 e3       	ldi	r23, 0x30	; 48
    1c82:	2a 95       	dec	r18
    1c84:	e1 f7       	brne	.-8      	; 0x1c7e <__ftoa_engine+0x192>
    1c86:	11 24       	eor	r1, r1
    1c88:	ef 90       	pop	r14
    1c8a:	ff 90       	pop	r15
    1c8c:	0f 91       	pop	r16
    1c8e:	1f 91       	pop	r17
    1c90:	cf 91       	pop	r28
    1c92:	df 91       	pop	r29
    1c94:	99 27       	eor	r25, r25
    1c96:	87 fd       	sbrc	r24, 7
    1c98:	90 95       	com	r25
    1c9a:	08 95       	ret

00001c9c <isspace>:
    1c9c:	91 11       	cpse	r25, r1
    1c9e:	0c 94 6f 0e 	jmp	0x1cde	; 0x1cde <__ctype_isfalse>
    1ca2:	80 32       	cpi	r24, 0x20	; 32
    1ca4:	19 f0       	breq	.+6      	; 0x1cac <isspace+0x10>
    1ca6:	89 50       	subi	r24, 0x09	; 9
    1ca8:	85 50       	subi	r24, 0x05	; 5
    1caa:	c8 f7       	brcc	.-14     	; 0x1c9e <isspace+0x2>
    1cac:	08 95       	ret

00001cae <strncasecmp_P>:
    1cae:	fb 01       	movw	r30, r22
    1cb0:	dc 01       	movw	r26, r24
    1cb2:	41 50       	subi	r20, 0x01	; 1
    1cb4:	50 40       	sbci	r21, 0x00	; 0
    1cb6:	88 f0       	brcs	.+34     	; 0x1cda <strncasecmp_P+0x2c>
    1cb8:	8d 91       	ld	r24, X+
    1cba:	81 34       	cpi	r24, 0x41	; 65
    1cbc:	1c f0       	brlt	.+6      	; 0x1cc4 <strncasecmp_P+0x16>
    1cbe:	8b 35       	cpi	r24, 0x5B	; 91
    1cc0:	0c f4       	brge	.+2      	; 0x1cc4 <strncasecmp_P+0x16>
    1cc2:	80 5e       	subi	r24, 0xE0	; 224
    1cc4:	65 91       	lpm	r22, Z+
    1cc6:	61 34       	cpi	r22, 0x41	; 65
    1cc8:	1c f0       	brlt	.+6      	; 0x1cd0 <strncasecmp_P+0x22>
    1cca:	6b 35       	cpi	r22, 0x5B	; 91
    1ccc:	0c f4       	brge	.+2      	; 0x1cd0 <strncasecmp_P+0x22>
    1cce:	60 5e       	subi	r22, 0xE0	; 224
    1cd0:	86 1b       	sub	r24, r22
    1cd2:	61 11       	cpse	r22, r1
    1cd4:	71 f3       	breq	.-36     	; 0x1cb2 <strncasecmp_P+0x4>
    1cd6:	99 0b       	sbc	r25, r25
    1cd8:	08 95       	ret
    1cda:	88 1b       	sub	r24, r24
    1cdc:	fc cf       	rjmp	.-8      	; 0x1cd6 <strncasecmp_P+0x28>

00001cde <__ctype_isfalse>:
    1cde:	99 27       	eor	r25, r25
    1ce0:	88 27       	eor	r24, r24

00001ce2 <__ctype_istrue>:
    1ce2:	08 95       	ret

00001ce4 <__muluhisi3>:
    1ce4:	0e 94 b4 0e 	call	0x1d68	; 0x1d68 <__umulhisi3>
    1ce8:	a5 9f       	mul	r26, r21
    1cea:	90 0d       	add	r25, r0
    1cec:	b4 9f       	mul	r27, r20
    1cee:	90 0d       	add	r25, r0
    1cf0:	a4 9f       	mul	r26, r20
    1cf2:	80 0d       	add	r24, r0
    1cf4:	91 1d       	adc	r25, r1
    1cf6:	11 24       	eor	r1, r1
    1cf8:	08 95       	ret

00001cfa <__prologue_saves__>:
    1cfa:	2f 92       	push	r2
    1cfc:	3f 92       	push	r3
    1cfe:	4f 92       	push	r4
    1d00:	5f 92       	push	r5
    1d02:	6f 92       	push	r6
    1d04:	7f 92       	push	r7
    1d06:	8f 92       	push	r8
    1d08:	9f 92       	push	r9
    1d0a:	af 92       	push	r10
    1d0c:	bf 92       	push	r11
    1d0e:	cf 92       	push	r12
    1d10:	df 92       	push	r13
    1d12:	ef 92       	push	r14
    1d14:	ff 92       	push	r15
    1d16:	0f 93       	push	r16
    1d18:	1f 93       	push	r17
    1d1a:	cf 93       	push	r28
    1d1c:	df 93       	push	r29
    1d1e:	cd b7       	in	r28, 0x3d	; 61
    1d20:	de b7       	in	r29, 0x3e	; 62
    1d22:	ca 1b       	sub	r28, r26
    1d24:	db 0b       	sbc	r29, r27
    1d26:	0f b6       	in	r0, 0x3f	; 63
    1d28:	f8 94       	cli
    1d2a:	de bf       	out	0x3e, r29	; 62
    1d2c:	0f be       	out	0x3f, r0	; 63
    1d2e:	cd bf       	out	0x3d, r28	; 61
    1d30:	09 94       	ijmp

00001d32 <__epilogue_restores__>:
    1d32:	2a 88       	ldd	r2, Y+18	; 0x12
    1d34:	39 88       	ldd	r3, Y+17	; 0x11
    1d36:	48 88       	ldd	r4, Y+16	; 0x10
    1d38:	5f 84       	ldd	r5, Y+15	; 0x0f
    1d3a:	6e 84       	ldd	r6, Y+14	; 0x0e
    1d3c:	7d 84       	ldd	r7, Y+13	; 0x0d
    1d3e:	8c 84       	ldd	r8, Y+12	; 0x0c
    1d40:	9b 84       	ldd	r9, Y+11	; 0x0b
    1d42:	aa 84       	ldd	r10, Y+10	; 0x0a
    1d44:	b9 84       	ldd	r11, Y+9	; 0x09
    1d46:	c8 84       	ldd	r12, Y+8	; 0x08
    1d48:	df 80       	ldd	r13, Y+7	; 0x07
    1d4a:	ee 80       	ldd	r14, Y+6	; 0x06
    1d4c:	fd 80       	ldd	r15, Y+5	; 0x05
    1d4e:	0c 81       	ldd	r16, Y+4	; 0x04
    1d50:	1b 81       	ldd	r17, Y+3	; 0x03
    1d52:	aa 81       	ldd	r26, Y+2	; 0x02
    1d54:	b9 81       	ldd	r27, Y+1	; 0x01
    1d56:	ce 0f       	add	r28, r30
    1d58:	d1 1d       	adc	r29, r1
    1d5a:	0f b6       	in	r0, 0x3f	; 63
    1d5c:	f8 94       	cli
    1d5e:	de bf       	out	0x3e, r29	; 62
    1d60:	0f be       	out	0x3f, r0	; 63
    1d62:	cd bf       	out	0x3d, r28	; 61
    1d64:	ed 01       	movw	r28, r26
    1d66:	08 95       	ret

00001d68 <__umulhisi3>:
    1d68:	a2 9f       	mul	r26, r18
    1d6a:	b0 01       	movw	r22, r0
    1d6c:	b3 9f       	mul	r27, r19
    1d6e:	c0 01       	movw	r24, r0
    1d70:	a3 9f       	mul	r26, r19
    1d72:	70 0d       	add	r23, r0
    1d74:	81 1d       	adc	r24, r1
    1d76:	11 24       	eor	r1, r1
    1d78:	91 1d       	adc	r25, r1
    1d7a:	b2 9f       	mul	r27, r18
    1d7c:	70 0d       	add	r23, r0
    1d7e:	81 1d       	adc	r24, r1
    1d80:	11 24       	eor	r1, r1
    1d82:	91 1d       	adc	r25, r1
    1d84:	08 95       	ret

00001d86 <_exit>:
    1d86:	f8 94       	cli

00001d88 <__stop_program>:
    1d88:	ff cf       	rjmp	.-2      	; 0x1d88 <__stop_program>
